<abi-corpus version='2.1' architecture='elf-amd-x86_64' soname='libvtkParallelCore-6.1.so.1'>
  <elf-needed>
    <dependency name='libvtkIOLegacy-6.1.so.1'/>
    <dependency name='libvtkIOCore-6.1.so.1'/>
    <dependency name='libvtkCommonExecutionModel-6.1.so.1'/>
    <dependency name='libvtkCommonDataModel-6.1.so.1'/>
    <dependency name='libvtkCommonMisc-6.1.so.1'/>
    <dependency name='libvtkCommonSystem-6.1.so.1'/>
    <dependency name='libvtksys-6.1.so.1'/>
    <dependency name='libvtkCommonTransforms-6.1.so.1'/>
    <dependency name='libvtkCommonMath-6.1.so.1'/>
    <dependency name='libvtkCommonCore-6.1.so.1'/>
    <dependency name='libdl.so.2'/>
    <dependency name='libstdc++.so.6'/>
    <dependency name='libm.so.6'/>
    <dependency name='libc.so.6'/>
    <dependency name='libgcc_s.so.1'/>
  </elf-needed>
  <elf-function-symbols>
    <!-- vtkProcess::GetController() -->
    <elf-symbol name='_ZN10vtkProcess13GetControllerEv' type='func-type' binding='global-binding' visibility='default-visibility' is-defined='yes'/>
    <!-- vtkProcess::SetController(vtkMultiProcessController*) -->
    <elf-symbol name='_ZN10vtkProcess13SetControllerEP25vtkMultiProcessController' type='func-type' binding='global-binding' visibility='default-visibility' is-defined='yes'/>
    <!-- vtkProcess::GetReturnValue() -->
    <elf-symbol name='_ZN10vtkProcess14GetReturnValueEv' type='func-type' binding='global-binding' visibility='default-visibility' is-defined='yes'/>
    <!-- vtkProcess::PrintSelf(std::ostream&, vtkIndent) -->
    <elf-symbol name='_ZN10vtkProcess9PrintSelfERSo9vtkIndent' type='func-type' binding='global-binding' visibility='default-visibility' is-defined='yes'/>
    <!-- vtkProcess::vtkProcess() -->
    <elf-symbol name='_ZN10vtkProcessC1Ev' type='func-type' binding='global-binding' visibility='default-visibility' alias='_ZN10vtkProcessC2Ev' is-defined='yes'/>
    <!-- vtkProcess::vtkProcess() -->
    <elf-symbol name='_ZN10vtkProcessC2Ev' type='func-type' binding='global-binding' visibility='default-visibility' is-defined='yes'/>
    <!-- vtkSubGroup::Initialize(int, int, int, int, vtkCommunicator*) -->
    <elf-symbol name='_ZN11vtkSubGroup10InitializeEiiiiP15vtkCommunicator' type='func-type' binding='global-binding' visibility='default-visibility' is-defined='yes'/>
    <!-- vtkSubGroup::restoreRoot(int) -->
    <elf-symbol name='_ZN11vtkSubGroup11restoreRootEi' type='func-type' binding='global-binding' visibility='default-visibility' is-defined='yes'/>
    <!-- vtkSubGroup::getLocalRank(int) -->
    <elf-symbol name='_ZN11vtkSubGroup12getLocalRankEi' type='func-type' binding='global-binding' visibility='default-visibility' is-defined='yes'/>
    <!-- vtkSubGroup::MakeSortedUnique(int*, int, int**) -->
    <elf-symbol name='_ZN11vtkSubGroup16MakeSortedUniqueEPiiPS0_' type='func-type' binding='global-binding' visibility='default-visibility' is-defined='yes'/>
    <!-- vtkSubGroup::setGatherPattern(int, int) -->
    <elf-symbol name='_ZN11vtkSubGroup16setGatherPatternEii' type='func-type' binding='global-binding' visibility='default-visibility' is-defined='yes'/>
    <!-- vtkSubGroup::MergeSortedUnique(int*, int, int*, int, int**) -->
    <elf-symbol name='_ZN11vtkSubGroup17MergeSortedUniqueEPiiS0_iPS0_' type='func-type' binding='global-binding' visibility='default-visibility' is-defined='yes'/>
    <!-- vtkSubGroup::AllReduceUniqueList(int*, int, int**) -->
    <elf-symbol name='_ZN11vtkSubGroup19AllReduceUniqueListEPiiPS0_' type='func-type' binding='global-binding' visibility='default-visibility' is-defined='yes'/>
    <!-- vtkSubGroup::computeFanInTargets() -->
    <elf-symbol name='_ZN11vtkSubGroup19computeFanInTargetsEv' type='func-type' binding='global-binding' visibility='default-visibility' is-defined='yes'/>
    <!-- vtkSubGroup::New() -->
    <elf-symbol name='_ZN11vtkSubGroup3NewEv' type='func-type' binding='global-binding' visibility='default-visibility' is-defined='yes'/>
    <!-- vtkSubGroup::Gather(char*, char*, int, int) -->
    <elf-symbol name='_ZN11vtkSubGroup6GatherEPcS0_ii' type='func-type' binding='global-binding' visibility='default-visibility' is-defined='yes'/>
    <!-- vtkSubGroup::Gather(float*, float*, int, int) -->
    <elf-symbol name='_ZN11vtkSubGroup6GatherEPfS0_ii' type='func-type' binding='global-binding' visibility='default-visibility' is-defined='yes'/>
    <!-- vtkSubGroup::Gather(int*, int*, int, int) -->
    <elf-symbol name='_ZN11vtkSubGroup6GatherEPiS0_ii' type='func-type' binding='global-binding' visibility='default-visibility' is-defined='yes'/>
    <!-- vtkSubGroup::Gather(long long*, long long*, int, int) -->
    <elf-symbol name='_ZN11vtkSubGroup6GatherEPxS0_ii' type='func-type' binding='global-binding' visibility='default-visibility' is-defined='yes'/>
    <!-- vtkSubGroup::Barrier() -->
    <elf-symbol name='_ZN11vtkSubGroup7BarrierEv' type='func-type' binding='global-binding' visibility='default-visibility' is-defined='yes'/>
    <!-- vtkSubGroup::moveRoot(int) -->
    <elf-symbol name='_ZN11vtkSubGroup8moveRootEi' type='func-type' binding='global-binding' visibility='default-visibility' is-defined='yes'/>
    <!-- vtkSubGroup::Broadcast(char*, int, int) -->
    <elf-symbol name='_ZN11vtkSubGroup9BroadcastEPcii' type='func-type' binding='global-binding' visibility='default-visibility' is-defined='yes'/>
    <!-- vtkSubGroup::Broadcast(double*, int, int) -->
    <elf-symbol name='_ZN11vtkSubGroup9BroadcastEPdii' type='func-type' binding='global-binding' visibility='default-visibility' is-defined='yes'/>
    <!-- vtkSubGroup::Broadcast(float*, int, int) -->
    <elf-symbol name='_ZN11vtkSubGroup9BroadcastEPfii' type='func-type' binding='global-binding' visibility='default-visibility' is-defined='yes'/>
    <!-- vtkSubGroup::Broadcast(int*, int, int) -->
    <elf-symbol name='_ZN11vtkSubGroup9BroadcastEPiii' type='func-type' binding='global-binding' visibility='default-visibility' is-defined='yes'/>
    <!-- vtkSubGroup::Broadcast(long long*, int, int) -->
    <elf-symbol name='_ZN11vtkSubGroup9BroadcastEPxii' type='func-type' binding='global-binding' visibility='default-visibility' is-defined='yes'/>
    <!-- vtkSubGroup::PrintSelf(std::ostream&, vtkIndent) -->
    <elf-symbol name='_ZN11vtkSubGroup9PrintSelfERSo9vtkIndent' type='func-type' binding='global-binding' visibility='default-visibility' is-defined='yes'/>
    <!-- vtkSubGroup::ReduceMax(double*, double*, int, int) -->
    <elf-symbol name='_ZN11vtkSubGroup9ReduceMaxEPdS0_ii' type='func-type' binding='global-binding' visibility='default-visibility' is-defined='yes'/>
    <!-- vtkSubGroup::ReduceMax(float*, float*, int, int) -->
    <elf-symbol name='_ZN11vtkSubGroup9ReduceMaxEPfS0_ii' type='func-type' binding='global-binding' visibility='default-visibility' is-defined='yes'/>
    <!-- vtkSubGroup::ReduceMax(int*, int*, int, int) -->
    <elf-symbol name='_ZN11vtkSubGroup9ReduceMaxEPiS0_ii' type='func-type' binding='global-binding' visibility='default-visibility' is-defined='yes'/>
    <!-- vtkSubGroup::ReduceMin(double*, double*, int, int) -->
    <elf-symbol name='_ZN11vtkSubGroup9ReduceMinEPdS0_ii' type='func-type' binding='global-binding' visibility='default-visibility' is-defined='yes'/>
    <!-- vtkSubGroup::ReduceMin(float*, float*, int, int) -->
    <elf-symbol name='_ZN11vtkSubGroup9ReduceMinEPfS0_ii' type='func-type' binding='global-binding' visibility='default-visibility' is-defined='yes'/>
    <!-- vtkSubGroup::ReduceMin(int*, int*, int, int) -->
    <elf-symbol name='_ZN11vtkSubGroup9ReduceMinEPiS0_ii' type='func-type' binding='global-binding' visibility='default-visibility' is-defined='yes'/>
    <!-- vtkSubGroup::ReduceSum(int*, int*, int, int) -->
    <elf-symbol name='_ZN11vtkSubGroup9ReduceSumEPiS0_ii' type='func-type' binding='global-binding' visibility='default-visibility' is-defined='yes'/>
    <!-- vtkSubGroup::setUpRoot(int) -->
    <elf-symbol name='_ZN11vtkSubGroup9setUpRootEi' type='func-type' binding='global-binding' visibility='default-visibility' is-defined='yes'/>
    <!-- vtkSubGroup::vtkSubGroup() -->
    <elf-symbol name='_ZN11vtkSubGroupC1Ev' type='func-type' binding='global-binding' visibility='default-visibility' alias='_ZN11vtkSubGroupC2Ev' is-defined='yes'/>
    <!-- vtkSubGroup::vtkSubGroup() -->
    <elf-symbol name='_ZN11vtkSubGroupC2Ev' type='func-type' binding='global-binding' visibility='default-visibility' is-defined='yes'/>
    <!-- vtkSubGroup::~vtkSubGroup() -->
    <elf-symbol name='_ZN11vtkSubGroupD0Ev' type='func-type' binding='global-binding' visibility='default-visibility' is-defined='yes'/>
    <!-- vtkSubGroup::~vtkSubGroup() -->
    <elf-symbol name='_ZN11vtkSubGroupD1Ev' type='func-type' binding='global-binding' visibility='default-visibility' alias='_ZN11vtkSubGroupD2Ev' is-defined='yes'/>
    <!-- vtkSubGroup::~vtkSubGroup() -->
    <elf-symbol name='_ZN11vtkSubGroupD2Ev' type='func-type' binding='global-binding' visibility='default-visibility' is-defined='yes'/>
    <!-- vtkCommunicator::AllGatherV(vtkDataArray*, vtkDataArray*) -->
    <elf-symbol name='_ZN15vtkCommunicator10AllGatherVEP12vtkDataArrayS1_' type='func-type' binding='global-binding' visibility='default-visibility' is-defined='yes'/>
    <!-- vtkCommunicator::AllGatherV(vtkDataArray*, vtkDataArray*, long long*, long long*) -->
    <elf-symbol name='_ZN15vtkCommunicator10AllGatherVEP12vtkDataArrayS1_PxS2_' type='func-type' binding='global-binding' visibility='default-visibility' is-defined='yes'/>
    <!-- vtkCommunicator::SetUseCopy(int) -->
    <elf-symbol name='_ZN15vtkCommunicator10SetUseCopyEi' type='func-type' binding='global-binding' visibility='default-visibility' is-defined='yes'/>
    <!-- vtkCommunicator::GatherVoidArray(void const*, void*, long long, int, int) -->
    <elf-symbol name='_ZN15vtkCommunicator15GatherVoidArrayEPKvPvxii' type='func-type' binding='global-binding' visibility='default-visibility' is-defined='yes'/>
    <!-- vtkCommunicator::ReduceVoidArray(void const*, void*, long long, int, vtkCommunicator::Operation*, int) -->
    <elf-symbol name='_ZN15vtkCommunicator15ReduceVoidArrayEPKvPvxiPNS_9OperationEi' type='func-type' binding='global-binding' visibility='default-visibility' is-defined='yes'/>
    <!-- vtkCommunicator::ReduceVoidArray(void const*, void*, long long, int, int, int) -->
    <elf-symbol name='_ZN15vtkCommunicator15ReduceVoidArrayEPKvPvxiii' type='func-type' binding='global-binding' visibility='default-visibility' is-defined='yes'/>
    <!-- vtkCommunicator::GatherVVoidArray(void const*, void*, long long, long long*, long long*, int, int) -->
    <elf-symbol name='_ZN15vtkCommunicator16GatherVVoidArrayEPKvPvxPxS3_ii' type='func-type' binding='global-binding' visibility='default-visibility' is-defined='yes'/>
    <!-- vtkCommunicator::ScatterVoidArray(void const*, void*, long long, int, int) -->
    <elf-symbol name='_ZN15vtkCommunicator16ScatterVoidArrayEPKvPvxii' type='func-type' binding='global-binding' visibility='default-visibility' is-defined='yes'/>
    <!-- vtkCommunicator::MarshalDataObject(vtkDataObject*, vtkCharArray*) -->
    <elf-symbol name='_ZN15vtkCommunicator17MarshalDataObjectEP13vtkDataObjectP12vtkCharArray' type='func-type' binding='global-binding' visibility='default-visibility' is-defined='yes'/>
    <!-- vtkCommunicator::ReceiveDataObject(vtkDataObject*, int, int, int) -->
    <elf-symbol name='_ZN15vtkCommunicator17ReceiveDataObjectEP13vtkDataObjectiii' type='func-type' binding='global-binding' visibility='default-visibility' is-defined='yes'/>
    <!-- vtkCommunicator::ReceiveDataObject(int, int) -->
    <elf-symbol name='_ZN15vtkCommunicator17ReceiveDataObjectEii' type='func-type' binding='global-binding' visibility='default-visibility' is-defined='yes'/>
    <!-- vtkCommunicator::ScatterVVoidArray(void const*, void*, long long*, long long*, long long, int, int) -->
    <elf-symbol name='_ZN15vtkCommunicator17ScatterVVoidArrayEPKvPvPxS3_xii' type='func-type' binding='global-binding' visibility='default-visibility' is-defined='yes'/>
    <!-- vtkCommunicator::AllGatherVoidArray(void const*, void*, long long, int) -->
    <elf-symbol name='_ZN15vtkCommunicator18AllGatherVoidArrayEPKvPvxi' type='func-type' binding='global-binding' visibility='default-visibility' is-defined='yes'/>
    <!-- vtkCommunicator::AllReduceVoidArray(void const*, void*, long long, int, vtkCommunicator::Operation*) -->
    <elf-symbol name='_ZN15vtkCommunicator18AllReduceVoidArrayEPKvPvxiPNS_9OperationE' type='func-type' binding='global-binding' visibility='default-visibility' is-defined='yes'/>
    <!-- vtkCommunicator::AllReduceVoidArray(void const*, void*, long long, int, int) -->
    <elf-symbol name='_ZN15vtkCommunicator18AllReduceVoidArrayEPKvPvxii' type='func-type' binding='global-binding' visibility='default-visibility' is-defined='yes'/>
    <!-- vtkCommunicator::BroadcastVoidArray(void*, long long, int, int) -->
    <elf-symbol name='_ZN15vtkCommunicator18BroadcastVoidArrayEPvxii' type='func-type' binding='global-binding' visibility='default-visibility' is-defined='yes'/>
    <!-- vtkCommunicator::GetParentProcessor(int) -->
    <elf-symbol name='_ZN15vtkCommunicator18GetParentProcessorEi' type='func-type' binding='global-binding' visibility='default-visibility' is-defined='yes'/>
    <!-- vtkCommunicator::AllGatherVVoidArray(void const*, void*, long long, long long*, long long*, int) -->
    <elf-symbol name='_ZN15vtkCommunicator19AllGatherVVoidArrayEPKvPvxPxS3_i' type='func-type' binding='global-binding' visibility='default-visibility' is-defined='yes'/>
    <!-- vtkCommunicator::ComputeGlobalBounds(int, int, vtkBoundingBox*, int*, int*, int, int, int) -->
    <elf-symbol name='_ZN15vtkCommunicator19ComputeGlobalBoundsEiiP14vtkBoundingBoxPiS2_iii' type='func-type' binding='global-binding' visibility='default-visibility' is-defined='yes'/>
    <!-- vtkCommunicator::UnMarshalDataObject(vtkCharArray*, vtkDataObject*) -->
    <elf-symbol name='_ZN15vtkCommunicator19UnMarshalDataObjectEP12vtkCharArrayP13vtkDataObject' type='func-type' binding='global-binding' visibility='default-visibility' is-defined='yes'/>
    <!-- vtkCommunicator::SetNumberOfProcesses(int) -->
    <elf-symbol name='_ZN15vtkCommunicator20SetNumberOfProcessesEi' type='func-type' binding='global-binding' visibility='default-visibility' is-defined='yes'/>
    <!-- vtkCommunicator::GetLeftChildProcessor(int) -->
    <elf-symbol name='_ZN15vtkCommunicator21GetLeftChildProcessorEi' type='func-type' binding='global-binding' visibility='default-visibility' is-defined='yes'/>
    <!-- vtkCommunicator::SendElementalDataObject(vtkDataObject*, int, int) -->
    <elf-symbol name='_ZN15vtkCommunicator23SendElementalDataObjectEP13vtkDataObjectii' type='func-type' binding='global-binding' visibility='default-visibility' is-defined='yes'/>
    <!-- vtkCommunicator::ReceiveElementalDataObject(vtkDataObject*, int, int) -->
    <elf-symbol name='_ZN15vtkCommunicator26ReceiveElementalDataObjectEP13vtkDataObjectii' type='func-type' binding='global-binding' visibility='default-visibility' is-defined='yes'/>
    <!-- vtkCommunicator::Send(vtkDataArray*, int, int) -->
    <elf-symbol name='_ZN15vtkCommunicator4SendEP12vtkDataArrayii' type='func-type' binding='global-binding' visibility='default-visibility' is-defined='yes'/>
    <!-- vtkCommunicator::Send(vtkDataObject*, int, int) -->
    <elf-symbol name='_ZN15vtkCommunicator4SendEP13vtkDataObjectii' type='func-type' binding='global-binding' visibility='default-visibility' is-defined='yes'/>
    <!-- vtkCommunicator::Send(vtkMultiProcessStream const&, int, int) -->
    <elf-symbol name='_ZN15vtkCommunicator4SendERK21vtkMultiProcessStreamii' type='func-type' binding='global-binding' visibility='default-visibility' is-defined='yes'/>
    <!-- vtkCommunicator::Gather(vtkDataArray*, vtkDataArray*, int) -->
    <elf-symbol name='_ZN15vtkCommunicator6GatherEP12vtkDataArrayS1_i' type='func-type' binding='global-binding' visibility='default-visibility' is-defined='yes'/>
    <!-- vtkCommunicator::Reduce(vtkDataArray*, vtkDataArray*, vtkCommunicator::Operation*, int) -->
    <elf-symbol name='_ZN15vtkCommunicator6ReduceEP12vtkDataArrayS1_PNS_9OperationEi' type='func-type' binding='global-binding' visibility='default-visibility' is-defined='yes'/>
    <!-- vtkCommunicator::Reduce(vtkDataArray*, vtkDataArray*, int, int) -->
    <elf-symbol name='_ZN15vtkCommunicator6ReduceEP12vtkDataArrayS1_ii' type='func-type' binding='global-binding' visibility='default-visibility' is-defined='yes'/>
    <!-- vtkCommunicator::Barrier() -->
    <elf-symbol name='_ZN15vtkCommunicator7BarrierEv' type='func-type' binding='global-binding' visibility='default-visibility' is-defined='yes'/>
    <!-- vtkCommunicator::GatherV(vtkDataArray*, vtkDataArray*, long long*, long long*, int) -->
    <elf-symbol name='_ZN15vtkCommunicator7GatherVEP12vtkDataArrayS1_PxS2_i' type='func-type' binding='global-binding' visibility='default-visibility' is-defined='yes'/>
    <!-- vtkCommunicator::GatherV(vtkDataArray*, vtkDataArray*, int) -->
    <elf-symbol name='_ZN15vtkCommunicator7GatherVEP12vtkDataArrayS1_i' type='func-type' binding='global-binding' visibility='default-visibility' is-defined='yes'/>
    <!-- vtkCommunicator::Receive(vtkDataArray*, int, int) -->
    <elf-symbol name='_ZN15vtkCommunicator7ReceiveEP12vtkDataArrayii' type='func-type' binding='global-binding' visibility='default-visibility' is-defined='yes'/>
    <!-- vtkCommunicator::Receive(vtkDataObject*, int, int) -->
    <elf-symbol name='_ZN15vtkCommunicator7ReceiveEP13vtkDataObjectii' type='func-type' binding='global-binding' visibility='default-visibility' is-defined='yes'/>
    <!-- vtkCommunicator::Receive(vtkMultiProcessStream&, int, int) -->
    <elf-symbol name='_ZN15vtkCommunicator7ReceiveER21vtkMultiProcessStreamii' type='func-type' binding='global-binding' visibility='default-visibility' is-defined='yes'/>
    <!-- vtkCommunicator::Scatter(vtkDataArray*, vtkDataArray*, int) -->
    <elf-symbol name='_ZN15vtkCommunicator7ScatterEP12vtkDataArrayS1_i' type='func-type' binding='global-binding' visibility='default-visibility' is-defined='yes'/>
    <!-- vtkCommunicator::AllGather(vtkDataArray*, vtkDataArray*) -->
    <elf-symbol name='_ZN15vtkCommunicator9AllGatherEP12vtkDataArrayS1_' type='func-type' binding='global-binding' visibility='default-visibility' is-defined='yes'/>
    <!-- vtkCommunicator::AllReduce(vtkDataArray*, vtkDataArray*, vtkCommunicator::Operation*) -->
    <elf-symbol name='_ZN15vtkCommunicator9AllReduceEP12vtkDataArrayS1_PNS_9OperationE' type='func-type' binding='global-binding' visibility='default-visibility' is-defined='yes'/>
    <!-- vtkCommunicator::AllReduce(vtkDataArray*, vtkDataArray*, int) -->
    <elf-symbol name='_ZN15vtkCommunicator9AllReduceEP12vtkDataArrayS1_i' type='func-type' binding='global-binding' visibility='default-visibility' is-defined='yes'/>
    <!-- vtkCommunicator::Broadcast(vtkDataArray*, int) -->
    <elf-symbol name='_ZN15vtkCommunicator9BroadcastEP12vtkDataArrayi' type='func-type' binding='global-binding' visibility='default-visibility' is-defined='yes'/>
    <!-- vtkCommunicator::Broadcast(vtkDataObject*, int) -->
    <elf-symbol name='_ZN15vtkCommunicator9BroadcastEP13vtkDataObjecti' type='func-type' binding='global-binding' visibility='default-visibility' is-defined='yes'/>
    <!-- vtkCommunicator::Broadcast(vtkMultiProcessStream&, int) -->
    <elf-symbol name='_ZN15vtkCommunicator9BroadcastER21vtkMultiProcessStreami' type='func-type' binding='global-binding' visibility='default-visibility' is-defined='yes'/>
    <!-- vtkCommunicator::PrintSelf(std::ostream&, vtkIndent) -->
    <elf-symbol name='_ZN15vtkCommunicator9PrintSelfERSo9vtkIndent' type='func-type' binding='global-binding' visibility='default-visibility' is-defined='yes'/>
    <!-- vtkCommunicator::vtkCommunicator() -->
    <elf-symbol name='_ZN15vtkCommunicatorC1Ev' type='func-type' binding='global-binding' visibility='default-visibility' is-defined='yes'/>
    <!-- vtkCommunicator::vtkCommunicator() -->
    <elf-symbol name='_ZN15vtkCommunicatorC2Ev' type='func-type' binding='global-binding' visibility='default-visibility' alias='_ZN15vtkCommunicatorC1Ev' is-defined='yes'/>
    <!-- vtkCommunicator::~vtkCommunicator() -->
    <elf-symbol name='_ZN15vtkCommunicatorD0Ev' type='func-type' binding='global-binding' visibility='default-visibility' is-defined='yes'/>
    <!-- vtkCommunicator::~vtkCommunicator() -->
    <elf-symbol name='_ZN15vtkCommunicatorD1Ev' type='func-type' binding='global-binding' visibility='default-visibility' alias='_ZN15vtkCommunicatorD2Ev' is-defined='yes'/>
    <!-- vtkCommunicator::~vtkCommunicator() -->
    <elf-symbol name='_ZN15vtkCommunicatorD2Ev' type='func-type' binding='global-binding' visibility='default-visibility' is-defined='yes'/>
    <!-- vtkProcessGroup::Initialize(vtkCommunicator*) -->
    <elf-symbol name='_ZN15vtkProcessGroup10InitializeEP15vtkCommunicator' type='func-type' binding='global-binding' visibility='default-visibility' is-defined='yes'/>
    <!-- vtkProcessGroup::Initialize(vtkMultiProcessController*) -->
    <elf-symbol name='_ZN15vtkProcessGroup10InitializeEP25vtkMultiProcessController' type='func-type' binding='global-binding' visibility='default-visibility' is-defined='yes'/>
    <!-- vtkProcessGroup::AddProcessId(int) -->
    <elf-symbol name='_ZN15vtkProcessGroup12AddProcessIdEi' type='func-type' binding='global-binding' visibility='default-visibility' is-defined='yes'/>
    <!-- vtkProcessGroup::FindProcessId(int) -->
    <elf-symbol name='_ZN15vtkProcessGroup13FindProcessIdEi' type='func-type' binding='global-binding' visibility='default-visibility' is-defined='yes'/>
    <!-- vtkProcessGroup::RemoveProcessId(int) -->
    <elf-symbol name='_ZN15vtkProcessGroup15RemoveProcessIdEi' type='func-type' binding='global-binding' visibility='default-visibility' is-defined='yes'/>
    <!-- vtkProcessGroup::SetCommunicator(vtkCommunicator*) -->
    <elf-symbol name='_ZN15vtkProcessGroup15SetCommunicatorEP15vtkCommunicator' type='func-type' binding='global-binding' visibility='default-visibility' is-defined='yes'/>
    <!-- vtkProcessGroup::GetLocalProcessId() -->
    <elf-symbol name='_ZN15vtkProcessGroup17GetLocalProcessIdEv' type='func-type' binding='global-binding' visibility='default-visibility' is-defined='yes'/>
    <!-- vtkProcessGroup::RemoveAllProcessIds() -->
    <elf-symbol name='_ZN15vtkProcessGroup19RemoveAllProcessIdsEv' type='func-type' binding='global-binding' visibility='default-visibility' is-defined='yes'/>
    <!-- vtkProcessGroup::New() -->
    <elf-symbol name='_ZN15vtkProcessGroup3NewEv' type='func-type' binding='global-binding' visibility='default-visibility' is-defined='yes'/>
    <!-- vtkProcessGroup::Copy(vtkProcessGroup*) -->
    <elf-symbol name='_ZN15vtkProcessGroup4CopyEPS_' type='func-type' binding='global-binding' visibility='default-visibility' is-defined='yes'/>
    <!-- vtkProcessGroup::PrintSelf(std::ostream&, vtkIndent) -->
    <elf-symbol name='_ZN15vtkProcessGroup9PrintSelfERSo9vtkIndent' type='func-type' binding='global-binding' visibility='default-visibility' is-defined='yes'/>
    <!-- vtkProcessGroup::vtkProcessGroup() -->
    <elf-symbol name='_ZN15vtkProcessGroupC1Ev' type='func-type' binding='global-binding' visibility='default-visibility' alias='_ZN15vtkProcessGroupC2Ev' is-defined='yes'/>
    <!-- vtkProcessGroup::vtkProcessGroup() -->
    <elf-symbol name='_ZN15vtkProcessGroupC2Ev' type='func-type' binding='global-binding' visibility='default-visibility' is-defined='yes'/>
    <!-- vtkProcessGroup::~vtkProcessGroup() -->
    <elf-symbol name='_ZN15vtkProcessGroupD0Ev' type='func-type' binding='global-binding' visibility='default-visibility' is-defined='yes'/>
    <!-- vtkProcessGroup::~vtkProcessGroup() -->
    <elf-symbol name='_ZN15vtkProcessGroupD1Ev' type='func-type' binding='global-binding' visibility='default-visibility' alias='_ZN15vtkProcessGroupD2Ev' is-defined='yes'/>
    <!-- vtkProcessGroup::~vtkProcessGroup() -->
    <elf-symbol name='_ZN15vtkProcessGroupD2Ev' type='func-type' binding='global-binding' visibility='default-visibility' is-defined='yes'/>
    <!-- vtkDummyController::SetCommunicator(vtkCommunicator*) -->
    <elf-symbol name='_ZN18vtkDummyController15SetCommunicatorEP15vtkCommunicator' type='func-type' binding='global-binding' visibility='default-visibility' is-defined='yes'/>
    <!-- vtkDummyController::SetRMICommunicator(vtkCommunicator*) -->
    <elf-symbol name='_ZN18vtkDummyController18SetRMICommunicatorEP15vtkCommunicator' type='func-type' binding='global-binding' visibility='default-visibility' is-defined='yes'/>
    <!-- vtkDummyController::SingleMethodExecute() -->
    <elf-symbol name='_ZN18vtkDummyController19SingleMethodExecuteEv' type='func-type' binding='global-binding' visibility='default-visibility' is-defined='yes'/>
    <!-- vtkDummyController::MultipleMethodExecute() -->
    <elf-symbol name='_ZN18vtkDummyController21MultipleMethodExecuteEv' type='func-type' binding='global-binding' visibility='default-visibility' is-defined='yes'/>
    <!-- vtkDummyController::New() -->
    <elf-symbol name='_ZN18vtkDummyController3NewEv' type='func-type' binding='global-binding' visibility='default-visibility' is-defined='yes'/>
    <!-- vtkDummyController::PrintSelf(std::ostream&, vtkIndent) -->
    <elf-symbol name='_ZN18vtkDummyController9PrintSelfERSo9vtkIndent' type='func-type' binding='global-binding' visibility='default-visibility' is-defined='yes'/>
    <!-- vtkDummyController::vtkDummyController() -->
    <elf-symbol name='_ZN18vtkDummyControllerC1Ev' type='func-type' binding='global-binding' visibility='default-visibility' is-defined='yes'/>
    <!-- vtkDummyController::vtkDummyController() -->
    <elf-symbol name='_ZN18vtkDummyControllerC2Ev' type='func-type' binding='global-binding' visibility='default-visibility' alias='_ZN18vtkDummyControllerC1Ev' is-defined='yes'/>
    <!-- vtkDummyController::~vtkDummyController() -->
    <elf-symbol name='_ZN18vtkDummyControllerD0Ev' type='func-type' binding='global-binding' visibility='default-visibility' is-defined='yes'/>
    <!-- vtkDummyController::~vtkDummyController() -->
    <elf-symbol name='_ZN18vtkDummyControllerD1Ev' type='func-type' binding='global-binding' visibility='default-visibility' alias='_ZN18vtkDummyControllerD2Ev' is-defined='yes'/>
    <!-- vtkDummyController::~vtkDummyController() -->
    <elf-symbol name='_ZN18vtkDummyControllerD2Ev' type='func-type' binding='global-binding' visibility='default-visibility' is-defined='yes'/>
    <!-- vtkSubCommunicator::SendVoidArray(void const*, long long, int, int, int) -->
    <elf-symbol name='_ZN18vtkSubCommunicator13SendVoidArrayEPKvxiii' type='func-type' binding='global-binding' visibility='default-visibility' is-defined='yes'/>
    <!-- vtkSubCommunicator::ReceiveVoidArray(void*, long long, int, int, int) -->
    <elf-symbol name='_ZN18vtkSubCommunicator16ReceiveVoidArrayEPvxiii' type='func-type' binding='global-binding' visibility='default-visibility' is-defined='yes'/>
    <!-- vtkSubCommunicator::New() -->
    <elf-symbol name='_ZN18vtkSubCommunicator3NewEv' type='func-type' binding='global-binding' visibility='default-visibility' is-defined='yes'/>
    <!-- vtkSubCommunicator::SetGroup(vtkProcessGroup*) -->
    <elf-symbol name='_ZN18vtkSubCommunicator8SetGroupEP15vtkProcessGroup' type='func-type' binding='global-binding' visibility='default-visibility' is-defined='yes'/>
    <!-- vtkSubCommunicator::PrintSelf(std::ostream&, vtkIndent) -->
    <elf-symbol name='_ZN18vtkSubCommunicator9PrintSelfERSo9vtkIndent' type='func-type' binding='global-binding' visibility='default-visibility' is-defined='yes'/>
    <!-- vtkSubCommunicator::vtkSubCommunicator() -->
    <elf-symbol name='_ZN18vtkSubCommunicatorC1Ev' type='func-type' binding='global-binding' visibility='default-visibility' alias='_ZN18vtkSubCommunicatorC2Ev' is-defined='yes'/>
    <!-- vtkSubCommunicator::vtkSubCommunicator() -->
    <elf-symbol name='_ZN18vtkSubCommunicatorC2Ev' type='func-type' binding='global-binding' visibility='default-visibility' is-defined='yes'/>
    <!-- vtkSubCommunicator::~vtkSubCommunicator() -->
    <elf-symbol name='_ZN18vtkSubCommunicatorD0Ev' type='func-type' binding='global-binding' visibility='default-visibility' is-defined='yes'/>
    <!-- vtkSubCommunicator::~vtkSubCommunicator() -->
    <elf-symbol name='_ZN18vtkSubCommunicatorD1Ev' type='func-type' binding='global-binding' visibility='default-visibility' alias='_ZN18vtkSubCommunicatorD2Ev' is-defined='yes'/>
    <!-- vtkSubCommunicator::~vtkSubCommunicator() -->
    <elf-symbol name='_ZN18vtkSubCommunicatorD2Ev' type='func-type' binding='global-binding' visibility='default-visibility' is-defined='yes'/>
    <!-- vtkSocketController::Initialize(int*, char***) -->
    <elf-symbol name='_ZN19vtkSocketController10InitializeEPiPPPc' type='func-type' binding='global-binding' visibility='default-visibility' is-defined='yes'/>
    <!-- vtkSocketController::CloseConnection() -->
    <elf-symbol name='_ZN19vtkSocketController15CloseConnectionEv' type='func-type' binding='global-binding' visibility='default-visibility' is-defined='yes'/>
    <!-- vtkSocketController::SetCommunicator(vtkSocketCommunicator*) -->
    <elf-symbol name='_ZN19vtkSocketController15SetCommunicatorEP21vtkSocketCommunicator' type='func-type' binding='global-binding' visibility='default-visibility' is-defined='yes'/>
    <!-- vtkSocketController::WaitForConnection(int) -->
    <elf-symbol name='_ZN19vtkSocketController17WaitForConnectionEi' type='func-type' binding='global-binding' visibility='default-visibility' is-defined='yes'/>
    <!-- vtkSocketController::CreateCompliantController() -->
    <elf-symbol name='_ZN19vtkSocketController25CreateCompliantControllerEv' type='func-type' binding='global-binding' visibility='default-visibility' is-defined='yes'/>
    <!-- vtkSocketController::GetSwapBytesInReceivedData() -->
    <elf-symbol name='_ZN19vtkSocketController26GetSwapBytesInReceivedDataEv' type='func-type' binding='global-binding' visibility='default-visibility' is-defined='yes'/>
    <!-- vtkSocketController::New() -->
    <elf-symbol name='_ZN19vtkSocketController3NewEv' type='func-type' binding='global-binding' visibility='default-visibility' is-defined='yes'/>
    <!-- vtkSocketController::ConnectTo(char const*, int) -->
    <elf-symbol name='_ZN19vtkSocketController9ConnectToEPKci' type='func-type' binding='global-binding' visibility='default-visibility' is-defined='yes'/>
    <!-- vtkSocketController::PrintSelf(std::ostream&, vtkIndent) -->
    <elf-symbol name='_ZN19vtkSocketController9PrintSelfERSo9vtkIndent' type='func-type' binding='global-binding' visibility='default-visibility' is-defined='yes'/>
    <!-- vtkSocketController::vtkSocketController() -->
    <elf-symbol name='_ZN19vtkSocketControllerC1Ev' type='func-type' binding='global-binding' visibility='default-visibility' is-defined='yes'/>
    <!-- vtkSocketController::vtkSocketController() -->
    <elf-symbol name='_ZN19vtkSocketControllerC2Ev' type='func-type' binding='global-binding' visibility='default-visibility' alias='_ZN19vtkSocketControllerC1Ev' is-defined='yes'/>
    <!-- vtkSocketController::~vtkSocketController() -->
    <elf-symbol name='_ZN19vtkSocketControllerD0Ev' type='func-type' binding='global-binding' visibility='default-visibility' is-defined='yes'/>
    <!-- vtkSocketController::~vtkSocketController() -->
    <elf-symbol name='_ZN19vtkSocketControllerD1Ev' type='func-type' binding='global-binding' visibility='default-visibility' alias='_ZN19vtkSocketControllerD2Ev' is-defined='yes'/>
    <!-- vtkSocketController::~vtkSocketController() -->
    <elf-symbol name='_ZN19vtkSocketControllerD2Ev' type='func-type' binding='global-binding' visibility='default-visibility' is-defined='yes'/>
    <!-- vtkDummyCommunicator::New() -->
    <elf-symbol name='_ZN20vtkDummyCommunicator3NewEv' type='func-type' binding='global-binding' visibility='default-visibility' is-defined='yes'/>
    <!-- vtkDummyCommunicator::PrintSelf(std::ostream&, vtkIndent) -->
    <elf-symbol name='_ZN20vtkDummyCommunicator9PrintSelfERSo9vtkIndent' type='func-type' binding='global-binding' visibility='default-visibility' is-defined='yes'/>
    <!-- vtkDummyCommunicator::vtkDummyCommunicator() -->
    <elf-symbol name='_ZN20vtkDummyCommunicatorC1Ev' type='func-type' binding='global-binding' visibility='default-visibility' alias='_ZN20vtkDummyCommunicatorC2Ev' is-defined='yes'/>
    <!-- vtkDummyCommunicator::vtkDummyCommunicator() -->
    <elf-symbol name='_ZN20vtkDummyCommunicatorC2Ev' type='func-type' binding='global-binding' visibility='default-visibility' is-defined='yes'/>
    <!-- vtkDummyCommunicator::~vtkDummyCommunicator() -->
    <elf-symbol name='_ZN20vtkDummyCommunicatorD0Ev' type='func-type' binding='global-binding' visibility='default-visibility' is-defined='yes'/>
    <!-- vtkDummyCommunicator::~vtkDummyCommunicator() -->
    <elf-symbol name='_ZN20vtkDummyCommunicatorD1Ev' type='func-type' binding='global-binding' visibility='default-visibility' alias='_ZN20vtkDummyCommunicatorD2Ev' is-defined='yes'/>
    <!-- vtkDummyCommunicator::~vtkDummyCommunicator() -->
    <elf-symbol name='_ZN20vtkDummyCommunicatorD2Ev' type='func-type' binding='global-binding' visibility='default-visibility' is-defined='yes'/>
    <!-- vtkMultiProcessStream::GetRawData(unsigned char*&, unsigned int&) -->
    <elf-symbol name='_ZN21vtkMultiProcessStream10GetRawDataERPhRj' type='func-type' binding='global-binding' visibility='default-visibility' is-defined='yes'/>
    <!-- vtkMultiProcessStream::SetRawData(unsigned char const*, unsigned int) -->
    <elf-symbol name='_ZN21vtkMultiProcessStream10SetRawDataEPKhj' type='func-type' binding='global-binding' visibility='default-visibility' is-defined='yes'/>
    <!-- vtkMultiProcessStream::SetRawData(std::vector<unsigned char, std::allocator<unsigned char> > const&) -->
    <elf-symbol name='_ZN21vtkMultiProcessStream10SetRawDataERKSt6vectorIhSaIhEE' type='func-type' binding='global-binding' visibility='default-visibility' is-defined='yes'/>
    <!-- vtkMultiProcessStream::Pop(char*&, unsigned int&) -->
    <elf-symbol name='_ZN21vtkMultiProcessStream3PopERPcRj' type='func-type' binding='global-binding' visibility='default-visibility' is-defined='yes'/>
    <!-- vtkMultiProcessStream::Pop(double*&, unsigned int&) -->
    <elf-symbol name='_ZN21vtkMultiProcessStream3PopERPdRj' type='func-type' binding='global-binding' visibility='default-visibility' is-defined='yes'/>
    <!-- vtkMultiProcessStream::Pop(float*&, unsigned int&) -->
    <elf-symbol name='_ZN21vtkMultiProcessStream3PopERPfRj' type='func-type' binding='global-binding' visibility='default-visibility' is-defined='yes'/>
    <!-- vtkMultiProcessStream::Pop(unsigned char*&, unsigned int&) -->
    <elf-symbol name='_ZN21vtkMultiProcessStream3PopERPhRj' type='func-type' binding='global-binding' visibility='default-visibility' is-defined='yes'/>
    <!-- vtkMultiProcessStream::Pop(int*&, unsigned int&) -->
    <elf-symbol name='_ZN21vtkMultiProcessStream3PopERPiRj' type='func-type' binding='global-binding' visibility='default-visibility' is-defined='yes'/>
    <!-- vtkMultiProcessStream::Pop(unsigned int*&, unsigned int&) -->
    <elf-symbol name='_ZN21vtkMultiProcessStream3PopERPjRj' type='func-type' binding='global-binding' visibility='default-visibility' is-defined='yes'/>
    <!-- vtkMultiProcessStream::Pop(long long*&, unsigned int&) -->
    <elf-symbol name='_ZN21vtkMultiProcessStream3PopERPxRj' type='func-type' binding='global-binding' visibility='default-visibility' is-defined='yes'/>
    <!-- vtkMultiProcessStream::Pop(unsigned long long*&, unsigned int&) -->
    <elf-symbol name='_ZN21vtkMultiProcessStream3PopERPyRj' type='func-type' binding='global-binding' visibility='default-visibility' is-defined='yes'/>
    <!-- vtkMultiProcessStream::Push(char*, unsigned int) -->
    <elf-symbol name='_ZN21vtkMultiProcessStream4PushEPcj' type='func-type' binding='global-binding' visibility='default-visibility' is-defined='yes'/>
    <!-- vtkMultiProcessStream::Push(double*, unsigned int) -->
    <elf-symbol name='_ZN21vtkMultiProcessStream4PushEPdj' type='func-type' binding='global-binding' visibility='default-visibility' is-defined='yes'/>
    <!-- vtkMultiProcessStream::Push(float*, unsigned int) -->
    <elf-symbol name='_ZN21vtkMultiProcessStream4PushEPfj' type='func-type' binding='global-binding' visibility='default-visibility' is-defined='yes'/>
    <!-- vtkMultiProcessStream::Push(unsigned char*, unsigned int) -->
    <elf-symbol name='_ZN21vtkMultiProcessStream4PushEPhj' type='func-type' binding='global-binding' visibility='default-visibility' is-defined='yes'/>
    <!-- vtkMultiProcessStream::Push(int*, unsigned int) -->
    <elf-symbol name='_ZN21vtkMultiProcessStream4PushEPij' type='func-type' binding='global-binding' visibility='default-visibility' is-defined='yes'/>
    <!-- vtkMultiProcessStream::Push(unsigned int*, unsigned int) -->
    <elf-symbol name='_ZN21vtkMultiProcessStream4PushEPjj' type='func-type' binding='global-binding' visibility='default-visibility' is-defined='yes'/>
    <!-- vtkMultiProcessStream::Push(long long*, unsigned int) -->
    <elf-symbol name='_ZN21vtkMultiProcessStream4PushEPxj' type='func-type' binding='global-binding' visibility='default-visibility' is-defined='yes'/>
    <!-- vtkMultiProcessStream::Push(unsigned long long*, unsigned int) -->
    <elf-symbol name='_ZN21vtkMultiProcessStream4PushEPyj' type='func-type' binding='global-binding' visibility='default-visibility' is-defined='yes'/>
    <!-- vtkMultiProcessStream::Size() -->
    <elf-symbol name='_ZN21vtkMultiProcessStream4SizeEv' type='func-type' binding='global-binding' visibility='default-visibility' is-defined='yes'/>
    <!-- vtkMultiProcessStream::Empty() -->
    <elf-symbol name='_ZN21vtkMultiProcessStream5EmptyEv' type='func-type' binding='global-binding' visibility='default-visibility' is-defined='yes'/>
    <!-- vtkMultiProcessStream::Reset() -->
    <elf-symbol name='_ZN21vtkMultiProcessStream5ResetEv' type='func-type' binding='global-binding' visibility='default-visibility' is-defined='yes'/>
    <!-- vtkMultiProcessStream::vtkMultiProcessStream(vtkMultiProcessStream const&) -->
    <elf-symbol name='_ZN21vtkMultiProcessStreamC1ERKS_' type='func-type' binding='global-binding' visibility='default-visibility' is-defined='yes'/>
    <!-- vtkMultiProcessStream::vtkMultiProcessStream() -->
    <elf-symbol name='_ZN21vtkMultiProcessStreamC1Ev' type='func-type' binding='global-binding' visibility='default-visibility' alias='_ZN21vtkMultiProcessStreamC2Ev' is-defined='yes'/>
    <!-- vtkMultiProcessStream::vtkMultiProcessStream(vtkMultiProcessStream const&) -->
    <elf-symbol name='_ZN21vtkMultiProcessStreamC2ERKS_' type='func-type' binding='global-binding' visibility='default-visibility' alias='_ZN21vtkMultiProcessStreamC1ERKS_' is-defined='yes'/>
    <!-- vtkMultiProcessStream::vtkMultiProcessStream() -->
    <elf-symbol name='_ZN21vtkMultiProcessStreamC2Ev' type='func-type' binding='global-binding' visibility='default-visibility' is-defined='yes'/>
    <!-- vtkMultiProcessStream::~vtkMultiProcessStream() -->
    <elf-symbol name='_ZN21vtkMultiProcessStreamD1Ev' type='func-type' binding='global-binding' visibility='default-visibility' alias='_ZN21vtkMultiProcessStreamD2Ev' is-defined='yes'/>
    <!-- vtkMultiProcessStream::~vtkMultiProcessStream() -->
    <elf-symbol name='_ZN21vtkMultiProcessStreamD2Ev' type='func-type' binding='global-binding' visibility='default-visibility' is-defined='yes'/>
    <!-- vtkMultiProcessStream::operator=(vtkMultiProcessStream const&) -->
    <elf-symbol name='_ZN21vtkMultiProcessStreamaSERKS_' type='func-type' binding='global-binding' visibility='default-visibility' is-defined='yes'/>
    <!-- vtkMultiProcessStream::operator<<(vtkMultiProcessStream const&) -->
    <elf-symbol name='_ZN21vtkMultiProcessStreamlsERKS_' type='func-type' binding='global-binding' visibility='default-visibility' is-defined='yes'/>
    <!-- vtkMultiProcessStream::operator<<(std::string const&) -->
    <elf-symbol name='_ZN21vtkMultiProcessStreamlsERKSs' type='func-type' binding='global-binding' visibility='default-visibility' is-defined='yes'/>
    <!-- vtkMultiProcessStream::operator<<(char) -->
    <elf-symbol name='_ZN21vtkMultiProcessStreamlsEc' type='func-type' binding='global-binding' visibility='default-visibility' is-defined='yes'/>
    <!-- vtkMultiProcessStream::operator<<(double) -->
    <elf-symbol name='_ZN21vtkMultiProcessStreamlsEd' type='func-type' binding='global-binding' visibility='default-visibility' is-defined='yes'/>
    <!-- vtkMultiProcessStream::operator<<(float) -->
    <elf-symbol name='_ZN21vtkMultiProcessStreamlsEf' type='func-type' binding='global-binding' visibility='default-visibility' is-defined='yes'/>
    <!-- vtkMultiProcessStream::operator<<(unsigned char) -->
    <elf-symbol name='_ZN21vtkMultiProcessStreamlsEh' type='func-type' binding='global-binding' visibility='default-visibility' is-defined='yes'/>
    <!-- vtkMultiProcessStream::operator<<(int) -->
    <elf-symbol name='_ZN21vtkMultiProcessStreamlsEi' type='func-type' binding='global-binding' visibility='default-visibility' is-defined='yes'/>
    <!-- vtkMultiProcessStream::operator<<(unsigned int) -->
    <elf-symbol name='_ZN21vtkMultiProcessStreamlsEj' type='func-type' binding='global-binding' visibility='default-visibility' is-defined='yes'/>
    <!-- vtkMultiProcessStream::operator<<(long long) -->
    <elf-symbol name='_ZN21vtkMultiProcessStreamlsEx' type='func-type' binding='global-binding' visibility='default-visibility' is-defined='yes'/>
    <!-- vtkMultiProcessStream::operator<<(unsigned long long) -->
    <elf-symbol name='_ZN21vtkMultiProcessStreamlsEy' type='func-type' binding='global-binding' visibility='default-visibility' is-defined='yes'/>
    <!-- vtkMultiProcessStream::operator>>(vtkMultiProcessStream&) -->
    <elf-symbol name='_ZN21vtkMultiProcessStreamrsERS_' type='func-type' binding='global-binding' visibility='default-visibility' is-defined='yes'/>
    <!-- vtkMultiProcessStream::operator>>(std::string&) -->
    <elf-symbol name='_ZN21vtkMultiProcessStreamrsERSs' type='func-type' binding='global-binding' visibility='default-visibility' is-defined='yes'/>
    <!-- vtkMultiProcessStream::operator>>(char&) -->
    <elf-symbol name='_ZN21vtkMultiProcessStreamrsERc' type='func-type' binding='global-binding' visibility='default-visibility' is-defined='yes'/>
    <!-- vtkMultiProcessStream::operator>>(double&) -->
    <elf-symbol name='_ZN21vtkMultiProcessStreamrsERd' type='func-type' binding='global-binding' visibility='default-visibility' is-defined='yes'/>
    <!-- vtkMultiProcessStream::operator>>(float&) -->
    <elf-symbol name='_ZN21vtkMultiProcessStreamrsERf' type='func-type' binding='global-binding' visibility='default-visibility' is-defined='yes'/>
    <!-- vtkMultiProcessStream::operator>>(unsigned char&) -->
    <elf-symbol name='_ZN21vtkMultiProcessStreamrsERh' type='func-type' binding='global-binding' visibility='default-visibility' is-defined='yes'/>
    <!-- vtkMultiProcessStream::operator>>(int&) -->
    <elf-symbol name='_ZN21vtkMultiProcessStreamrsERi' type='func-type' binding='global-binding' visibility='default-visibility' is-defined='yes'/>
    <!-- vtkMultiProcessStream::operator>>(unsigned int&) -->
    <elf-symbol name='_ZN21vtkMultiProcessStreamrsERj' type='func-type' binding='global-binding' visibility='default-visibility' is-defined='yes'/>
    <!-- vtkMultiProcessStream::operator>>(long long&) -->
    <elf-symbol name='_ZN21vtkMultiProcessStreamrsERx' type='func-type' binding='global-binding' visibility='default-visibility' is-defined='yes'/>
    <!-- vtkMultiProcessStream::operator>>(unsigned long long&) -->
    <elf-symbol name='_ZN21vtkMultiProcessStreamrsERy' type='func-type' binding='global-binding' visibility='default-visibility' is-defined='yes'/>
    <!-- vtkSocketCommunicator::GetVersion() -->
    <elf-symbol name='_ZN21vtkSocketCommunicator10GetVersionEv' type='func-type' binding='global-binding' visibility='default-visibility' is-defined='yes'/>
    <!-- vtkSocketCommunicator::SendTagged(void const*, int, int, int, char const*) -->
    <elf-symbol name='_ZN21vtkSocketCommunicator10SendTaggedEPKviiiPKc' type='func-type' binding='global-binding' visibility='default-visibility' is-defined='yes'/>
    <!-- vtkSocketCommunicator::FixByteOrder(void*, int, int) -->
    <elf-symbol name='_ZN21vtkSocketCommunicator12FixByteOrderEPvii' type='func-type' binding='global-binding' visibility='default-visibility' is-defined='yes'/>
    <!-- vtkSocketCommunicator::GetLogStream() -->
    <elf-symbol name='_ZN21vtkSocketCommunicator12GetLogStreamEv' type='func-type' binding='global-binding' visibility='default-visibility' is-defined='yes'/>
    <!-- vtkSocketCommunicator::SetLogStream(std::ostream*) -->
    <elf-symbol name='_ZN21vtkSocketCommunicator12SetLogStreamEPSo' type='func-type' binding='global-binding' visibility='default-visibility' is-defined='yes'/>
    <!-- vtkSocketCommunicator::ReceiveTagged(void*, int, int, int, char const*) -->
    <elf-symbol name='_ZN21vtkSocketCommunicator13ReceiveTaggedEPviiiPKc' type='func-type' binding='global-binding' visibility='default-visibility' is-defined='yes'/>
    <!-- vtkSocketCommunicator::SendVoidArray(void const*, long long, int, int, int) -->
    <elf-symbol name='_ZN21vtkSocketCommunicator13SendVoidArrayEPKvxiii' type='func-type' binding='global-binding' visibility='default-visibility' is-defined='yes'/>
    <!-- vtkSocketCommunicator::GetIsConnected() -->
    <elf-symbol name='_ZN21vtkSocketCommunicator14GetIsConnectedEv' type='func-type' binding='global-binding' visibility='default-visibility' is-defined='yes'/>
    <!-- vtkSocketCommunicator::CloseConnection() -->
    <elf-symbol name='_ZN21vtkSocketCommunicator15CloseConnectionEv' type='func-type' binding='global-binding' visibility='default-visibility' is-defined='yes'/>
    <!-- vtkSocketCommunicator::GatherVoidArray(void const*, void*, long long, int, int) -->
    <elf-symbol name='_ZN21vtkSocketCommunicator15GatherVoidArrayEPKvPvxii' type='func-type' binding='global-binding' visibility='default-visibility' is-defined='yes'/>
    <!-- vtkSocketCommunicator::ReduceVoidArray(void const*, void*, long long, int, vtkCommunicator::Operation*, int) -->
    <elf-symbol name='_ZN21vtkSocketCommunicator15ReduceVoidArrayEPKvPvxiPN15vtkCommunicator9OperationEi' type='func-type' binding='global-binding' visibility='default-visibility' is-defined='yes'/>
    <!-- vtkSocketCommunicator::ReduceVoidArray(void const*, void*, long long, int, int, int) -->
    <elf-symbol name='_ZN21vtkSocketCommunicator15ReduceVoidArrayEPKvPvxiii' type='func-type' binding='global-binding' visibility='default-visibility' is-defined='yes'/>
    <!-- vtkSocketCommunicator::GatherVVoidArray(void const*, void*, long long, long long*, long long*, int, int) -->
    <elf-symbol name='_ZN21vtkSocketCommunicator16GatherVVoidArrayEPKvPvxPxS3_ii' type='func-type' binding='global-binding' visibility='default-visibility' is-defined='yes'/>
    <!-- vtkSocketCommunicator::ReceiveVoidArray(void*, long long, int, int, int) -->
    <elf-symbol name='_ZN21vtkSocketCommunicator16ReceiveVoidArrayEPvxiii' type='func-type' binding='global-binding' visibility='default-visibility' is-defined='yes'/>
    <!-- vtkSocketCommunicator::ScatterVoidArray(void const*, void*, long long, int, int) -->
    <elf-symbol name='_ZN21vtkSocketCommunicator16ScatterVoidArrayEPKvPvxii' type='func-type' binding='global-binding' visibility='default-visibility' is-defined='yes'/>
    <!-- vtkSocketCommunicator::ScatterVVoidArray(void const*, void*, long long*, long long*, long long, int, int) -->
    <elf-symbol name='_ZN21vtkSocketCommunicator17ScatterVVoidArrayEPKvPvPxS3_xii' type='func-type' binding='global-binding' visibility='default-visibility' is-defined='yes'/>
    <!-- vtkSocketCommunicator::WaitForConnection(vtkServerSocket*, unsigned long) -->
    <elf-symbol name='_ZN21vtkSocketCommunicator17WaitForConnectionEP15vtkServerSocketm' type='func-type' binding='global-binding' visibility='default-visibility' is-defined='yes'/>
    <!-- vtkSocketCommunicator::WaitForConnection(int) -->
    <elf-symbol name='_ZN21vtkSocketCommunicator17WaitForConnectionEi' type='func-type' binding='global-binding' visibility='default-visibility' is-defined='yes'/>
    <!-- vtkSocketCommunicator::AllGatherVoidArray(void const*, void*, long long, int) -->
    <elf-symbol name='_ZN21vtkSocketCommunicator18AllGatherVoidArrayEPKvPvxi' type='func-type' binding='global-binding' visibility='default-visibility' is-defined='yes'/>
    <!-- vtkSocketCommunicator::AllReduceVoidArray(void const*, void*, long long, int, vtkCommunicator::Operation*) -->
    <elf-symbol name='_ZN21vtkSocketCommunicator18AllReduceVoidArrayEPKvPvxiPN15vtkCommunicator9OperationE' type='func-type' binding='global-binding' visibility='default-visibility' is-defined='yes'/>
    <!-- vtkSocketCommunicator::AllReduceVoidArray(void const*, void*, long long, int, int) -->
    <elf-symbol name='_ZN21vtkSocketCommunicator18AllReduceVoidArrayEPKvPvxii' type='func-type' binding='global-binding' visibility='default-visibility' is-defined='yes'/>
    <!-- vtkSocketCommunicator::BroadcastVoidArray(void*, long long, int, int) -->
    <elf-symbol name='_ZN21vtkSocketCommunicator18BroadcastVoidArrayEPvxii' type='func-type' binding='global-binding' visibility='default-visibility' is-defined='yes'/>
    <!-- vtkSocketCommunicator::AllGatherVVoidArray(void const*, void*, long long, long long*, long long*, int) -->
    <elf-symbol name='_ZN21vtkSocketCommunicator19AllGatherVVoidArrayEPKvPvxPxS3_i' type='func-type' binding='global-binding' visibility='default-visibility' is-defined='yes'/>
    <!-- vtkSocketCommunicator::ClientSideHandshake() -->
    <elf-symbol name='_ZN21vtkSocketCommunicator19ClientSideHandshakeEv' type='func-type' binding='global-binding' visibility='default-visibility' is-defined='yes'/>
    <!-- vtkSocketCommunicator::ServerSideHandshake() -->
    <elf-symbol name='_ZN21vtkSocketCommunicator19ServerSideHandshakeEv' type='func-type' binding='global-binding' visibility='default-visibility' is-defined='yes'/>
    <!-- vtkSocketCommunicator::HasBufferredMessages() -->
    <elf-symbol name='_ZN21vtkSocketCommunicator20HasBufferredMessagesEv' type='func-type' binding='global-binding' visibility='default-visibility' is-defined='yes'/>
    <!-- vtkSocketCommunicator::ReceivePartialTagged(void*, int, int, int, char const*) -->
    <elf-symbol name='_ZN21vtkSocketCommunicator20ReceivePartialTaggedEPviiiPKc' type='func-type' binding='global-binding' visibility='default-visibility' is-defined='yes'/>
    <!-- vtkSocketCommunicator::SetNumberOfProcesses(int) -->
    <elf-symbol name='_ZN21vtkSocketCommunicator20SetNumberOfProcessesEi' type='func-type' binding='global-binding' visibility='default-visibility' is-defined='yes'/>
    <!-- vtkSocketCommunicator::CheckForErrorInternal(int) -->
    <elf-symbol name='_ZN21vtkSocketCommunicator21CheckForErrorInternalEi' type='func-type' binding='global-binding' visibility='default-visibility' is-defined='yes'/>
    <!-- vtkSocketCommunicator::ReceivedTaggedFromBuffer(void*, int, int, int, char const*) -->
    <elf-symbol name='_ZN21vtkSocketCommunicator24ReceivedTaggedFromBufferEPviiiPKc' type='func-type' binding='global-binding' visibility='default-visibility' is-defined='yes'/>
    <!-- vtkSocketCommunicator::New() -->
    <elf-symbol name='_ZN21vtkSocketCommunicator3NewEv' type='func-type' binding='global-binding' visibility='default-visibility' is-defined='yes'/>
    <!-- vtkSocketCommunicator::Barrier() -->
    <elf-symbol name='_ZN21vtkSocketCommunicator7BarrierEv' type='func-type' binding='global-binding' visibility='default-visibility' is-defined='yes'/>
    <!-- vtkSocketCommunicator::ConnectTo(char const*, int) -->
    <elf-symbol name='_ZN21vtkSocketCommunicator9ConnectToEPKci' type='func-type' binding='global-binding' visibility='default-visibility' is-defined='yes'/>
    <!-- vtkSocketCommunicator::Handshake() -->
    <elf-symbol name='_ZN21vtkSocketCommunicator9HandshakeEv' type='func-type' binding='global-binding' visibility='default-visibility' is-defined='yes'/>
    <!-- vtkSocketCommunicator::LogTagged(char const*, void const*, int, int, int, char const*) -->
    <elf-symbol name='_ZN21vtkSocketCommunicator9LogTaggedEPKcPKviiiS1_' type='func-type' binding='global-binding' visibility='default-visibility' is-defined='yes'/>
    <!-- vtkSocketCommunicator::LogToFile(char const*) -->
    <elf-symbol name='_ZN21vtkSocketCommunicator9LogToFileEPKc' type='func-type' binding='global-binding' visibility='default-visibility' is-defined='yes'/>
    <!-- vtkSocketCommunicator::LogToFile(char const*, int) -->
    <elf-symbol name='_ZN21vtkSocketCommunicator9LogToFileEPKci' type='func-type' binding='global-binding' visibility='default-visibility' is-defined='yes'/>
    <!-- vtkSocketCommunicator::PrintSelf(std::ostream&, vtkIndent) -->
    <elf-symbol name='_ZN21vtkSocketCommunicator9PrintSelfERSo9vtkIndent' type='func-type' binding='global-binding' visibility='default-visibility' is-defined='yes'/>
    <!-- vtkSocketCommunicator::SetSocket(vtkClientSocket*) -->
    <elf-symbol name='_ZN21vtkSocketCommunicator9SetSocketEP15vtkClientSocket' type='func-type' binding='global-binding' visibility='default-visibility' is-defined='yes'/>
    <!-- vtkSocketCommunicator::vtkSocketCommunicator() -->
    <elf-symbol name='_ZN21vtkSocketCommunicatorC1Ev' type='func-type' binding='global-binding' visibility='default-visibility' alias='_ZN21vtkSocketCommunicatorC2Ev' is-defined='yes'/>
    <!-- vtkSocketCommunicator::vtkSocketCommunicator() -->
    <elf-symbol name='_ZN21vtkSocketCommunicatorC2Ev' type='func-type' binding='global-binding' visibility='default-visibility' is-defined='yes'/>
    <!-- vtkSocketCommunicator::~vtkSocketCommunicator() -->
    <elf-symbol name='_ZN21vtkSocketCommunicatorD0Ev' type='func-type' binding='global-binding' visibility='default-visibility' is-defined='yes'/>
    <!-- vtkSocketCommunicator::~vtkSocketCommunicator() -->
    <elf-symbol name='_ZN21vtkSocketCommunicatorD1Ev' type='func-type' binding='global-binding' visibility='default-visibility' alias='_ZN21vtkSocketCommunicatorD2Ev' is-defined='yes'/>
    <!-- vtkSocketCommunicator::~vtkSocketCommunicator() -->
    <elf-symbol name='_ZN21vtkSocketCommunicatorD2Ev' type='func-type' binding='global-binding' visibility='default-visibility' is-defined='yes'/>
    <!-- vtkFieldDataSerializer::Deserialize(vtkMultiProcessStream&, vtkFieldData*) -->
    <elf-symbol name='_ZN22vtkFieldDataSerializer11DeserializeER21vtkMultiProcessStreamP12vtkFieldData' type='func-type' binding='global-binding' visibility='default-visibility' is-defined='yes'/>
    <!-- vtkFieldDataSerializer::SerializeTuples(vtkIdList*, vtkFieldData*, vtkMultiProcessStream&) -->
    <elf-symbol name='_ZN22vtkFieldDataSerializer15SerializeTuplesEP9vtkIdListP12vtkFieldDataR21vtkMultiProcessStream' type='func-type' binding='global-binding' visibility='default-visibility' is-defined='yes'/>
    <!-- vtkFieldDataSerializer::SerializeMetaData(vtkFieldData*, vtkMultiProcessStream&) -->
    <elf-symbol name='_ZN22vtkFieldDataSerializer17SerializeMetaDataEP12vtkFieldDataR21vtkMultiProcessStream' type='func-type' binding='global-binding' visibility='default-visibility' is-defined='yes'/>
    <!-- vtkFieldDataSerializer::SerializeDataArray(vtkDataArray*, vtkMultiProcessStream&) -->
    <elf-symbol name='_ZN22vtkFieldDataSerializer18SerializeDataArrayEP12vtkDataArrayR21vtkMultiProcessStream' type='func-type' binding='global-binding' visibility='default-visibility' is-defined='yes'/>
    <!-- vtkFieldDataSerializer::SerializeSubExtent(int*, int*, vtkFieldData*, vtkMultiProcessStream&) -->
    <elf-symbol name='_ZN22vtkFieldDataSerializer18SerializeSubExtentEPiS0_P12vtkFieldDataR21vtkMultiProcessStream' type='func-type' binding='global-binding' visibility='default-visibility' is-defined='yes'/>
    <!-- vtkFieldDataSerializer::DeserializeMetaData(vtkMultiProcessStream&, vtkStringArray*, vtkIntArray*, vtkIntArray*) -->
    <elf-symbol name='_ZN22vtkFieldDataSerializer19DeserializeMetaDataER21vtkMultiProcessStreamP14vtkStringArrayP11vtkIntArrayS5_' type='func-type' binding='global-binding' visibility='default-visibility' is-defined='yes'/>
    <!-- vtkFieldDataSerializer::DeserializeDataArray(vtkMultiProcessStream&, vtkDataArray*&) -->
    <elf-symbol name='_ZN22vtkFieldDataSerializer20DeserializeDataArrayER21vtkMultiProcessStreamRP12vtkDataArray' type='func-type' binding='global-binding' visibility='default-visibility' is-defined='yes'/>
    <!-- vtkFieldDataSerializer::ExtractSubExtentData(int*, int*, vtkDataArray*) -->
    <elf-symbol name='_ZN22vtkFieldDataSerializer20ExtractSubExtentDataEPiS0_P12vtkDataArray' type='func-type' binding='global-binding' visibility='default-visibility' is-defined='yes'/>
    <!-- vtkFieldDataSerializer::ExtractSelectedTuples(vtkIdList*, vtkDataArray*) -->
    <elf-symbol name='_ZN22vtkFieldDataSerializer21ExtractSelectedTuplesEP9vtkIdListP12vtkDataArray' type='func-type' binding='global-binding' visibility='default-visibility' is-defined='yes'/>
    <!-- vtkFieldDataSerializer::New() -->
    <elf-symbol name='_ZN22vtkFieldDataSerializer3NewEv' type='func-type' binding='global-binding' visibility='default-visibility' is-defined='yes'/>
    <!-- vtkFieldDataSerializer::PrintSelf(std::ostream&, vtkIndent) -->
    <elf-symbol name='_ZN22vtkFieldDataSerializer9PrintSelfERSo9vtkIndent' type='func-type' binding='global-binding' visibility='default-visibility' is-defined='yes'/>
    <!-- vtkFieldDataSerializer::Serialize(vtkFieldData*, vtkMultiProcessStream&) -->
    <elf-symbol name='_ZN22vtkFieldDataSerializer9SerializeEP12vtkFieldDataR21vtkMultiProcessStream' type='func-type' binding='global-binding' visibility='default-visibility' is-defined='yes'/>
    <!-- vtkFieldDataSerializer::vtkFieldDataSerializer() -->
    <elf-symbol name='_ZN22vtkFieldDataSerializerC1Ev' type='func-type' binding='global-binding' visibility='default-visibility' alias='_ZN22vtkFieldDataSerializerC2Ev' is-defined='yes'/>
    <!-- vtkFieldDataSerializer::vtkFieldDataSerializer() -->
    <elf-symbol name='_ZN22vtkFieldDataSerializerC2Ev' type='func-type' binding='global-binding' visibility='default-visibility' is-defined='yes'/>
    <!-- vtkFieldDataSerializer::~vtkFieldDataSerializer() -->
    <elf-symbol name='_ZN22vtkFieldDataSerializerD0Ev' type='func-type' binding='global-binding' visibility='default-visibility' is-defined='yes'/>
    <!-- vtkFieldDataSerializer::~vtkFieldDataSerializer() -->
    <elf-symbol name='_ZN22vtkFieldDataSerializerD1Ev' type='func-type' binding='global-binding' visibility='default-visibility' alias='_ZN22vtkFieldDataSerializerD2Ev' is-defined='yes'/>
    <!-- vtkFieldDataSerializer::~vtkFieldDataSerializer() -->
    <elf-symbol name='_ZN22vtkFieldDataSerializerD2Ev' type='func-type' binding='global-binding' visibility='default-visibility' is-defined='yes'/>
    <!-- vtkMultiProcessController::ProcessRMI(int, void*, int, int) -->
    <elf-symbol name='_ZN25vtkMultiProcessController10ProcessRMIEiPvii' type='func-type' binding='global-binding' visibility='default-visibility' is-defined='yes'/>
    <!-- vtkMultiProcessController::TriggerRMI(int, void*, int, int) -->
    <elf-symbol name='_ZN25vtkMultiProcessController10TriggerRMIEiPvii' type='func-type' binding='global-binding' visibility='default-visibility' is-defined='yes'/>
    <!-- vtkMultiProcessController::ProcessRMIs(int, int) -->
    <elf-symbol name='_ZN25vtkMultiProcessController11ProcessRMIsEii' type='func-type' binding='global-binding' visibility='default-visibility' is-defined='yes'/>
    <!-- vtkMultiProcessController::ProcessRMIs() -->
    <elf-symbol name='_ZN25vtkMultiProcessController11ProcessRMIsEv' type='func-type' binding='global-binding' visibility='default-visibility' is-defined='yes'/>
    <!-- vtkMultiProcessController::AddRMICallback(void (*)(void*, void*, int, int), void*, int) -->
    <elf-symbol name='_ZN25vtkMultiProcessController14AddRMICallbackEPFvPvS0_iiES0_i' type='func-type' binding='global-binding' visibility='default-visibility' is-defined='yes'/>
    <!-- vtkMultiProcessController::RemoveFirstRMI(int) -->
    <elf-symbol name='_ZN25vtkMultiProcessController14RemoveFirstRMIEi' type='func-type' binding='global-binding' visibility='default-visibility' is-defined='yes'/>
    <!-- vtkMultiProcessController::SetSingleMethod(void (*)(vtkMultiProcessController*, void*), void*) -->
    <elf-symbol name='_ZN25vtkMultiProcessController15SetSingleMethodEPFvPS_PvES1_' type='func-type' binding='global-binding' visibility='default-visibility' is-defined='yes'/>
    <!-- vtkMultiProcessController::TriggerBreakRMIs() -->
    <elf-symbol name='_ZN25vtkMultiProcessController16TriggerBreakRMIsEv' type='func-type' binding='global-binding' visibility='default-visibility' is-defined='yes'/>
    <!-- vtkMultiProcessController::GetLocalProcessId() -->
    <elf-symbol name='_ZN25vtkMultiProcessController17GetLocalProcessIdEv' type='func-type' binding='global-binding' visibility='default-visibility' is-defined='yes'/>
    <!-- vtkMultiProcessController::GetMultipleMethod(int, void (*&)(vtkMultiProcessController*, void*), void*&) -->
    <elf-symbol name='_ZN25vtkMultiProcessController17GetMultipleMethodEiRPFvPS_PvERS1_' type='func-type' binding='global-binding' visibility='default-visibility' is-defined='yes'/>
    <!-- vtkMultiProcessController::RemoveRMICallback(unsigned long) -->
    <elf-symbol name='_ZN25vtkMultiProcessController17RemoveRMICallbackEm' type='func-type' binding='global-binding' visibility='default-visibility' is-defined='yes'/>
    <!-- vtkMultiProcessController::SetMultipleMethod(int, void (*)(vtkMultiProcessController*, void*), void*) -->
    <elf-symbol name='_ZN25vtkMultiProcessController17SetMultipleMethodEiPFvPS_PvES1_' type='func-type' binding='global-binding' visibility='default-visibility' is-defined='yes'/>
    <!-- vtkMultiProcessController::GetLocalController() -->
    <elf-symbol name='_ZN25vtkMultiProcessController18GetLocalControllerEv' type='func-type' binding='global-binding' visibility='default-visibility' is-defined='yes'/>
    <!-- vtkMultiProcessController::TriggerRMIInternal(int, void*, int, int, bool) -->
    <elf-symbol name='_ZN25vtkMultiProcessController18TriggerRMIInternalEiPviib' type='func-type' binding='global-binding' visibility='default-visibility' is-defined='yes'/>
    <!-- vtkMultiProcessController::CreateSubController(vtkProcessGroup*) -->
    <elf-symbol name='_ZN25vtkMultiProcessController19CreateSubControllerEP15vtkProcessGroup' type='func-type' binding='global-binding' visibility='default-visibility' is-defined='yes'/>
    <!-- vtkMultiProcessController::GetGlobalController() -->
    <elf-symbol name='_ZN25vtkMultiProcessController19GetGlobalControllerEv' type='func-type' binding='global-binding' visibility='default-visibility' is-defined='yes'/>
    <!-- vtkMultiProcessController::PartitionController(int, int) -->
    <elf-symbol name='_ZN25vtkMultiProcessController19PartitionControllerEii' type='func-type' binding='global-binding' visibility='default-visibility' is-defined='yes'/>
    <!-- vtkMultiProcessController::SetGlobalController(vtkMultiProcessController*) -->
    <elf-symbol name='_ZN25vtkMultiProcessController19SetGlobalControllerEPS_' type='func-type' binding='global-binding' visibility='default-visibility' is-defined='yes'/>
    <!-- vtkMultiProcessController::GetNumberOfProcesses() -->
    <elf-symbol name='_ZN25vtkMultiProcessController20GetNumberOfProcessesEv' type='func-type' binding='global-binding' visibility='default-visibility' is-defined='yes'/>
    <!-- vtkMultiProcessController::SetNumberOfProcesses(int) -->
    <elf-symbol name='_ZN25vtkMultiProcessController20SetNumberOfProcessesEi' type='func-type' binding='global-binding' visibility='default-visibility' is-defined='yes'/>
    <!-- vtkMultiProcessController::RemoveAllRMICallbacks(int) -->
    <elf-symbol name='_ZN25vtkMultiProcessController21RemoveAllRMICallbacksEi' type='func-type' binding='global-binding' visibility='default-visibility' is-defined='yes'/>
    <!-- vtkMultiProcessController::SetSingleProcessObject(vtkProcess*) -->
    <elf-symbol name='_ZN25vtkMultiProcessController22SetSingleProcessObjectEP10vtkProcess' type='func-type' binding='global-binding' visibility='default-visibility' is-defined='yes'/>
    <!-- vtkMultiProcessController::TriggerRMIOnAllChildren(void*, int, int) -->
    <elf-symbol name='_ZN25vtkMultiProcessController23TriggerRMIOnAllChildrenEPvii' type='func-type' binding='global-binding' visibility='default-visibility' is-defined='yes'/>
    <!-- vtkMultiProcessController::AddRMI(void (*)(void*, void*, int, int), void*, int) -->
    <elf-symbol name='_ZN25vtkMultiProcessController6AddRMIEPFvPvS0_iiES0_i' type='func-type' binding='global-binding' visibility='default-visibility' is-defined='yes'/>
    <!-- vtkMultiProcessController::PrintSelf(std::ostream&, vtkIndent) -->
    <elf-symbol name='_ZN25vtkMultiProcessController9PrintSelfERSo9vtkIndent' type='func-type' binding='global-binding' visibility='default-visibility' is-defined='yes'/>
    <!-- vtkMultiProcessController::RemoveRMI(unsigned long) -->
    <elf-symbol name='_ZN25vtkMultiProcessController9RemoveRMIEm' type='func-type' binding='global-binding' visibility='default-visibility' is-defined='yes'/>
    <!-- vtkMultiProcessController::vtkMultiProcessController() -->
    <elf-symbol name='_ZN25vtkMultiProcessControllerC1Ev' type='func-type' binding='global-binding' visibility='default-visibility' is-defined='yes'/>
    <!-- vtkMultiProcessController::vtkMultiProcessController() -->
    <elf-symbol name='_ZN25vtkMultiProcessControllerC2Ev' type='func-type' binding='global-binding' visibility='default-visibility' alias='_ZN25vtkMultiProcessControllerC1Ev' is-defined='yes'/>
    <!-- vtkMultiProcessController::~vtkMultiProcessController() -->
    <elf-symbol name='_ZN25vtkMultiProcessControllerD0Ev' type='func-type' binding='global-binding' visibility='default-visibility' is-defined='yes'/>
    <!-- vtkMultiProcessController::~vtkMultiProcessController() -->
    <elf-symbol name='_ZN25vtkMultiProcessControllerD1Ev' type='func-type' binding='global-binding' visibility='default-visibility' alias='_ZN25vtkMultiProcessControllerD2Ev' is-defined='yes'/>
    <!-- vtkMultiProcessController::~vtkMultiProcessController() -->
    <elf-symbol name='_ZN25vtkMultiProcessControllerD2Ev' type='func-type' binding='global-binding' visibility='default-visibility' is-defined='yes'/>
    <!-- vtkSubGroup::PrintSubGroup() const -->
    <elf-symbol name='_ZNK11vtkSubGroup13PrintSubGroupEv' type='func-type' binding='global-binding' visibility='default-visibility' is-defined='yes'/>
    <!-- vtkMultiProcessStream::GetRawData(std::vector<unsigned char, std::allocator<unsigned char> >&) const -->
    <elf-symbol name='_ZNK21vtkMultiProcessStream10GetRawDataERSt6vectorIhSaIhEE' type='func-type' binding='global-binding' visibility='default-visibility' is-defined='yes'/>
    <!-- std::_List_base<std::vector<char, std::allocator<char> >, std::allocator<std::vector<char, std::allocator<char> > > >::~_List_base() -->
    <elf-symbol name='_ZNSt10_List_baseISt6vectorIcSaIcEESaIS2_EED1Ev' type='func-type' binding='weak-binding' visibility='default-visibility' alias='_ZNSt10_List_baseISt6vectorIcSaIcEESaIS2_EED2Ev' is-defined='yes'/>
    <!-- std::_List_base<std::vector<char, std::allocator<char> >, std::allocator<std::vector<char, std::allocator<char> > > >::~_List_base() -->
    <elf-symbol name='_ZNSt10_List_baseISt6vectorIcSaIcEESaIS2_EED2Ev' type='func-type' binding='weak-binding' visibility='default-visibility' is-defined='yes'/>
    <!-- std::_Deque_base<unsigned char, std::allocator<unsigned char> >::_M_initialize_map(unsigned long) -->
    <elf-symbol name='_ZNSt11_Deque_baseIhSaIhEE17_M_initialize_mapEm' type='func-type' binding='weak-binding' visibility='default-visibility' is-defined='yes'/>
    <!-- std::deque<unsigned char, std::allocator<unsigned char> >::_M_insert_aux(std::_Deque_iterator<unsigned char, unsigned char&, unsigned char*>, unsigned long, unsigned char const&) -->
    <elf-symbol name='_ZNSt5dequeIhSaIhEE13_M_insert_auxESt15_Deque_iteratorIhRhPhEmRKh' type='func-type' binding='weak-binding' visibility='default-visibility' is-defined='yes'/>
    <!-- void std::deque<unsigned char, std::allocator<unsigned char> >::_M_insert_aux<std::_Deque_iterator<unsigned char, unsigned char const&, unsigned char const*> >(std::_Deque_iterator<unsigned char, unsigned char&, unsigned char*>, std::_Deque_iterator<unsigned char, unsigned char const&, unsigned char const*>, std::_Deque_iterator<unsigned char, unsigned char const&, unsigned char const*>, unsigned long) -->
    <elf-symbol name='_ZNSt5dequeIhSaIhEE13_M_insert_auxISt15_Deque_iteratorIhRKhPS4_EEEvS3_IhRhPhET_SB_m' type='func-type' binding='weak-binding' visibility='default-visibility' is-defined='yes'/>
    <!-- void std::deque<unsigned char, std::allocator<unsigned char> >::_M_insert_aux<std::_Deque_iterator<unsigned char, unsigned char&, unsigned char*> >(std::_Deque_iterator<unsigned char, unsigned char&, unsigned char*>, std::_Deque_iterator<unsigned char, unsigned char&, unsigned char*>, std::_Deque_iterator<unsigned char, unsigned char&, unsigned char*>, unsigned long) -->
    <elf-symbol name='_ZNSt5dequeIhSaIhEE13_M_insert_auxISt15_Deque_iteratorIhRhPhEEEvS6_T_S7_m' type='func-type' binding='weak-binding' visibility='default-visibility' is-defined='yes'/>
    <!-- std::deque<unsigned char, std::allocator<unsigned char> >::_M_reallocate_map(unsigned long, bool) -->
    <elf-symbol name='_ZNSt5dequeIhSaIhEE17_M_reallocate_mapEmb' type='func-type' binding='weak-binding' visibility='default-visibility' is-defined='yes'/>
    <!-- void std::deque<unsigned char, std::allocator<unsigned char> >::_M_range_insert_aux<std::_Deque_iterator<unsigned char, unsigned char const&, unsigned char const*> >(std::_Deque_iterator<unsigned char, unsigned char&, unsigned char*>, std::_Deque_iterator<unsigned char, unsigned char const&, unsigned char const*>, std::_Deque_iterator<unsigned char, unsigned char const&, unsigned char const*>, std::forward_iterator_tag) -->
    <elf-symbol name='_ZNSt5dequeIhSaIhEE19_M_range_insert_auxISt15_Deque_iteratorIhRKhPS4_EEEvS3_IhRhPhET_SB_St20forward_iterator_tag' type='func-type' binding='weak-binding' visibility='default-visibility' is-defined='yes'/>
    <!-- void std::deque<unsigned char, std::allocator<unsigned char> >::_M_range_insert_aux<std::_Deque_iterator<unsigned char, unsigned char&, unsigned char*> >(std::_Deque_iterator<unsigned char, unsigned char&, unsigned char*>, std::_Deque_iterator<unsigned char, unsigned char&, unsigned char*>, std::_Deque_iterator<unsigned char, unsigned char&, unsigned char*>, std::forward_iterator_tag) -->
    <elf-symbol name='_ZNSt5dequeIhSaIhEE19_M_range_insert_auxISt15_Deque_iteratorIhRhPhEEEvS6_T_S7_St20forward_iterator_tag' type='func-type' binding='weak-binding' visibility='default-visibility' is-defined='yes'/>
    <!-- std::deque<unsigned char, std::allocator<unsigned char> >::_M_reserve_map_at_back(unsigned long) -->
    <elf-symbol name='_ZNSt5dequeIhSaIhEE22_M_reserve_map_at_backEm' type='func-type' binding='weak-binding' visibility='default-visibility' is-defined='yes'/>
    <!-- std::deque<unsigned char, std::allocator<unsigned char> >::_M_new_elements_at_back(unsigned long) -->
    <elf-symbol name='_ZNSt5dequeIhSaIhEE23_M_new_elements_at_backEm' type='func-type' binding='weak-binding' visibility='default-visibility' is-defined='yes'/>
    <!-- std::deque<unsigned char, std::allocator<unsigned char> >::_M_new_elements_at_front(unsigned long) -->
    <elf-symbol name='_ZNSt5dequeIhSaIhEE24_M_new_elements_at_frontEm' type='func-type' binding='weak-binding' visibility='default-visibility' is-defined='yes'/>
    <!-- std::deque<unsigned char, std::allocator<unsigned char> >::_M_reserve_elements_at_front(unsigned long) -->
    <elf-symbol name='_ZNSt5dequeIhSaIhEE28_M_reserve_elements_at_frontEm' type='func-type' binding='weak-binding' visibility='default-visibility' is-defined='yes'/>
    <!-- std::deque<unsigned char, std::allocator<unsigned char> >::operator=(std::deque<unsigned char, std::allocator<unsigned char> > const&) -->
    <elf-symbol name='_ZNSt5dequeIhSaIhEEaSERKS1_' type='func-type' binding='weak-binding' visibility='default-visibility' is-defined='yes'/>
    <!-- std::vector<vtkMultiProcessController::vtkInternal::vtkRMICallback, std::allocator<vtkMultiProcessController::vtkInternal::vtkRMICallback> >::_M_insert_aux(__gnu_cxx::__normal_iterator<vtkMultiProcessController::vtkInternal::vtkRMICallback*, std::vector<vtkMultiProcessController::vtkInternal::vtkRMICallback, std::allocator<vtkMultiProcessController::vtkInternal::vtkRMICallback> > >, vtkMultiProcessController::vtkInternal::vtkRMICallback const&) -->
    <elf-symbol name='_ZNSt6vectorIN25vtkMultiProcessController11vtkInternal14vtkRMICallbackESaIS2_EE13_M_insert_auxEN9__gnu_cxx17__normal_iteratorIPS2_S4_EERKS2_' type='func-type' binding='weak-binding' visibility='default-visibility' is-defined='yes'/>
    <!-- std::vector<vtksys::_Hashtable_node<std::pair<int const, void (*)(vtkMultiProcessController*, void*)> >*, std::allocator<vtksys::_Hashtable_node<std::pair<int const, void (*)(vtkMultiProcessController*, void*)> >*> >::_M_fill_insert(__gnu_cxx::__normal_iterator<vtksys::_Hashtable_node<std::pair<int const, void (*)(vtkMultiProcessController*, void*)> >**, std::vector<vtksys::_Hashtable_node<std::pair<int const, void (*)(vtkMultiProcessController*, void*)> >*, std::allocator<vtksys::_Hashtable_node<std::pair<int const, void (*)(vtkMultiProcessController*, void*)> >*> > >, unsigned long, vtksys::_Hashtable_node<std::pair<int const, void (*)(vtkMultiProcessController*, void*)> >* const&) -->
    <elf-symbol name='_ZNSt6vectorIPN6vtksys15_Hashtable_nodeISt4pairIKiPFvP25vtkMultiProcessControllerPvEEEESaISB_EE14_M_fill_insertEN9__gnu_cxx17__normal_iteratorIPSB_SD_EEmRKSB_' type='func-type' binding='weak-binding' visibility='default-visibility' is-defined='yes'/>
    <!-- std::vector<vtksys::_Hashtable_node<std::pair<int const, void (*)(vtkMultiProcessController*, void*)> >*, std::allocator<vtksys::_Hashtable_node<std::pair<int const, void (*)(vtkMultiProcessController*, void*)> >*> >::reserve(unsigned long) -->
    <elf-symbol name='_ZNSt6vectorIPN6vtksys15_Hashtable_nodeISt4pairIKiPFvP25vtkMultiProcessControllerPvEEEESaISB_EE7reserveEm' type='func-type' binding='weak-binding' visibility='default-visibility' is-defined='yes'/>
    <!-- std::vector<vtksys::_Hashtable_node<std::pair<int const, void*> >*, std::allocator<vtksys::_Hashtable_node<std::pair<int const, void*> >*> >::_M_fill_insert(__gnu_cxx::__normal_iterator<vtksys::_Hashtable_node<std::pair<int const, void*> >**, std::vector<vtksys::_Hashtable_node<std::pair<int const, void*> >*, std::allocator<vtksys::_Hashtable_node<std::pair<int const, void*> >*> > >, unsigned long, vtksys::_Hashtable_node<std::pair<int const, void*> >* const&) -->
    <elf-symbol name='_ZNSt6vectorIPN6vtksys15_Hashtable_nodeISt4pairIKiPvEEESaIS7_EE14_M_fill_insertEN9__gnu_cxx17__normal_iteratorIPS7_S9_EEmRKS7_' type='func-type' binding='weak-binding' visibility='default-visibility' is-defined='yes'/>
    <!-- std::vector<vtksys::_Hashtable_node<std::pair<int const, void*> >*, std::allocator<vtksys::_Hashtable_node<std::pair<int const, void*> >*> >::reserve(unsigned long) -->
    <elf-symbol name='_ZNSt6vectorIPN6vtksys15_Hashtable_nodeISt4pairIKiPvEEESaIS7_EE7reserveEm' type='func-type' binding='weak-binding' visibility='default-visibility' is-defined='yes'/>
    <!-- std::vector<vtksys::_Hashtable_node<std::pair<int const, std::vector<vtkMultiProcessController::vtkInternal::vtkRMICallback, std::allocator<vtkMultiProcessController::vtkInternal::vtkRMICallback> > > >*, std::allocator<vtksys::_Hashtable_node<std::pair<int const, std::vector<vtkMultiProcessController::vtkInternal::vtkRMICallback, std::allocator<vtkMultiProcessController::vtkInternal::vtkRMICallback> > > >*> >::_M_fill_insert(__gnu_cxx::__normal_iterator<vtksys::_Hashtable_node<std::pair<int const, std::vector<vtkMultiProcessController::vtkInternal::vtkRMICallback, std::allocator<vtkMultiProcessController::vtkInternal::vtkRMICallback> > > >**, std::vector<vtksys::_Hashtable_node<std::pair<int const, std::vector<vtkMultiProcessController::vtkInternal::vtkRMICallback, std::allocator<vtkMultiProcessController::vtkInternal::vtkRMICallback> > > >*, std::allocator<vtksys::_Hashtable_node<std::pair<int const, std::vector<vtkMultiProcessController::vtkInternal::vtkRMICallback, std::allocator<vtkMultiProcessController::vtkInternal::vtkRMICallback> > > >*> > >, unsigned long, vtksys::_Hashtable_node<std::pair<int const, std::vector<vtkMultiProcessController::vtkInternal::vtkRMICallback, std::allocator<vtkMultiProcessController::vtkInternal::vtkRMICallback> > > >* const&) -->
    <elf-symbol name='_ZNSt6vectorIPN6vtksys15_Hashtable_nodeISt4pairIKiS_IN25vtkMultiProcessController11vtkInternal14vtkRMICallbackESaIS6_EEEEESaISB_EE14_M_fill_insertEN9__gnu_cxx17__normal_iteratorIPSB_SD_EEmRKSB_' type='func-type' binding='weak-binding' visibility='default-visibility' is-defined='yes'/>
    <!-- std::vector<vtksys::_Hashtable_node<std::pair<int const, std::vector<vtkMultiProcessController::vtkInternal::vtkRMICallback, std::allocator<vtkMultiProcessController::vtkInternal::vtkRMICallback> > > >*, std::allocator<vtksys::_Hashtable_node<std::pair<int const, std::vector<vtkMultiProcessController::vtkInternal::vtkRMICallback, std::allocator<vtkMultiProcessController::vtkInternal::vtkRMICallback> > > >*> >::reserve(unsigned long) -->
    <elf-symbol name='_ZNSt6vectorIPN6vtksys15_Hashtable_nodeISt4pairIKiS_IN25vtkMultiProcessController11vtkInternal14vtkRMICallbackESaIS6_EEEEESaISB_EE7reserveEm' type='func-type' binding='weak-binding' visibility='default-visibility' is-defined='yes'/>
    <!-- std::vector<bool, std::allocator<bool> >::_M_fill_insert(std::_Bit_iterator, unsigned long, bool) -->
    <elf-symbol name='_ZNSt6vectorIbSaIbEE14_M_fill_insertESt13_Bit_iteratormb' type='func-type' binding='weak-binding' visibility='default-visibility' is-defined='yes'/>
    <!-- void std::vector<char, std::allocator<char> >::_M_range_insert<char*>(__gnu_cxx::__normal_iterator<char*, std::vector<char, std::allocator<char> > >, char*, char*, std::forward_iterator_tag) -->
    <elf-symbol name='_ZNSt6vectorIcSaIcEE15_M_range_insertIPcEEvN9__gnu_cxx17__normal_iteratorIS3_S1_EET_S7_St20forward_iterator_tag' type='func-type' binding='weak-binding' visibility='default-visibility' is-defined='yes'/>
    <!-- std::vector<unsigned char, std::allocator<unsigned char> >::_M_insert_aux(__gnu_cxx::__normal_iterator<unsigned char*, std::vector<unsigned char, std::allocator<unsigned char> > >, unsigned char const&) -->
    <elf-symbol name='_ZNSt6vectorIhSaIhEE13_M_insert_auxEN9__gnu_cxx17__normal_iteratorIPhS1_EERKh' type='func-type' binding='weak-binding' visibility='default-visibility' is-defined='yes'/>
    <!-- std::vector<unsigned char, std::allocator<unsigned char> >::_M_fill_insert(__gnu_cxx::__normal_iterator<unsigned char*, std::vector<unsigned char, std::allocator<unsigned char> > >, unsigned long, unsigned char const&) -->
    <elf-symbol name='_ZNSt6vectorIhSaIhEE14_M_fill_insertEN9__gnu_cxx17__normal_iteratorIPhS1_EEmRKh' type='func-type' binding='weak-binding' visibility='default-visibility' is-defined='yes'/>
    <!-- std::vector<int, std::allocator<int> >::_M_fill_insert(__gnu_cxx::__normal_iterator<int*, std::vector<int, std::allocator<int> > >, unsigned long, int const&) -->
    <elf-symbol name='_ZNSt6vectorIiSaIiEE14_M_fill_insertEN9__gnu_cxx17__normal_iteratorIPiS1_EEmRKi' type='func-type' binding='weak-binding' visibility='default-visibility' is-defined='yes'/>
    <!-- std::vector<int, std::allocator<int> >::resize(unsigned long, int) -->
    <elf-symbol name='_ZNSt6vectorIiSaIiEE6resizeEmi' type='func-type' binding='weak-binding' visibility='default-visibility' is-defined='yes'/>
    <!-- std::_Rb_tree<int, std::pair<int const, std::list<std::vector<char, std::allocator<char> >, std::allocator<std::vector<char, std::allocator<char> > > > >, std::_Select1st<std::pair<int const, std::list<std::vector<char, std::allocator<char> >, std::allocator<std::vector<char, std::allocator<char> > > > > >, std::less<int>, std::allocator<std::pair<int const, std::list<std::vector<char, std::allocator<char> >, std::allocator<std::vector<char, std::allocator<char> > > > > > >::_M_insert_(std::_Rb_tree_node_base const*, std::_Rb_tree_node_base const*, std::pair<int const, std::list<std::vector<char, std::allocator<char> >, std::allocator<std::vector<char, std::allocator<char> > > > > const&) -->
    <elf-symbol name='_ZNSt8_Rb_treeIiSt4pairIKiSt4listISt6vectorIcSaIcEESaIS5_EEESt10_Select1stIS8_ESt4lessIiESaIS8_EE10_M_insert_EPKSt18_Rb_tree_node_baseSH_RKS8_' type='func-type' binding='weak-binding' visibility='default-visibility' is-defined='yes'/>
    <!-- std::_Rb_tree<int, std::pair<int const, std::list<std::vector<char, std::allocator<char> >, std::allocator<std::vector<char, std::allocator<char> > > > >, std::_Select1st<std::pair<int const, std::list<std::vector<char, std::allocator<char> >, std::allocator<std::vector<char, std::allocator<char> > > > > >, std::less<int>, std::allocator<std::pair<int const, std::list<std::vector<char, std::allocator<char> >, std::allocator<std::vector<char, std::allocator<char> > > > > > >::_M_insert_unique(std::pair<int const, std::list<std::vector<char, std::allocator<char> >, std::allocator<std::vector<char, std::allocator<char> > > > > const&) -->
    <elf-symbol name='_ZNSt8_Rb_treeIiSt4pairIKiSt4listISt6vectorIcSaIcEESaIS5_EEESt10_Select1stIS8_ESt4lessIiESaIS8_EE16_M_insert_uniqueERKS8_' type='func-type' binding='weak-binding' visibility='default-visibility' is-defined='yes'/>
    <!-- std::_Rb_tree<int, std::pair<int const, std::list<std::vector<char, std::allocator<char> >, std::allocator<std::vector<char, std::allocator<char> > > > >, std::_Select1st<std::pair<int const, std::list<std::vector<char, std::allocator<char> >, std::allocator<std::vector<char, std::allocator<char> > > > > >, std::less<int>, std::allocator<std::pair<int const, std::list<std::vector<char, std::allocator<char> >, std::allocator<std::vector<char, std::allocator<char> > > > > > >::_M_insert_unique_(std::_Rb_tree_const_iterator<std::pair<int const, std::list<std::vector<char, std::allocator<char> >, std::allocator<std::vector<char, std::allocator<char> > > > > >, std::pair<int const, std::list<std::vector<char, std::allocator<char> >, std::allocator<std::vector<char, std::allocator<char> > > > > const&) -->
    <elf-symbol name='_ZNSt8_Rb_treeIiSt4pairIKiSt4listISt6vectorIcSaIcEESaIS5_EEESt10_Select1stIS8_ESt4lessIiESaIS8_EE17_M_insert_unique_ESt23_Rb_tree_const_iteratorIS8_ERKS8_' type='func-type' binding='weak-binding' visibility='default-visibility' is-defined='yes'/>
    <!-- std::_Rb_tree<int, std::pair<int const, std::list<std::vector<char, std::allocator<char> >, std::allocator<std::vector<char, std::allocator<char> > > > >, std::_Select1st<std::pair<int const, std::list<std::vector<char, std::allocator<char> >, std::allocator<std::vector<char, std::allocator<char> > > > > >, std::less<int>, std::allocator<std::pair<int const, std::list<std::vector<char, std::allocator<char> >, std::allocator<std::vector<char, std::allocator<char> > > > > > >::_M_erase(std::_Rb_tree_node<std::pair<int const, std::list<std::vector<char, std::allocator<char> >, std::allocator<std::vector<char, std::allocator<char> > > > > >*) -->
    <elf-symbol name='_ZNSt8_Rb_treeIiSt4pairIKiSt4listISt6vectorIcSaIcEESaIS5_EEESt10_Select1stIS8_ESt4lessIiESaIS8_EE8_M_eraseEPSt13_Rb_tree_nodeIS8_E' type='func-type' binding='weak-binding' visibility='default-visibility' is-defined='yes'/>
    <!-- void std::__adjust_heap<int*, long, int>(int*, long, long, int) -->
    <elf-symbol name='_ZSt13__adjust_heapIPiliEvT_T0_S2_T1_' type='func-type' binding='weak-binding' visibility='default-visibility' is-defined='yes'/>
    <!-- void std::__insertion_sort<int*>(int*, int*) -->
    <elf-symbol name='_ZSt16__insertion_sortIPiEvT_S1_' type='func-type' binding='weak-binding' visibility='default-visibility' is-defined='yes'/>
    <!-- void std::__introsort_loop<int*, long>(int*, int*, long) -->
    <elf-symbol name='_ZSt16__introsort_loopIPilEvT_S1_T0_' type='func-type' binding='weak-binding' visibility='default-visibility' is-defined='yes'/>
    <!-- long long* std::copy<long long const*, long long*>(long long const*, long long const*, long long*) -->
    <elf-symbol name='_ZSt4copyIPKxPxET0_T_S4_S3_' type='func-type' binding='weak-binding' visibility='default-visibility' is-defined='yes'/>
    <!-- void std::fill<unsigned char>(std::_Deque_iterator<unsigned char, unsigned char&, unsigned char*> const&, std::_Deque_iterator<unsigned char, unsigned char&, unsigned char*> const&, unsigned char const&) -->
    <elf-symbol name='_ZSt4fillIhEvRKSt15_Deque_iteratorIT_RS1_PS1_ES6_RKS1_' type='func-type' binding='weak-binding' visibility='default-visibility' is-defined='yes'/>
    <!-- _fini -->
    <elf-symbol name='_fini' type='func-type' binding='global-binding' visibility='default-visibility' is-defined='yes'/>
    <!-- _init -->
    <elf-symbol name='_init' type='func-type' binding='global-binding' visibility='default-visibility' is-defined='yes'/>
  </elf-function-symbols>
  <elf-variable-symbols>
    <!-- vtkCommunicator::UseCopy -->
    <elf-symbol name='_ZN15vtkCommunicator7UseCopyE' size='4' type='object-type' binding='global-binding' visibility='default-visibility' is-defined='yes'/>
    <!-- vtkSocketController::Initialized -->
    <elf-symbol name='_ZN19vtkSocketController11InitializedE' size='4' type='object-type' binding='global-binding' visibility='default-visibility' is-defined='yes'/>
    <!-- typeinfo for vtkProcess -->
    <elf-symbol name='_ZTI10vtkProcess' size='24' type='object-type' binding='weak-binding' visibility='default-visibility' is-defined='yes'/>
    <!-- typeinfo for vtkSubGroup -->
    <elf-symbol name='_ZTI11vtkSubGroup' size='24' type='object-type' binding='weak-binding' visibility='default-visibility' is-defined='yes'/>
    <!-- typeinfo for vtkCommunicator -->
    <elf-symbol name='_ZTI15vtkCommunicator' size='24' type='object-type' binding='weak-binding' visibility='default-visibility' is-defined='yes'/>
    <!-- typeinfo for vtkProcessGroup -->
    <elf-symbol name='_ZTI15vtkProcessGroup' size='24' type='object-type' binding='weak-binding' visibility='default-visibility' is-defined='yes'/>
    <!-- typeinfo for vtkDummyController -->
    <elf-symbol name='_ZTI18vtkDummyController' size='24' type='object-type' binding='weak-binding' visibility='default-visibility' is-defined='yes'/>
    <!-- typeinfo for vtkSubCommunicator -->
    <elf-symbol name='_ZTI18vtkSubCommunicator' size='24' type='object-type' binding='weak-binding' visibility='default-visibility' is-defined='yes'/>
    <!-- typeinfo for vtkSocketController -->
    <elf-symbol name='_ZTI19vtkSocketController' size='24' type='object-type' binding='weak-binding' visibility='default-visibility' is-defined='yes'/>
    <!-- typeinfo for vtkDummyCommunicator -->
    <elf-symbol name='_ZTI20vtkDummyCommunicator' size='24' type='object-type' binding='weak-binding' visibility='default-visibility' is-defined='yes'/>
    <!-- typeinfo for vtkSocketCommunicator -->
    <elf-symbol name='_ZTI21vtkSocketCommunicator' size='24' type='object-type' binding='weak-binding' visibility='default-visibility' is-defined='yes'/>
    <!-- typeinfo for vtkFieldDataSerializer -->
    <elf-symbol name='_ZTI22vtkFieldDataSerializer' size='24' type='object-type' binding='weak-binding' visibility='default-visibility' is-defined='yes'/>
    <!-- typeinfo for vtkMultiProcessController -->
    <elf-symbol name='_ZTI25vtkMultiProcessController' size='24' type='object-type' binding='weak-binding' visibility='default-visibility' is-defined='yes'/>
    <!-- typeinfo for vtkCommunicator::Operation -->
    <elf-symbol name='_ZTIN15vtkCommunicator9OperationE' size='16' type='object-type' binding='weak-binding' visibility='default-visibility' is-defined='yes'/>
    <!-- typeinfo name for vtkProcess -->
    <elf-symbol name='_ZTS10vtkProcess' size='13' type='object-type' binding='weak-binding' visibility='default-visibility' is-defined='yes'/>
    <!-- typeinfo name for vtkSubGroup -->
    <elf-symbol name='_ZTS11vtkSubGroup' size='14' type='object-type' binding='weak-binding' visibility='default-visibility' is-defined='yes'/>
    <!-- typeinfo name for vtkCommunicator -->
    <elf-symbol name='_ZTS15vtkCommunicator' size='18' type='object-type' binding='weak-binding' visibility='default-visibility' is-defined='yes'/>
    <!-- typeinfo name for vtkProcessGroup -->
    <elf-symbol name='_ZTS15vtkProcessGroup' size='18' type='object-type' binding='weak-binding' visibility='default-visibility' is-defined='yes'/>
    <!-- typeinfo name for vtkDummyController -->
    <elf-symbol name='_ZTS18vtkDummyController' size='21' type='object-type' binding='weak-binding' visibility='default-visibility' is-defined='yes'/>
    <!-- typeinfo name for vtkSubCommunicator -->
    <elf-symbol name='_ZTS18vtkSubCommunicator' size='21' type='object-type' binding='weak-binding' visibility='default-visibility' is-defined='yes'/>
    <!-- typeinfo name for vtkSocketController -->
    <elf-symbol name='_ZTS19vtkSocketController' size='22' type='object-type' binding='weak-binding' visibility='default-visibility' is-defined='yes'/>
    <!-- typeinfo name for vtkDummyCommunicator -->
    <elf-symbol name='_ZTS20vtkDummyCommunicator' size='23' type='object-type' binding='weak-binding' visibility='default-visibility' is-defined='yes'/>
    <!-- typeinfo name for vtkSocketCommunicator -->
    <elf-symbol name='_ZTS21vtkSocketCommunicator' size='24' type='object-type' binding='weak-binding' visibility='default-visibility' is-defined='yes'/>
    <!-- typeinfo name for vtkFieldDataSerializer -->
    <elf-symbol name='_ZTS22vtkFieldDataSerializer' size='25' type='object-type' binding='weak-binding' visibility='default-visibility' is-defined='yes'/>
    <!-- typeinfo name for vtkMultiProcessController -->
    <elf-symbol name='_ZTS25vtkMultiProcessController' size='28' type='object-type' binding='weak-binding' visibility='default-visibility' is-defined='yes'/>
    <!-- typeinfo name for vtkCommunicator::Operation -->
    <elf-symbol name='_ZTSN15vtkCommunicator9OperationE' size='30' type='object-type' binding='weak-binding' visibility='default-visibility' is-defined='yes'/>
    <!-- vtable for vtkProcess -->
    <elf-symbol name='_ZTV10vtkProcess' size='184' type='object-type' binding='weak-binding' visibility='default-visibility' is-defined='yes'/>
    <!-- vtable for vtkSubGroup -->
    <elf-symbol name='_ZTV11vtkSubGroup' size='176' type='object-type' binding='weak-binding' visibility='default-visibility' is-defined='yes'/>
    <!-- vtable for vtkCommunicator -->
    <elf-symbol name='_ZTV15vtkCommunicator' size='328' type='object-type' binding='weak-binding' visibility='default-visibility' is-defined='yes'/>
    <!-- vtable for vtkProcessGroup -->
    <elf-symbol name='_ZTV15vtkProcessGroup' size='192' type='object-type' binding='weak-binding' visibility='default-visibility' is-defined='yes'/>
    <!-- vtable for vtkDummyController -->
    <elf-symbol name='_ZTV18vtkDummyController' size='368' type='object-type' binding='weak-binding' visibility='default-visibility' is-defined='yes'/>
    <!-- vtable for vtkSubCommunicator -->
    <elf-symbol name='_ZTV18vtkSubCommunicator' size='344' type='object-type' binding='weak-binding' visibility='default-visibility' is-defined='yes'/>
    <!-- vtable for vtkSocketController -->
    <elf-symbol name='_ZTV19vtkSocketController' size='376' type='object-type' binding='weak-binding' visibility='default-visibility' is-defined='yes'/>
    <!-- vtable for vtkDummyCommunicator -->
    <elf-symbol name='_ZTV20vtkDummyCommunicator' size='328' type='object-type' binding='weak-binding' visibility='default-visibility' is-defined='yes'/>
    <!-- vtable for vtkSocketCommunicator -->
    <elf-symbol name='_ZTV21vtkSocketCommunicator' size='480' type='object-type' binding='weak-binding' visibility='default-visibility' is-defined='yes'/>
    <!-- vtable for vtkFieldDataSerializer -->
    <elf-symbol name='_ZTV22vtkFieldDataSerializer' size='176' type='object-type' binding='weak-binding' visibility='default-visibility' is-defined='yes'/>
    <!-- vtable for vtkMultiProcessController -->
    <elf-symbol name='_ZTV25vtkMultiProcessController' size='344' type='object-type' binding='weak-binding' visibility='default-visibility' is-defined='yes'/>
    <!-- vtable for vtkCommunicator::Operation -->
    <elf-symbol name='_ZTVN15vtkCommunicator9OperationE' size='48' type='object-type' binding='weak-binding' visibility='default-visibility' is-defined='yes'/>
  </elf-variable-symbols>
  <abi-instr address-size='64' path='/tmp/legendre/spack-stage/spack-stage-R_crTC/VTK-6.1.0/Parallel/Core/vtkCommunicator.cxx' comp-dir-path='/tmp/legendre/spack-stage/spack-stage-R_crTC/VTK-6.1.0/spack-build/Parallel/Core' language='LANG_C_plus_plus'>
    <!-- bool -->
    <type-decl name='bool' size-in-bits='8' id='c894953d'/>
    <!-- char -->
    <type-decl name='char' size-in-bits='8' id='a84c031d'/>
    <!-- char[1] -->
    <array-type-def dimensions='1' type-id='a84c031d' size-in-bits='8' id='89feb1ec'>
      <!-- <anonymous range>[1] -->
      <subrange length='1' type-id='7359adad' id='52f813b4'/>
    </array-type-def>
    <!-- char[20] -->
    <array-type-def dimensions='1' type-id='a84c031d' size-in-bits='160' id='664ac0b7'>
      <!-- <anonymous range>[20] -->
      <subrange length='20' type-id='7359adad' id='fdca39cf'/>
    </array-type-def>
    <!-- char[40] -->
    <array-type-def dimensions='1' type-id='a84c031d' size-in-bits='320' id='36c46961'>
      <!-- <anonymous range>[40] -->
      <subrange length='40' type-id='7359adad' id='8f80b239'/>
    </array-type-def>
    <!-- char[4] -->
    <array-type-def dimensions='1' type-id='a84c031d' size-in-bits='32' id='8e0573fd'>
      <!-- <anonymous range>[4] -->
      <subrange length='4' type-id='7359adad' id='16fe7105'/>
    </array-type-def>
    <!-- struct typedef __va_list_tag __va_list_tag -->
    <class-decl name='typedef __va_list_tag __va_list_tag' size-in-bits='192' is-struct='yes' visibility='default' id='ce184e0c'>
      <data-member access='public' layout-offset-in-bits='0'>
        <!-- unsigned int typedef __va_list_tag __va_list_tag::gp_offset -->
        <var-decl name='gp_offset' type-id='f0981eeb' visibility='default'/>
      </data-member>
      <data-member access='public' layout-offset-in-bits='32'>
        <!-- unsigned int typedef __va_list_tag __va_list_tag::fp_offset -->
        <var-decl name='fp_offset' type-id='f0981eeb' visibility='default'/>
      </data-member>
      <data-member access='public' layout-offset-in-bits='64'>
        <!-- void* typedef __va_list_tag __va_list_tag::overflow_arg_area -->
        <var-decl name='overflow_arg_area' type-id='eaa32e2f' visibility='default'/>
      </data-member>
      <data-member access='public' layout-offset-in-bits='128'>
        <!-- void* typedef __va_list_tag __va_list_tag::reg_save_area -->
        <var-decl name='reg_save_area' type-id='eaa32e2f' visibility='default'/>
      </data-member>
    </class-decl>
    <!-- double -->
    <type-decl name='double' size-in-bits='64' id='a0eb0f08'/>
    <!-- double[3] -->
    <array-type-def dimensions='1' type-id='a0eb0f08' size-in-bits='192' id='ea00fd49'>
      <!-- <anonymous range>[3] -->
      <subrange length='3' type-id='7359adad' id='56f209d2'/>
    </array-type-def>
    <!-- float -->
    <type-decl name='float' size-in-bits='32' id='a6c45d85'/>
    <!-- int -->
    <type-decl name='int' size-in-bits='32' id='95e97e5e'/>
    <!-- long double -->
    <type-decl name='long double' size-in-bits='128' id='e095c704'/>
    <!-- long int -->
    <type-decl name='long int' size-in-bits='64' id='bd54fe1a'/>
    <!-- long long int -->
    <type-decl name='long long int' size-in-bits='64' id='1eb56b1e'/>
    <!-- long long unsigned int -->
    <type-decl name='long long unsigned int' size-in-bits='64' id='3a47d82b'/>
    <!-- signed char -->
    <type-decl name='signed char' size-in-bits='8' id='28577a57'/>
    <!-- unnamed&#45;enum&#45;underlying&#45;type&#45;32 -->
    <type-decl name='unnamed-enum-underlying-type-32' is-anonymous='yes' size-in-bits='32' alignment-in-bits='32' id='9cac1fee'/>
    <!-- unsigned char -->
    <type-decl name='unsigned char' size-in-bits='8' id='002ac4a6'/>
    <!-- unsigned int -->
    <type-decl name='unsigned int' size-in-bits='32' id='f0981eeb'/>
    <!-- unsigned long int -->
    <type-decl name='unsigned long int' size-in-bits='64' id='7359adad'/>
    <!-- unsigned short int -->
    <type-decl name='unsigned short int' size-in-bits='16' id='8efea9e5'/>
    <!-- wchar_t -->
    <type-decl name='wchar_t' size-in-bits='32' id='c523b9f1'/>
    <!-- class vtkIndent -->
    <class-decl name='vtkIndent' size-in-bits='32' visibility='default' filepath='/tmp/legendre/spack-stage/spack-stage-R_crTC/VTK-6.1.0/Common/Core/vtkIndent.h' line='31' column='1' id='dcc9227a'>
      <data-member access='protected' layout-offset-in-bits='0'>
        <!-- int vtkIndent::Indent -->
        <var-decl name='Indent' type-id='95e97e5e' visibility='default' filepath='/tmp/legendre/spack-stage/spack-stage-R_crTC/VTK-6.1.0/Common/Core/vtkIndent.h' line='49' column='1'/>
      </data-member>
      <member-function access='private' constructor='yes'>
        <!-- vtkIndent::vtkIndent(int) -->
        <function-decl name='vtkIndent' filepath='/tmp/legendre/spack-stage/spack-stage-R_crTC/VTK-6.1.0/Common/Core/vtkIndent.h' line='34' column='1' visibility='default' binding='global' size-in-bits='64'>
          <!-- implicit parameter of type 'vtkIndent*' -->
          <parameter type-id='2cffa8f8' is-artificial='yes'/>
          <!-- parameter of type 'int' -->
          <parameter type-id='95e97e5e'/>
          <!-- void -->
          <return type-id='48b5725f'/>
        </function-decl>
      </member-function>
    </class-decl>
    <!-- class vtkSmartPointer<vtkCharArray> -->
    <class-decl name='vtkSmartPointer&lt;vtkCharArray&gt;' size-in-bits='64' visibility='default' filepath='/tmp/legendre/spack-stage/spack-stage-R_crTC/VTK-6.1.0/Common/Core/vtkSmartPointer.h' line='27' column='1' id='e1959c4c'>
      <!-- class vtkSmartPointerBase -->
      <base-class access='public' layout-offset-in-bits='0' type-id='f1051367'/>
      <member-function access='private'>
        <!-- void vtkSmartPointer<vtkCharArray>::vtkSmartPointer() -->
        <function-decl name='vtkSmartPointer' filepath='/tmp/legendre/spack-stage/spack-stage-R_crTC/VTK-6.1.0/Common/Core/vtkSmartPointer.h' line='32' column='1' visibility='default' binding='global' size-in-bits='64'>
          <!-- implicit parameter of type 'vtkSmartPointer<vtkCharArray>*' -->
          <parameter type-id='ddc3805a' is-artificial='yes'/>
          <!-- void -->
          <return type-id='48b5725f'/>
        </function-decl>
      </member-function>
      <member-function access='private'>
        <!-- void vtkSmartPointer<vtkCharArray>::vtkSmartPointer(vtkCharArray*) -->
        <function-decl name='vtkSmartPointer' filepath='/tmp/legendre/spack-stage/spack-stage-R_crTC/VTK-6.1.0/Common/Core/vtkSmartPointer.h' line='36' column='1' visibility='default' binding='global' size-in-bits='64'>
          <!-- implicit parameter of type 'vtkSmartPointer<vtkCharArray>*' -->
          <parameter type-id='ddc3805a' is-artificial='yes'/>
          <!-- parameter of type 'vtkCharArray*' -->
          <parameter type-id='123f1b85'/>
          <!-- void -->
          <return type-id='48b5725f'/>
        </function-decl>
      </member-function>
      <member-function access='protected'>
        <!-- void vtkSmartPointer<vtkCharArray>::vtkSmartPointer(vtkCharArray*, const vtkSmartPointerBase::NoReference&) -->
        <function-decl name='vtkSmartPointer' filepath='/tmp/legendre/spack-stage/spack-stage-R_crTC/VTK-6.1.0/Common/Core/vtkSmartPointer.h' line='167' column='1' visibility='default' binding='global' size-in-bits='64'>
          <!-- implicit parameter of type 'vtkSmartPointer<vtkCharArray>*' -->
          <parameter type-id='ddc3805a' is-artificial='yes'/>
          <!-- parameter of type 'vtkCharArray*' -->
          <parameter type-id='123f1b85'/>
          <!-- parameter of type 'const vtkSmartPointerBase::NoReference&' -->
          <parameter type-id='675e5dd6'/>
          <!-- void -->
          <return type-id='48b5725f'/>
        </function-decl>
      </member-function>
      <member-function access='private'>
        <!-- vtkCharArray* vtkSmartPointer<vtkCharArray>::operator&#45;>() -->
        <function-decl name='operator-&gt;' mangled-name='_ZNK15vtkSmartPointerI12vtkCharArrayEptEv' filepath='/tmp/legendre/spack-stage/spack-stage-R_crTC/VTK-6.1.0/Common/Core/vtkSmartPointer.h' line='92' column='1' visibility='default' binding='global' size-in-bits='64'>
          <!-- implicit parameter of type 'const vtkSmartPointer<vtkCharArray>*' -->
          <parameter type-id='0fbe98e3' is-artificial='yes'/>
          <!-- vtkCharArray* -->
          <return type-id='123f1b85'/>
        </function-decl>
      </member-function>
      <member-function access='private'>
        <!-- vtkCharArray* vtkSmartPointer<vtkCharArray>::operator vtkCharArray*() -->
        <function-decl name='operator vtkCharArray*' mangled-name='_ZNK15vtkSmartPointerI12vtkCharArrayEcvPS0_Ev' filepath='/tmp/legendre/spack-stage/spack-stage-R_crTC/VTK-6.1.0/Common/Core/vtkSmartPointer.h' line='77' column='1' visibility='default' binding='global' size-in-bits='64'>
          <!-- implicit parameter of type 'const vtkSmartPointer<vtkCharArray>*' -->
          <parameter type-id='0fbe98e3' is-artificial='yes'/>
          <!-- vtkCharArray* -->
          <return type-id='123f1b85'/>
        </function-decl>
      </member-function>
      <member-function access='private' static='yes'>
        <!-- vtkSmartPointer<vtkCharArray> vtkSmartPointer<vtkCharArray>::New() -->
        <function-decl name='New' mangled-name='_ZN15vtkSmartPointerI12vtkCharArrayE3NewEv' filepath='/tmp/legendre/spack-stage/spack-stage-R_crTC/VTK-6.1.0/Common/Core/vtkSmartPointer.h' line='115' column='1' visibility='default' binding='global' size-in-bits='64'>
          <!-- class vtkSmartPointer<vtkCharArray> -->
          <return type-id='e1959c4c'/>
        </function-decl>
      </member-function>
    </class-decl>
    <!-- class vtkSmartPointer<vtkDataObject> -->
    <class-decl name='vtkSmartPointer&lt;vtkDataObject&gt;' size-in-bits='64' visibility='default' filepath='/tmp/legendre/spack-stage/spack-stage-R_crTC/VTK-6.1.0/Common/Core/vtkSmartPointer.h' line='27' column='1' id='2e8e1f58'>
      <!-- class vtkSmartPointerBase -->
      <base-class access='public' layout-offset-in-bits='0' type-id='f1051367'/>
      <member-function access='private'>
        <!-- void vtkSmartPointer<vtkDataObject>::vtkSmartPointer() -->
        <function-decl name='vtkSmartPointer' filepath='/tmp/legendre/spack-stage/spack-stage-R_crTC/VTK-6.1.0/Common/Core/vtkSmartPointer.h' line='32' column='1' visibility='default' binding='global' size-in-bits='64'>
          <!-- implicit parameter of type 'vtkSmartPointer<vtkDataObject>*' -->
          <parameter type-id='c93b844e' is-artificial='yes'/>
          <!-- void -->
          <return type-id='48b5725f'/>
        </function-decl>
      </member-function>
      <member-function access='private'>
        <!-- void vtkSmartPointer<vtkDataObject>::vtkSmartPointer(vtkDataObject*) -->
        <function-decl name='vtkSmartPointer' filepath='/tmp/legendre/spack-stage/spack-stage-R_crTC/VTK-6.1.0/Common/Core/vtkSmartPointer.h' line='36' column='1' visibility='default' binding='global' size-in-bits='64'>
          <!-- implicit parameter of type 'vtkSmartPointer<vtkDataObject>*' -->
          <parameter type-id='c93b844e' is-artificial='yes'/>
          <!-- parameter of type 'vtkDataObject*' -->
          <parameter type-id='098d5fe3'/>
          <!-- void -->
          <return type-id='48b5725f'/>
        </function-decl>
      </member-function>
      <member-function access='protected'>
        <!-- void vtkSmartPointer<vtkDataObject>::vtkSmartPointer(vtkDataObject*, const vtkSmartPointerBase::NoReference&) -->
        <function-decl name='vtkSmartPointer' filepath='/tmp/legendre/spack-stage/spack-stage-R_crTC/VTK-6.1.0/Common/Core/vtkSmartPointer.h' line='167' column='1' visibility='default' binding='global' size-in-bits='64'>
          <!-- implicit parameter of type 'vtkSmartPointer<vtkDataObject>*' -->
          <parameter type-id='c93b844e' is-artificial='yes'/>
          <!-- parameter of type 'vtkDataObject*' -->
          <parameter type-id='098d5fe3'/>
          <!-- parameter of type 'const vtkSmartPointerBase::NoReference&' -->
          <parameter type-id='675e5dd6'/>
          <!-- void -->
          <return type-id='48b5725f'/>
        </function-decl>
      </member-function>
      <member-function access='private'>
        <!-- void vtkSmartPointer<vtkDataObject>::TakeReference(vtkDataObject*) -->
        <function-decl name='TakeReference' mangled-name='_ZN15vtkSmartPointerI13vtkDataObjectE13TakeReferenceEPS0_' filepath='/tmp/legendre/spack-stage/spack-stage-R_crTC/VTK-6.1.0/Common/Core/vtkSmartPointer.h' line='108' column='1' visibility='default' binding='global' size-in-bits='64'>
          <!-- implicit parameter of type 'vtkSmartPointer<vtkDataObject>*' -->
          <parameter type-id='c93b844e' is-artificial='yes'/>
          <!-- parameter of type 'vtkDataObject*' -->
          <parameter type-id='098d5fe3'/>
          <!-- void -->
          <return type-id='48b5725f'/>
        </function-decl>
      </member-function>
      <member-function access='private'>
        <!-- vtkDataObject* vtkSmartPointer<vtkDataObject>::operator&#45;>() -->
        <function-decl name='operator-&gt;' mangled-name='_ZNK15vtkSmartPointerI13vtkDataObjectEptEv' filepath='/tmp/legendre/spack-stage/spack-stage-R_crTC/VTK-6.1.0/Common/Core/vtkSmartPointer.h' line='92' column='1' visibility='default' binding='global' size-in-bits='64'>
          <!-- implicit parameter of type 'const vtkSmartPointer<vtkDataObject>*' -->
          <parameter type-id='eade9a25' is-artificial='yes'/>
          <!-- vtkDataObject* -->
          <return type-id='098d5fe3'/>
        </function-decl>
      </member-function>
      <member-function access='private'>
        <!-- vtkDataObject* vtkSmartPointer<vtkDataObject>::operator vtkDataObject*() -->
        <function-decl name='operator vtkDataObject*' mangled-name='_ZNK15vtkSmartPointerI13vtkDataObjectEcvPS0_Ev' filepath='/tmp/legendre/spack-stage/spack-stage-R_crTC/VTK-6.1.0/Common/Core/vtkSmartPointer.h' line='77' column='1' visibility='default' binding='global' size-in-bits='64'>
          <!-- implicit parameter of type 'const vtkSmartPointer<vtkDataObject>*' -->
          <parameter type-id='eade9a25' is-artificial='yes'/>
          <!-- vtkDataObject* -->
          <return type-id='098d5fe3'/>
        </function-decl>
      </member-function>
    </class-decl>
    <!-- class vtkSmartPointer<vtkGenericDataObjectReader> -->
    <class-decl name='vtkSmartPointer&lt;vtkGenericDataObjectReader&gt;' size-in-bits='64' visibility='default' filepath='/tmp/legendre/spack-stage/spack-stage-R_crTC/VTK-6.1.0/Common/Core/vtkSmartPointer.h' line='27' column='1' id='cf9884a8'>
      <!-- class vtkSmartPointerBase -->
      <base-class access='public' layout-offset-in-bits='0' type-id='f1051367'/>
      <member-function access='private'>
        <!-- void vtkSmartPointer<vtkGenericDataObjectReader>::vtkSmartPointer() -->
        <function-decl name='vtkSmartPointer' filepath='/tmp/legendre/spack-stage/spack-stage-R_crTC/VTK-6.1.0/Common/Core/vtkSmartPointer.h' line='32' column='1' visibility='default' binding='global' size-in-bits='64'>
          <!-- implicit parameter of type 'vtkSmartPointer<vtkGenericDataObjectReader>*' -->
          <parameter type-id='9057374e' is-artificial='yes'/>
          <!-- void -->
          <return type-id='48b5725f'/>
        </function-decl>
      </member-function>
      <member-function access='private'>
        <!-- void vtkSmartPointer<vtkGenericDataObjectReader>::vtkSmartPointer(vtkGenericDataObjectReader*) -->
        <function-decl name='vtkSmartPointer' filepath='/tmp/legendre/spack-stage/spack-stage-R_crTC/VTK-6.1.0/Common/Core/vtkSmartPointer.h' line='36' column='1' visibility='default' binding='global' size-in-bits='64'>
          <!-- implicit parameter of type 'vtkSmartPointer<vtkGenericDataObjectReader>*' -->
          <parameter type-id='9057374e' is-artificial='yes'/>
          <!-- parameter of type 'vtkGenericDataObjectReader*' -->
          <parameter type-id='07278d69'/>
          <!-- void -->
          <return type-id='48b5725f'/>
        </function-decl>
      </member-function>
      <member-function access='protected'>
        <!-- void vtkSmartPointer<vtkGenericDataObjectReader>::vtkSmartPointer(vtkGenericDataObjectReader*, const vtkSmartPointerBase::NoReference&) -->
        <function-decl name='vtkSmartPointer' filepath='/tmp/legendre/spack-stage/spack-stage-R_crTC/VTK-6.1.0/Common/Core/vtkSmartPointer.h' line='167' column='1' visibility='default' binding='global' size-in-bits='64'>
          <!-- implicit parameter of type 'vtkSmartPointer<vtkGenericDataObjectReader>*' -->
          <parameter type-id='9057374e' is-artificial='yes'/>
          <!-- parameter of type 'vtkGenericDataObjectReader*' -->
          <parameter type-id='07278d69'/>
          <!-- parameter of type 'const vtkSmartPointerBase::NoReference&' -->
          <parameter type-id='675e5dd6'/>
          <!-- void -->
          <return type-id='48b5725f'/>
        </function-decl>
      </member-function>
      <member-function access='private' static='yes'>
        <!-- vtkSmartPointer<vtkGenericDataObjectReader> vtkSmartPointer<vtkGenericDataObjectReader>::New() -->
        <function-decl name='New' mangled-name='_ZN15vtkSmartPointerI26vtkGenericDataObjectReaderE3NewEv' filepath='/tmp/legendre/spack-stage/spack-stage-R_crTC/VTK-6.1.0/Common/Core/vtkSmartPointer.h' line='115' column='1' visibility='default' binding='global' size-in-bits='64'>
          <!-- class vtkSmartPointer<vtkGenericDataObjectReader> -->
          <return type-id='cf9884a8'/>
        </function-decl>
      </member-function>
      <member-function access='private'>
        <!-- vtkGenericDataObjectReader* vtkSmartPointer<vtkGenericDataObjectReader>::operator&#45;>() -->
        <function-decl name='operator-&gt;' mangled-name='_ZNK15vtkSmartPointerI26vtkGenericDataObjectReaderEptEv' filepath='/tmp/legendre/spack-stage/spack-stage-R_crTC/VTK-6.1.0/Common/Core/vtkSmartPointer.h' line='92' column='1' visibility='default' binding='global' size-in-bits='64'>
          <!-- implicit parameter of type 'const vtkSmartPointer<vtkGenericDataObjectReader>*' -->
          <parameter type-id='5edf3637' is-artificial='yes'/>
          <!-- vtkGenericDataObjectReader* -->
          <return type-id='07278d69'/>
        </function-decl>
      </member-function>
    </class-decl>
    <!-- class vtkSmartPointer<vtkGenericDataObjectWriter> -->
    <class-decl name='vtkSmartPointer&lt;vtkGenericDataObjectWriter&gt;' size-in-bits='64' visibility='default' filepath='/tmp/legendre/spack-stage/spack-stage-R_crTC/VTK-6.1.0/Common/Core/vtkSmartPointer.h' line='27' column='1' id='1d7707ac'>
      <!-- class vtkSmartPointerBase -->
      <base-class access='public' layout-offset-in-bits='0' type-id='f1051367'/>
      <member-function access='private'>
        <!-- void vtkSmartPointer<vtkGenericDataObjectWriter>::vtkSmartPointer() -->
        <function-decl name='vtkSmartPointer' filepath='/tmp/legendre/spack-stage/spack-stage-R_crTC/VTK-6.1.0/Common/Core/vtkSmartPointer.h' line='32' column='1' visibility='default' binding='global' size-in-bits='64'>
          <!-- implicit parameter of type 'vtkSmartPointer<vtkGenericDataObjectWriter>*' -->
          <parameter type-id='3edfe18a' is-artificial='yes'/>
          <!-- void -->
          <return type-id='48b5725f'/>
        </function-decl>
      </member-function>
      <member-function access='private'>
        <!-- void vtkSmartPointer<vtkGenericDataObjectWriter>::vtkSmartPointer(vtkGenericDataObjectWriter*) -->
        <function-decl name='vtkSmartPointer' filepath='/tmp/legendre/spack-stage/spack-stage-R_crTC/VTK-6.1.0/Common/Core/vtkSmartPointer.h' line='36' column='1' visibility='default' binding='global' size-in-bits='64'>
          <!-- implicit parameter of type 'vtkSmartPointer<vtkGenericDataObjectWriter>*' -->
          <parameter type-id='3edfe18a' is-artificial='yes'/>
          <!-- parameter of type 'vtkGenericDataObjectWriter*' -->
          <parameter type-id='76b76ac9'/>
          <!-- void -->
          <return type-id='48b5725f'/>
        </function-decl>
      </member-function>
      <member-function access='protected'>
        <!-- void vtkSmartPointer<vtkGenericDataObjectWriter>::vtkSmartPointer(vtkGenericDataObjectWriter*, const vtkSmartPointerBase::NoReference&) -->
        <function-decl name='vtkSmartPointer' filepath='/tmp/legendre/spack-stage/spack-stage-R_crTC/VTK-6.1.0/Common/Core/vtkSmartPointer.h' line='167' column='1' visibility='default' binding='global' size-in-bits='64'>
          <!-- implicit parameter of type 'vtkSmartPointer<vtkGenericDataObjectWriter>*' -->
          <parameter type-id='3edfe18a' is-artificial='yes'/>
          <!-- parameter of type 'vtkGenericDataObjectWriter*' -->
          <parameter type-id='76b76ac9'/>
          <!-- parameter of type 'const vtkSmartPointerBase::NoReference&' -->
          <parameter type-id='675e5dd6'/>
          <!-- void -->
          <return type-id='48b5725f'/>
        </function-decl>
      </member-function>
      <member-function access='private' static='yes'>
        <!-- vtkSmartPointer<vtkGenericDataObjectWriter> vtkSmartPointer<vtkGenericDataObjectWriter>::New() -->
        <function-decl name='New' mangled-name='_ZN15vtkSmartPointerI26vtkGenericDataObjectWriterE3NewEv' filepath='/tmp/legendre/spack-stage/spack-stage-R_crTC/VTK-6.1.0/Common/Core/vtkSmartPointer.h' line='115' column='1' visibility='default' binding='global' size-in-bits='64'>
          <!-- class vtkSmartPointer<vtkGenericDataObjectWriter> -->
          <return type-id='1d7707ac'/>
        </function-decl>
      </member-function>
      <member-function access='private'>
        <!-- vtkGenericDataObjectWriter* vtkSmartPointer<vtkGenericDataObjectWriter>::operator&#45;>() -->
        <function-decl name='operator-&gt;' mangled-name='_ZNK15vtkSmartPointerI26vtkGenericDataObjectWriterEptEv' filepath='/tmp/legendre/spack-stage/spack-stage-R_crTC/VTK-6.1.0/Common/Core/vtkSmartPointer.h' line='92' column='1' visibility='default' binding='global' size-in-bits='64'>
          <!-- implicit parameter of type 'const vtkSmartPointer<vtkGenericDataObjectWriter>*' -->
          <parameter type-id='70797e43' is-artificial='yes'/>
          <!-- vtkGenericDataObjectWriter* -->
          <return type-id='76b76ac9'/>
        </function-decl>
      </member-function>
    </class-decl>
    <!-- class vtkSmartPointerBase -->
    <class-decl name='vtkSmartPointerBase' size-in-bits='64' visibility='default' filepath='/tmp/legendre/spack-stage/spack-stage-R_crTC/VTK-6.1.0/Common/Core/vtkSmartPointerBase.h' line='30' column='1' id='f1051367'>
      <member-type access='protected'>
        <!-- class vtkSmartPointerBase::NoReference -->
        <class-decl name='NoReference' size-in-bits='8' visibility='default' filepath='/tmp/legendre/spack-stage/spack-stage-R_crTC/VTK-6.1.0/Common/Core/vtkSmartPointerBase.h' line='73' column='1' id='a54445e1'/>
      </member-type>
      <data-member access='protected' layout-offset-in-bits='0'>
        <!-- vtkObjectBase* vtkSmartPointerBase::Object -->
        <var-decl name='Object' type-id='3f9da73c' visibility='default' filepath='/tmp/legendre/spack-stage/spack-stage-R_crTC/VTK-6.1.0/Common/Core/vtkSmartPointerBase.h' line='77' column='1'/>
      </data-member>
      <member-function access='private' constructor='yes'>
        <!-- vtkSmartPointerBase::vtkSmartPointerBase() -->
        <function-decl name='vtkSmartPointerBase' filepath='/tmp/legendre/spack-stage/spack-stage-R_crTC/VTK-6.1.0/Common/Core/vtkSmartPointerBase.h' line='34' column='1' visibility='default' binding='global' size-in-bits='64'>
          <!-- implicit parameter of type 'vtkSmartPointerBase*' -->
          <parameter type-id='5b622faf' is-artificial='yes'/>
          <!-- void -->
          <return type-id='48b5725f'/>
        </function-decl>
      </member-function>
      <member-function access='private' constructor='yes'>
        <!-- vtkSmartPointerBase::vtkSmartPointerBase(vtkObjectBase*) -->
        <function-decl name='vtkSmartPointerBase' filepath='/tmp/legendre/spack-stage/spack-stage-R_crTC/VTK-6.1.0/Common/Core/vtkSmartPointerBase.h' line='38' column='1' visibility='default' binding='global' size-in-bits='64'>
          <!-- implicit parameter of type 'vtkSmartPointerBase*' -->
          <parameter type-id='5b622faf' is-artificial='yes'/>
          <!-- parameter of type 'vtkObjectBase*' -->
          <parameter type-id='3f9da73c'/>
          <!-- void -->
          <return type-id='48b5725f'/>
        </function-decl>
      </member-function>
      <member-function access='private' constructor='yes'>
        <!-- vtkSmartPointerBase::vtkSmartPointerBase(const vtkSmartPointerBase&) -->
        <function-decl name='vtkSmartPointerBase' filepath='/tmp/legendre/spack-stage/spack-stage-R_crTC/VTK-6.1.0/Common/Core/vtkSmartPointerBase.h' line='43' column='1' visibility='default' binding='global' size-in-bits='64'>
          <!-- implicit parameter of type 'vtkSmartPointerBase*' -->
          <parameter type-id='5b622faf' is-artificial='yes'/>
          <!-- parameter of type 'const vtkSmartPointerBase&' -->
          <parameter type-id='286b8fbe'/>
          <!-- void -->
          <return type-id='48b5725f'/>
        </function-decl>
      </member-function>
      <member-function access='private' destructor='yes'>
        <!-- vtkSmartPointerBase::~vtkSmartPointerBase(int) -->
        <function-decl name='~vtkSmartPointerBase' filepath='/tmp/legendre/spack-stage/spack-stage-R_crTC/VTK-6.1.0/Common/Core/vtkSmartPointerBase.h' line='47' column='1' visibility='default' binding='global' size-in-bits='64'>
          <!-- implicit parameter of type 'vtkSmartPointerBase*' -->
          <parameter type-id='5b622faf' is-artificial='yes'/>
          <!-- artificial parameter of type 'int' -->
          <parameter type-id='95e97e5e' is-artificial='yes'/>
          <!-- void -->
          <return type-id='48b5725f'/>
        </function-decl>
      </member-function>
      <member-function access='protected' constructor='yes'>
        <!-- vtkSmartPointerBase::vtkSmartPointerBase(vtkObjectBase*, const vtkSmartPointerBase::NoReference&) -->
        <function-decl name='vtkSmartPointerBase' filepath='/tmp/legendre/spack-stage/spack-stage-R_crTC/VTK-6.1.0/Common/Core/vtkSmartPointerBase.h' line='74' column='1' visibility='default' binding='global' size-in-bits='64'>
          <!-- implicit parameter of type 'vtkSmartPointerBase*' -->
          <parameter type-id='5b622faf' is-artificial='yes'/>
          <!-- parameter of type 'vtkObjectBase*' -->
          <parameter type-id='3f9da73c'/>
          <!-- parameter of type 'const vtkSmartPointerBase::NoReference&' -->
          <parameter type-id='675e5dd6'/>
          <!-- void -->
          <return type-id='48b5725f'/>
        </function-decl>
      </member-function>
    </class-decl>
    <!-- typedef long long unsigned int vtkTypeUInt64 -->
    <typedef-decl name='vtkTypeUInt64' type-id='3a47d82b' filepath='/tmp/legendre/spack-stage/spack-stage-R_crTC/VTK-6.1.0/Common/Core/vtkType.h' line='211' column='1' id='6be9ba65'/>
    <!-- typedef long long int vtkTypeInt64 -->
    <typedef-decl name='vtkTypeInt64' type-id='1eb56b1e' filepath='/tmp/legendre/spack-stage/spack-stage-R_crTC/VTK-6.1.0/Common/Core/vtkType.h' line='212' column='1' id='b8ec660a'/>
    <!-- typedef long long int vtkIdType -->
    <typedef-decl name='vtkIdType' type-id='1eb56b1e' filepath='/tmp/legendre/spack-stage/spack-stage-R_crTC/VTK-6.1.0/Common/Core/vtkType.h' line='255' column='1' id='7dc2ef22'/>
    <!-- struct vtkTypeTraits<int> -->
    <class-decl name='vtkTypeTraits&lt;int&gt;' size-in-bits='8' is-struct='yes' visibility='default' filepath='/tmp/legendre/spack-stage/spack-stage-R_crTC/VTK-6.1.0/Common/Core/vtkTypeTraits.h' line='99' column='1' id='4829928a'>
      <member-function access='public' static='yes'>
        <!-- int vtkTypeTraits<int>::Max() -->
        <function-decl name='Max' mangled-name='_ZN13vtkTypeTraitsIiE3MaxEv' filepath='/tmp/legendre/spack-stage/spack-stage-R_crTC/VTK-6.1.0/Common/Core/vtkTypeTraits.h' line='99' column='1' visibility='default' binding='global' size-in-bits='64'>
          <!-- int -->
          <return type-id='95e97e5e'/>
        </function-decl>
      </member-function>
      <member-function access='public' static='yes'>
        <!-- const char* vtkTypeTraits<int>::SizedName() -->
        <function-decl name='SizedName' mangled-name='_ZN13vtkTypeTraitsIiE9SizedNameEv' filepath='/tmp/legendre/spack-stage/spack-stage-R_crTC/VTK-6.1.0/Common/Core/vtkTypeTraits.h' line='99' column='1' visibility='default' binding='global' size-in-bits='64'>
          <!-- const char* -->
          <return type-id='80f4b756'/>
        </function-decl>
      </member-function>
    </class-decl>
    <!-- class vtkBoundingBox -->
    <class-decl name='vtkBoundingBox' size-in-bits='384' visibility='default' filepath='/tmp/legendre/spack-stage/spack-stage-R_crTC/VTK-6.1.0/Common/DataModel/vtkBoundingBox.h' line='30' column='1' id='1e4b9615'>
      <data-member access='protected' layout-offset-in-bits='0'>
        <!-- double vtkBoundingBox::MinPnt[3] -->
        <var-decl name='MinPnt' type-id='ea00fd49' visibility='default' filepath='/tmp/legendre/spack-stage/spack-stage-R_crTC/VTK-6.1.0/Common/DataModel/vtkBoundingBox.h' line='185' column='1'/>
      </data-member>
      <data-member access='protected' layout-offset-in-bits='192'>
        <!-- double vtkBoundingBox::MaxPnt[3] -->
        <var-decl name='MaxPnt' type-id='ea00fd49' visibility='default' filepath='/tmp/legendre/spack-stage/spack-stage-R_crTC/VTK-6.1.0/Common/DataModel/vtkBoundingBox.h' line='185' column='1'/>
      </data-member>
      <member-function access='private' constructor='yes'>
        <!-- vtkBoundingBox::vtkBoundingBox() -->
        <function-decl name='vtkBoundingBox' filepath='/tmp/legendre/spack-stage/spack-stage-R_crTC/VTK-6.1.0/Common/DataModel/vtkBoundingBox.h' line='35' column='1' visibility='default' binding='global' size-in-bits='64'>
          <!-- implicit parameter of type 'vtkBoundingBox*' -->
          <parameter type-id='ba97f175' is-artificial='yes'/>
          <!-- void -->
          <return type-id='48b5725f'/>
        </function-decl>
      </member-function>
      <member-function access='private' constructor='yes'>
        <!-- vtkBoundingBox::vtkBoundingBox(const double*) -->
        <function-decl name='vtkBoundingBox' filepath='/tmp/legendre/spack-stage/spack-stage-R_crTC/VTK-6.1.0/Common/DataModel/vtkBoundingBox.h' line='36' column='1' visibility='default' binding='global' size-in-bits='64'>
          <!-- implicit parameter of type 'vtkBoundingBox*' -->
          <parameter type-id='ba97f175' is-artificial='yes'/>
          <!-- parameter of type 'const double*' -->
          <parameter type-id='a6370261'/>
          <!-- void -->
          <return type-id='48b5725f'/>
        </function-decl>
      </member-function>
      <member-function access='private' constructor='yes'>
        <!-- vtkBoundingBox::vtkBoundingBox(double, double, double, double, double, double) -->
        <function-decl name='vtkBoundingBox' filepath='/tmp/legendre/spack-stage/spack-stage-R_crTC/VTK-6.1.0/Common/DataModel/vtkBoundingBox.h' line='37' column='1' visibility='default' binding='global' size-in-bits='64'>
          <!-- implicit parameter of type 'vtkBoundingBox*' -->
          <parameter type-id='ba97f175' is-artificial='yes'/>
          <!-- parameter of type 'double' -->
          <parameter type-id='a0eb0f08'/>
          <!-- parameter of type 'double' -->
          <parameter type-id='a0eb0f08'/>
          <!-- parameter of type 'double' -->
          <parameter type-id='a0eb0f08'/>
          <!-- parameter of type 'double' -->
          <parameter type-id='a0eb0f08'/>
          <!-- parameter of type 'double' -->
          <parameter type-id='a0eb0f08'/>
          <!-- parameter of type 'double' -->
          <parameter type-id='a0eb0f08'/>
          <!-- void -->
          <return type-id='48b5725f'/>
        </function-decl>
      </member-function>
      <member-function access='private' constructor='yes'>
        <!-- vtkBoundingBox::vtkBoundingBox(const vtkBoundingBox&) -->
        <function-decl name='vtkBoundingBox' filepath='/tmp/legendre/spack-stage/spack-stage-R_crTC/VTK-6.1.0/Common/DataModel/vtkBoundingBox.h' line='43' column='1' visibility='default' binding='global' size-in-bits='64'>
          <!-- implicit parameter of type 'vtkBoundingBox*' -->
          <parameter type-id='ba97f175' is-artificial='yes'/>
          <!-- parameter of type 'const vtkBoundingBox&' -->
          <parameter type-id='a85d2926'/>
          <!-- void -->
          <return type-id='48b5725f'/>
        </function-decl>
      </member-function>
      <member-function access='private'>
        <!-- void vtkBoundingBox::GetBounds(double&, double&, double&, double&, double&, double&) -->
        <function-decl name='GetBounds' mangled-name='_ZNK14vtkBoundingBox9GetBoundsERdS0_S0_S0_S0_S0_' filepath='/tmp/legendre/spack-stage/spack-stage-R_crTC/VTK-6.1.0/Common/DataModel/vtkBoundingBox.h' line='115' column='1' visibility='default' binding='global' size-in-bits='64'>
          <!-- implicit parameter of type 'const vtkBoundingBox*' -->
          <parameter type-id='b45d3c0a' is-artificial='yes'/>
          <!-- parameter of type 'double&' -->
          <parameter type-id='8008e56a'/>
          <!-- parameter of type 'double&' -->
          <parameter type-id='8008e56a'/>
          <!-- parameter of type 'double&' -->
          <parameter type-id='8008e56a'/>
          <!-- parameter of type 'double&' -->
          <parameter type-id='8008e56a'/>
          <!-- parameter of type 'double&' -->
          <parameter type-id='8008e56a'/>
          <!-- parameter of type 'double&' -->
          <parameter type-id='8008e56a'/>
          <!-- void -->
          <return type-id='48b5725f'/>
        </function-decl>
      </member-function>
      <member-function access='private'>
        <!-- int vtkBoundingBox::IsValid() -->
        <function-decl name='IsValid' mangled-name='_ZNK14vtkBoundingBox7IsValidEv' filepath='/tmp/legendre/spack-stage/spack-stage-R_crTC/VTK-6.1.0/Common/DataModel/vtkBoundingBox.h' line='167' column='1' visibility='default' binding='global' size-in-bits='64'>
          <!-- implicit parameter of type 'const vtkBoundingBox*' -->
          <parameter type-id='b45d3c0a' is-artificial='yes'/>
          <!-- int -->
          <return type-id='95e97e5e'/>
        </function-decl>
      </member-function>
      <member-function access='private'>
        <!-- void vtkBoundingBox::GetBounds(double*) -->
        <function-decl name='GetBounds' mangled-name='_ZNK14vtkBoundingBox9GetBoundsEPd' filepath='/tmp/legendre/spack-stage/spack-stage-R_crTC/VTK-6.1.0/Common/DataModel/vtkBoundingBox.h' line='114' column='1' visibility='default' binding='global' size-in-bits='64'>
          <!-- implicit parameter of type 'const vtkBoundingBox*' -->
          <parameter type-id='b45d3c0a' is-artificial='yes'/>
          <!-- parameter of type 'double*' -->
          <parameter type-id='7408d286'/>
          <!-- void -->
          <return type-id='48b5725f'/>
        </function-decl>
      </member-function>
    </class-decl>
    <!-- class vtkCommunicatorMaxClass -->
    <class-decl name='vtkCommunicatorMaxClass' size-in-bits='64' visibility='default' filepath='/tmp/legendre/spack-stage/spack-stage-R_crTC/VTK-6.1.0/Parallel/Core/vtkCommunicator.cxx' line='85' column='1' id='0bfe38ad'>
      <!-- class vtkCommunicator::Operation -->
      <base-class access='public' layout-offset-in-bits='0' type-id='d0b17aa0'/>
      <member-function access='private' vtable-offset='0'>
        <!-- void vtkCommunicatorMaxClass::Function(void*, void*, vtkIdType, int) -->
        <function-decl name='Function' mangled-name='_ZN23vtkCommunicatorMaxClass8FunctionEPKvPvxi' filepath='/tmp/legendre/spack-stage/spack-stage-R_crTC/VTK-6.1.0/Parallel/Core/vtkCommunicator.cxx' line='85' column='1' visibility='default' binding='global' size-in-bits='64'>
          <!-- implicit parameter of type 'vtkCommunicatorMaxClass*' -->
          <parameter type-id='478d0c8d' is-artificial='yes'/>
          <!-- parameter of type 'void*' -->
          <parameter type-id='eaa32e2f'/>
          <!-- parameter of type 'void*' -->
          <parameter type-id='eaa32e2f'/>
          <!-- parameter of type 'typedef vtkIdType' -->
          <parameter type-id='7dc2ef22'/>
          <!-- parameter of type 'int' -->
          <parameter type-id='95e97e5e'/>
          <!-- void -->
          <return type-id='48b5725f'/>
        </function-decl>
      </member-function>
      <member-function access='private' vtable-offset='1'>
        <!-- int vtkCommunicatorMaxClass::Commutative() -->
        <function-decl name='Commutative' mangled-name='_ZN23vtkCommunicatorMaxClass11CommutativeEv' filepath='/tmp/legendre/spack-stage/spack-stage-R_crTC/VTK-6.1.0/Parallel/Core/vtkCommunicator.cxx' line='85' column='1' visibility='default' binding='global' size-in-bits='64'>
          <!-- implicit parameter of type 'vtkCommunicatorMaxClass*' -->
          <parameter type-id='478d0c8d' is-artificial='yes'/>
          <!-- int -->
          <return type-id='95e97e5e'/>
        </function-decl>
      </member-function>
    </class-decl>
    <!-- class vtkCommunicatorMinClass -->
    <class-decl name='vtkCommunicatorMinClass' size-in-bits='64' visibility='default' filepath='/tmp/legendre/spack-stage/spack-stage-R_crTC/VTK-6.1.0/Parallel/Core/vtkCommunicator.cxx' line='86' column='1' id='e97d00bf'>
      <!-- class vtkCommunicator::Operation -->
      <base-class access='public' layout-offset-in-bits='0' type-id='d0b17aa0'/>
      <member-function access='private' vtable-offset='0'>
        <!-- void vtkCommunicatorMinClass::Function(void*, void*, vtkIdType, int) -->
        <function-decl name='Function' mangled-name='_ZN23vtkCommunicatorMinClass8FunctionEPKvPvxi' filepath='/tmp/legendre/spack-stage/spack-stage-R_crTC/VTK-6.1.0/Parallel/Core/vtkCommunicator.cxx' line='86' column='1' visibility='default' binding='global' size-in-bits='64'>
          <!-- implicit parameter of type 'vtkCommunicatorMinClass*' -->
          <parameter type-id='1f1c6ac7' is-artificial='yes'/>
          <!-- parameter of type 'void*' -->
          <parameter type-id='eaa32e2f'/>
          <!-- parameter of type 'void*' -->
          <parameter type-id='eaa32e2f'/>
          <!-- parameter of type 'typedef vtkIdType' -->
          <parameter type-id='7dc2ef22'/>
          <!-- parameter of type 'int' -->
          <parameter type-id='95e97e5e'/>
          <!-- void -->
          <return type-id='48b5725f'/>
        </function-decl>
      </member-function>
      <member-function access='private' vtable-offset='1'>
        <!-- int vtkCommunicatorMinClass::Commutative() -->
        <function-decl name='Commutative' mangled-name='_ZN23vtkCommunicatorMinClass11CommutativeEv' filepath='/tmp/legendre/spack-stage/spack-stage-R_crTC/VTK-6.1.0/Parallel/Core/vtkCommunicator.cxx' line='86' column='1' visibility='default' binding='global' size-in-bits='64'>
          <!-- implicit parameter of type 'vtkCommunicatorMinClass*' -->
          <parameter type-id='1f1c6ac7' is-artificial='yes'/>
          <!-- int -->
          <return type-id='95e97e5e'/>
        </function-decl>
      </member-function>
    </class-decl>
    <!-- class vtkCommunicatorSumClass -->
    <class-decl name='vtkCommunicatorSumClass' size-in-bits='64' visibility='default' filepath='/tmp/legendre/spack-stage/spack-stage-R_crTC/VTK-6.1.0/Parallel/Core/vtkCommunicator.cxx' line='87' column='1' id='2e630386'>
      <!-- class vtkCommunicator::Operation -->
      <base-class access='public' layout-offset-in-bits='0' type-id='d0b17aa0'/>
      <member-function access='private' vtable-offset='0'>
        <!-- void vtkCommunicatorSumClass::Function(void*, void*, vtkIdType, int) -->
        <function-decl name='Function' mangled-name='_ZN23vtkCommunicatorSumClass8FunctionEPKvPvxi' filepath='/tmp/legendre/spack-stage/spack-stage-R_crTC/VTK-6.1.0/Parallel/Core/vtkCommunicator.cxx' line='87' column='1' visibility='default' binding='global' size-in-bits='64'>
          <!-- implicit parameter of type 'vtkCommunicatorSumClass*' -->
          <parameter type-id='7305775c' is-artificial='yes'/>
          <!-- parameter of type 'void*' -->
          <parameter type-id='eaa32e2f'/>
          <!-- parameter of type 'void*' -->
          <parameter type-id='eaa32e2f'/>
          <!-- parameter of type 'typedef vtkIdType' -->
          <parameter type-id='7dc2ef22'/>
          <!-- parameter of type 'int' -->
          <parameter type-id='95e97e5e'/>
          <!-- void -->
          <return type-id='48b5725f'/>
        </function-decl>
      </member-function>
      <member-function access='private' vtable-offset='1'>
        <!-- int vtkCommunicatorSumClass::Commutative() -->
        <function-decl name='Commutative' mangled-name='_ZN23vtkCommunicatorSumClass11CommutativeEv' filepath='/tmp/legendre/spack-stage/spack-stage-R_crTC/VTK-6.1.0/Parallel/Core/vtkCommunicator.cxx' line='87' column='1' visibility='default' binding='global' size-in-bits='64'>
          <!-- implicit parameter of type 'vtkCommunicatorSumClass*' -->
          <parameter type-id='7305775c' is-artificial='yes'/>
          <!-- int -->
          <return type-id='95e97e5e'/>
        </function-decl>
      </member-function>
    </class-decl>
    <!-- class vtkCommunicatorProductClass -->
    <class-decl name='vtkCommunicatorProductClass' size-in-bits='64' visibility='default' filepath='/tmp/legendre/spack-stage/spack-stage-R_crTC/VTK-6.1.0/Parallel/Core/vtkCommunicator.cxx' line='88' column='1' id='80b7e93a'>
      <!-- class vtkCommunicator::Operation -->
      <base-class access='public' layout-offset-in-bits='0' type-id='d0b17aa0'/>
      <member-function access='private' vtable-offset='0'>
        <!-- void vtkCommunicatorProductClass::Function(void*, void*, vtkIdType, int) -->
        <function-decl name='Function' mangled-name='_ZN27vtkCommunicatorProductClass8FunctionEPKvPvxi' filepath='/tmp/legendre/spack-stage/spack-stage-R_crTC/VTK-6.1.0/Parallel/Core/vtkCommunicator.cxx' line='88' column='1' visibility='default' binding='global' size-in-bits='64'>
          <!-- implicit parameter of type 'vtkCommunicatorProductClass*' -->
          <parameter type-id='87d8acc8' is-artificial='yes'/>
          <!-- parameter of type 'void*' -->
          <parameter type-id='eaa32e2f'/>
          <!-- parameter of type 'void*' -->
          <parameter type-id='eaa32e2f'/>
          <!-- parameter of type 'typedef vtkIdType' -->
          <parameter type-id='7dc2ef22'/>
          <!-- parameter of type 'int' -->
          <parameter type-id='95e97e5e'/>
          <!-- void -->
          <return type-id='48b5725f'/>
        </function-decl>
      </member-function>
      <member-function access='private' vtable-offset='1'>
        <!-- int vtkCommunicatorProductClass::Commutative() -->
        <function-decl name='Commutative' mangled-name='_ZN27vtkCommunicatorProductClass11CommutativeEv' filepath='/tmp/legendre/spack-stage/spack-stage-R_crTC/VTK-6.1.0/Parallel/Core/vtkCommunicator.cxx' line='88' column='1' visibility='default' binding='global' size-in-bits='64'>
          <!-- implicit parameter of type 'vtkCommunicatorProductClass*' -->
          <parameter type-id='87d8acc8' is-artificial='yes'/>
          <!-- int -->
          <return type-id='95e97e5e'/>
        </function-decl>
      </member-function>
    </class-decl>
    <!-- class vtkCommunicatorLogicalAndClass -->
    <class-decl name='vtkCommunicatorLogicalAndClass' size-in-bits='64' visibility='default' filepath='/tmp/legendre/spack-stage/spack-stage-R_crTC/VTK-6.1.0/Parallel/Core/vtkCommunicator.cxx' line='90' column='1' id='5a3684fd'>
      <!-- class vtkCommunicator::Operation -->
      <base-class access='public' layout-offset-in-bits='0' type-id='d0b17aa0'/>
      <member-function access='private' vtable-offset='0'>
        <!-- void vtkCommunicatorLogicalAndClass::Function(void*, void*, vtkIdType, int) -->
        <function-decl name='Function' mangled-name='_ZN30vtkCommunicatorLogicalAndClass8FunctionEPKvPvxi' filepath='/tmp/legendre/spack-stage/spack-stage-R_crTC/VTK-6.1.0/Parallel/Core/vtkCommunicator.cxx' line='90' column='1' visibility='default' binding='global' size-in-bits='64'>
          <!-- implicit parameter of type 'vtkCommunicatorLogicalAndClass*' -->
          <parameter type-id='e74273fd' is-artificial='yes'/>
          <!-- parameter of type 'void*' -->
          <parameter type-id='eaa32e2f'/>
          <!-- parameter of type 'void*' -->
          <parameter type-id='eaa32e2f'/>
          <!-- parameter of type 'typedef vtkIdType' -->
          <parameter type-id='7dc2ef22'/>
          <!-- parameter of type 'int' -->
          <parameter type-id='95e97e5e'/>
          <!-- void -->
          <return type-id='48b5725f'/>
        </function-decl>
      </member-function>
      <member-function access='private' vtable-offset='1'>
        <!-- int vtkCommunicatorLogicalAndClass::Commutative() -->
        <function-decl name='Commutative' mangled-name='_ZN30vtkCommunicatorLogicalAndClass11CommutativeEv' filepath='/tmp/legendre/spack-stage/spack-stage-R_crTC/VTK-6.1.0/Parallel/Core/vtkCommunicator.cxx' line='90' column='1' visibility='default' binding='global' size-in-bits='64'>
          <!-- implicit parameter of type 'vtkCommunicatorLogicalAndClass*' -->
          <parameter type-id='e74273fd' is-artificial='yes'/>
          <!-- int -->
          <return type-id='95e97e5e'/>
        </function-decl>
      </member-function>
    </class-decl>
    <!-- class vtkCommunicatorBitwiseAndClass -->
    <class-decl name='vtkCommunicatorBitwiseAndClass' size-in-bits='64' visibility='default' filepath='/tmp/legendre/spack-stage/spack-stage-R_crTC/VTK-6.1.0/Parallel/Core/vtkCommunicator.cxx' line='92' column='1' id='5987e369'>
      <!-- class vtkCommunicator::Operation -->
      <base-class access='public' layout-offset-in-bits='0' type-id='d0b17aa0'/>
      <member-function access='private' vtable-offset='0'>
        <!-- void vtkCommunicatorBitwiseAndClass::Function(void*, void*, vtkIdType, int) -->
        <function-decl name='Function' mangled-name='_ZN30vtkCommunicatorBitwiseAndClass8FunctionEPKvPvxi' filepath='/tmp/legendre/spack-stage/spack-stage-R_crTC/VTK-6.1.0/Parallel/Core/vtkCommunicator.cxx' line='92' column='1' visibility='default' binding='global' size-in-bits='64'>
          <!-- implicit parameter of type 'vtkCommunicatorBitwiseAndClass*' -->
          <parameter type-id='b400eae1' is-artificial='yes'/>
          <!-- parameter of type 'void*' -->
          <parameter type-id='eaa32e2f'/>
          <!-- parameter of type 'void*' -->
          <parameter type-id='eaa32e2f'/>
          <!-- parameter of type 'typedef vtkIdType' -->
          <parameter type-id='7dc2ef22'/>
          <!-- parameter of type 'int' -->
          <parameter type-id='95e97e5e'/>
          <!-- void -->
          <return type-id='48b5725f'/>
        </function-decl>
      </member-function>
      <member-function access='private' vtable-offset='1'>
        <!-- int vtkCommunicatorBitwiseAndClass::Commutative() -->
        <function-decl name='Commutative' mangled-name='_ZN30vtkCommunicatorBitwiseAndClass11CommutativeEv' filepath='/tmp/legendre/spack-stage/spack-stage-R_crTC/VTK-6.1.0/Parallel/Core/vtkCommunicator.cxx' line='92' column='1' visibility='default' binding='global' size-in-bits='64'>
          <!-- implicit parameter of type 'vtkCommunicatorBitwiseAndClass*' -->
          <parameter type-id='b400eae1' is-artificial='yes'/>
          <!-- int -->
          <return type-id='95e97e5e'/>
        </function-decl>
      </member-function>
    </class-decl>
    <!-- class vtkCommunicatorLogicalOrClass -->
    <class-decl name='vtkCommunicatorLogicalOrClass' size-in-bits='64' visibility='default' filepath='/tmp/legendre/spack-stage/spack-stage-R_crTC/VTK-6.1.0/Parallel/Core/vtkCommunicator.cxx' line='94' column='1' id='31407eb9'>
      <!-- class vtkCommunicator::Operation -->
      <base-class access='public' layout-offset-in-bits='0' type-id='d0b17aa0'/>
      <member-function access='private' vtable-offset='0'>
        <!-- void vtkCommunicatorLogicalOrClass::Function(void*, void*, vtkIdType, int) -->
        <function-decl name='Function' mangled-name='_ZN29vtkCommunicatorLogicalOrClass8FunctionEPKvPvxi' filepath='/tmp/legendre/spack-stage/spack-stage-R_crTC/VTK-6.1.0/Parallel/Core/vtkCommunicator.cxx' line='94' column='1' visibility='default' binding='global' size-in-bits='64'>
          <!-- implicit parameter of type 'vtkCommunicatorLogicalOrClass*' -->
          <parameter type-id='8e412681' is-artificial='yes'/>
          <!-- parameter of type 'void*' -->
          <parameter type-id='eaa32e2f'/>
          <!-- parameter of type 'void*' -->
          <parameter type-id='eaa32e2f'/>
          <!-- parameter of type 'typedef vtkIdType' -->
          <parameter type-id='7dc2ef22'/>
          <!-- parameter of type 'int' -->
          <parameter type-id='95e97e5e'/>
          <!-- void -->
          <return type-id='48b5725f'/>
        </function-decl>
      </member-function>
      <member-function access='private' vtable-offset='1'>
        <!-- int vtkCommunicatorLogicalOrClass::Commutative() -->
        <function-decl name='Commutative' mangled-name='_ZN29vtkCommunicatorLogicalOrClass11CommutativeEv' filepath='/tmp/legendre/spack-stage/spack-stage-R_crTC/VTK-6.1.0/Parallel/Core/vtkCommunicator.cxx' line='94' column='1' visibility='default' binding='global' size-in-bits='64'>
          <!-- implicit parameter of type 'vtkCommunicatorLogicalOrClass*' -->
          <parameter type-id='8e412681' is-artificial='yes'/>
          <!-- int -->
          <return type-id='95e97e5e'/>
        </function-decl>
      </member-function>
    </class-decl>
    <!-- class vtkCommunicatorBitwiseOrClass -->
    <class-decl name='vtkCommunicatorBitwiseOrClass' size-in-bits='64' visibility='default' filepath='/tmp/legendre/spack-stage/spack-stage-R_crTC/VTK-6.1.0/Parallel/Core/vtkCommunicator.cxx' line='96' column='1' id='ef63cb15'>
      <!-- class vtkCommunicator::Operation -->
      <base-class access='public' layout-offset-in-bits='0' type-id='d0b17aa0'/>
      <member-function access='private' vtable-offset='0'>
        <!-- void vtkCommunicatorBitwiseOrClass::Function(void*, void*, vtkIdType, int) -->
        <function-decl name='Function' mangled-name='_ZN29vtkCommunicatorBitwiseOrClass8FunctionEPKvPvxi' filepath='/tmp/legendre/spack-stage/spack-stage-R_crTC/VTK-6.1.0/Parallel/Core/vtkCommunicator.cxx' line='96' column='1' visibility='default' binding='global' size-in-bits='64'>
          <!-- implicit parameter of type 'vtkCommunicatorBitwiseOrClass*' -->
          <parameter type-id='d93ffae5' is-artificial='yes'/>
          <!-- parameter of type 'void*' -->
          <parameter type-id='eaa32e2f'/>
          <!-- parameter of type 'void*' -->
          <parameter type-id='eaa32e2f'/>
          <!-- parameter of type 'typedef vtkIdType' -->
          <parameter type-id='7dc2ef22'/>
          <!-- parameter of type 'int' -->
          <parameter type-id='95e97e5e'/>
          <!-- void -->
          <return type-id='48b5725f'/>
        </function-decl>
      </member-function>
      <member-function access='private' vtable-offset='1'>
        <!-- int vtkCommunicatorBitwiseOrClass::Commutative() -->
        <function-decl name='Commutative' mangled-name='_ZN29vtkCommunicatorBitwiseOrClass11CommutativeEv' filepath='/tmp/legendre/spack-stage/spack-stage-R_crTC/VTK-6.1.0/Parallel/Core/vtkCommunicator.cxx' line='96' column='1' visibility='default' binding='global' size-in-bits='64'>
          <!-- implicit parameter of type 'vtkCommunicatorBitwiseOrClass*' -->
          <parameter type-id='d93ffae5' is-artificial='yes'/>
          <!-- int -->
          <return type-id='95e97e5e'/>
        </function-decl>
      </member-function>
    </class-decl>
    <!-- class vtkCommunicatorLogicalXorClass -->
    <class-decl name='vtkCommunicatorLogicalXorClass' size-in-bits='64' visibility='default' filepath='/tmp/legendre/spack-stage/spack-stage-R_crTC/VTK-6.1.0/Parallel/Core/vtkCommunicator.cxx' line='98' column='1' id='db81907d'>
      <!-- class vtkCommunicator::Operation -->
      <base-class access='public' layout-offset-in-bits='0' type-id='d0b17aa0'/>
      <member-function access='private' vtable-offset='0'>
        <!-- void vtkCommunicatorLogicalXorClass::Function(void*, void*, vtkIdType, int) -->
        <function-decl name='Function' mangled-name='_ZN30vtkCommunicatorLogicalXorClass8FunctionEPKvPvxi' filepath='/tmp/legendre/spack-stage/spack-stage-R_crTC/VTK-6.1.0/Parallel/Core/vtkCommunicator.cxx' line='98' column='1' visibility='default' binding='global' size-in-bits='64'>
          <!-- implicit parameter of type 'vtkCommunicatorLogicalXorClass*' -->
          <parameter type-id='0fadf1ed' is-artificial='yes'/>
          <!-- parameter of type 'void*' -->
          <parameter type-id='eaa32e2f'/>
          <!-- parameter of type 'void*' -->
          <parameter type-id='eaa32e2f'/>
          <!-- parameter of type 'typedef vtkIdType' -->
          <parameter type-id='7dc2ef22'/>
          <!-- parameter of type 'int' -->
          <parameter type-id='95e97e5e'/>
          <!-- void -->
          <return type-id='48b5725f'/>
        </function-decl>
      </member-function>
      <member-function access='private' vtable-offset='1'>
        <!-- int vtkCommunicatorLogicalXorClass::Commutative() -->
        <function-decl name='Commutative' mangled-name='_ZN30vtkCommunicatorLogicalXorClass11CommutativeEv' filepath='/tmp/legendre/spack-stage/spack-stage-R_crTC/VTK-6.1.0/Parallel/Core/vtkCommunicator.cxx' line='98' column='1' visibility='default' binding='global' size-in-bits='64'>
          <!-- implicit parameter of type 'vtkCommunicatorLogicalXorClass*' -->
          <parameter type-id='0fadf1ed' is-artificial='yes'/>
          <!-- int -->
          <return type-id='95e97e5e'/>
        </function-decl>
      </member-function>
    </class-decl>
    <!-- class vtkCommunicatorBitwiseXorClass -->
    <class-decl name='vtkCommunicatorBitwiseXorClass' size-in-bits='64' visibility='default' filepath='/tmp/legendre/spack-stage/spack-stage-R_crTC/VTK-6.1.0/Parallel/Core/vtkCommunicator.cxx' line='100' column='1' id='1532d331'>
      <!-- class vtkCommunicator::Operation -->
      <base-class access='public' layout-offset-in-bits='0' type-id='d0b17aa0'/>
      <member-function access='private' vtable-offset='0'>
        <!-- void vtkCommunicatorBitwiseXorClass::Function(void*, void*, vtkIdType, int) -->
        <function-decl name='Function' mangled-name='_ZN30vtkCommunicatorBitwiseXorClass8FunctionEPKvPvxi' filepath='/tmp/legendre/spack-stage/spack-stage-R_crTC/VTK-6.1.0/Parallel/Core/vtkCommunicator.cxx' line='100' column='1' visibility='default' binding='global' size-in-bits='64'>
          <!-- implicit parameter of type 'vtkCommunicatorBitwiseXorClass*' -->
          <parameter type-id='3a7c8459' is-artificial='yes'/>
          <!-- parameter of type 'void*' -->
          <parameter type-id='eaa32e2f'/>
          <!-- parameter of type 'void*' -->
          <parameter type-id='eaa32e2f'/>
          <!-- parameter of type 'typedef vtkIdType' -->
          <parameter type-id='7dc2ef22'/>
          <!-- parameter of type 'int' -->
          <parameter type-id='95e97e5e'/>
          <!-- void -->
          <return type-id='48b5725f'/>
        </function-decl>
      </member-function>
      <member-function access='private' vtable-offset='1'>
        <!-- int vtkCommunicatorBitwiseXorClass::Commutative() -->
        <function-decl name='Commutative' mangled-name='_ZN30vtkCommunicatorBitwiseXorClass11CommutativeEv' filepath='/tmp/legendre/spack-stage/spack-stage-R_crTC/VTK-6.1.0/Parallel/Core/vtkCommunicator.cxx' line='100' column='1' visibility='default' binding='global' size-in-bits='64'>
          <!-- implicit parameter of type 'vtkCommunicatorBitwiseXorClass*' -->
          <parameter type-id='3a7c8459' is-artificial='yes'/>
          <!-- int -->
          <return type-id='95e97e5e'/>
        </function-decl>
      </member-function>
    </class-decl>
    <!-- class vtkMultiProcessStream -->
    <class-decl name='vtkMultiProcessStream' size-in-bits='128' visibility='default' filepath='/tmp/legendre/spack-stage/spack-stage-R_crTC/VTK-6.1.0/Parallel/Core/vtkMultiProcessStream.h' line='35' column='1' id='71cb3696'>
      <member-type access='private'>
        <!-- struct vtkMultiProcessStream::vtkInternals -->
        <class-decl name='vtkInternals' size-in-bits='640' is-struct='yes' visibility='default' filepath='/tmp/legendre/spack-stage/spack-stage-R_crTC/VTK-6.1.0/Parallel/Core/vtkMultiProcessStream.cxx' line='23' column='1' id='a56ddd15'>
          <member-type access='public'>
            <!-- typedef std::deque<unsigned char, std::allocator<unsigned char> > vtkMultiProcessStream::vtkInternals::DataType -->
            <typedef-decl name='DataType' type-id='4ab2b28c' filepath='/tmp/legendre/spack-stage/spack-stage-R_crTC/VTK-6.1.0/Parallel/Core/vtkMultiProcessStream.cxx' line='25' column='1' id='34aee3ae'/>
          </member-type>
          <member-type access='public'>
            <!-- enum vtkMultiProcessStream::vtkInternals::Types -->
            <enum-decl name='Types' filepath='/tmp/legendre/spack-stage/spack-stage-R_crTC/VTK-6.1.0/Parallel/Core/vtkMultiProcessStream.cxx' line='28' column='1' id='0d49f9ab'>
              <underlying-type type-id='9cac1fee'/>
              <enumerator name='int32_value' value='0'/>
              <enumerator name='uint32_value' value='1'/>
              <enumerator name='char_value' value='2'/>
              <enumerator name='uchar_value' value='3'/>
              <enumerator name='double_value' value='4'/>
              <enumerator name='float_value' value='5'/>
              <enumerator name='string_value' value='6'/>
              <enumerator name='int64_value' value='7'/>
              <enumerator name='uint64_value' value='8'/>
              <enumerator name='stream_value' value='9'/>
            </enum-decl>
          </member-type>
          <data-member access='private' layout-offset-in-bits='0'>
            <!-- vtkMultiProcessStream::vtkInternals::DataType vtkMultiProcessStream::vtkInternals::Data -->
            <var-decl name='Data' type-id='34aee3ae' visibility='default' filepath='/tmp/legendre/spack-stage/spack-stage-R_crTC/VTK-6.1.0/Parallel/Core/vtkMultiProcessStream.cxx' line='26' column='1'/>
          </data-member>
          <member-function access='public'>
            <!-- void vtkMultiProcessStream::vtkInternals::Pop(unsigned char*, size_t) -->
            <function-decl name='Pop' mangled-name='_ZN21vtkMultiProcessStream12vtkInternals3PopEPhm' filepath='/tmp/legendre/spack-stage/spack-stage-R_crTC/VTK-6.1.0/Parallel/Core/vtkMultiProcessStream.cxx' line='50' column='1' visibility='default' binding='global' size-in-bits='64'>
              <!-- implicit parameter of type 'vtkMultiProcessStream::vtkInternals*' -->
              <parameter type-id='9e4cf7a5' is-artificial='yes'/>
              <!-- parameter of type 'unsigned char*' -->
              <parameter type-id='cf536864'/>
              <!-- parameter of type 'typedef size_t' -->
              <parameter type-id='b59d7dce'/>
              <!-- void -->
              <return type-id='48b5725f'/>
            </function-decl>
          </member-function>
          <member-function access='public'>
            <!-- void vtkMultiProcessStream::vtkInternals::Push(const unsigned char*, size_t) -->
            <function-decl name='Push' mangled-name='_ZN21vtkMultiProcessStream12vtkInternals4PushEPKhm' filepath='/tmp/legendre/spack-stage/spack-stage-R_crTC/VTK-6.1.0/Parallel/Core/vtkMultiProcessStream.cxx' line='42' column='1' visibility='default' binding='global' size-in-bits='64'>
              <!-- implicit parameter of type 'vtkMultiProcessStream::vtkInternals*' -->
              <parameter type-id='9e4cf7a5' is-artificial='yes'/>
              <!-- parameter of type 'const unsigned char*' -->
              <parameter type-id='354f7eb9'/>
              <!-- parameter of type 'typedef size_t' -->
              <parameter type-id='b59d7dce'/>
              <!-- void -->
              <return type-id='48b5725f'/>
            </function-decl>
          </member-function>
          <member-function access='public'>
            <!-- void vtkMultiProcessStream::vtkInternals::SwapBytes() -->
            <function-decl name='SwapBytes' mangled-name='_ZN21vtkMultiProcessStream12vtkInternals9SwapBytesEv' filepath='/tmp/legendre/spack-stage/spack-stage-R_crTC/VTK-6.1.0/Parallel/Core/vtkMultiProcessStream.cxx' line='59' column='1' visibility='default' binding='global' size-in-bits='64'>
              <!-- implicit parameter of type 'vtkMultiProcessStream::vtkInternals*' -->
              <parameter type-id='9e4cf7a5' is-artificial='yes'/>
              <!-- void -->
              <return type-id='48b5725f'/>
            </function-decl>
          </member-function>
        </class-decl>
      </member-type>
      <data-member access='private' layout-offset-in-bits='0'>
        <!-- vtkMultiProcessStream::vtkInternals* vtkMultiProcessStream::Internals -->
        <var-decl name='Internals' type-id='9e4cf7a5' visibility='default' filepath='/tmp/legendre/spack-stage/spack-stage-R_crTC/VTK-6.1.0/Parallel/Core/vtkMultiProcessStream.h' line='123' column='1'/>
      </data-member>
      <data-member access='private' layout-offset-in-bits='64'>
        <!-- unsigned char vtkMultiProcessStream::Endianness -->
        <var-decl name='Endianness' type-id='002ac4a6' visibility='default' filepath='/tmp/legendre/spack-stage/spack-stage-R_crTC/VTK-6.1.0/Parallel/Core/vtkMultiProcessStream.h' line='124' column='1'/>
      </data-member>
      <member-function access='private' constructor='yes'>
        <!-- vtkMultiProcessStream::vtkMultiProcessStream() -->
        <function-decl name='vtkMultiProcessStream' mangled-name='_ZN21vtkMultiProcessStreamC1Ev' filepath='/tmp/legendre/spack-stage/spack-stage-R_crTC/VTK-6.1.0/Parallel/Core/vtkMultiProcessStream.h' line='37' column='1' visibility='default' binding='global' size-in-bits='64' elf-symbol-id='_ZN21vtkMultiProcessStreamC1Ev'>
          <!-- implicit parameter of type 'vtkMultiProcessStream*' -->
          <parameter type-id='c0a2a39c' is-artificial='yes'/>
          <!-- void -->
          <return type-id='48b5725f'/>
        </function-decl>
      </member-function>
      <member-function access='private' constructor='yes'>
        <!-- vtkMultiProcessStream::vtkMultiProcessStream(const vtkMultiProcessStream&) -->
        <function-decl name='vtkMultiProcessStream' mangled-name='_ZN21vtkMultiProcessStreamC2ERKS_' filepath='/tmp/legendre/spack-stage/spack-stage-R_crTC/VTK-6.1.0/Parallel/Core/vtkMultiProcessStream.h' line='38' column='1' visibility='default' binding='global' size-in-bits='64' elf-symbol-id='_ZN21vtkMultiProcessStreamC2ERKS_'>
          <!-- implicit parameter of type 'vtkMultiProcessStream*' -->
          <parameter type-id='c0a2a39c' is-artificial='yes'/>
          <!-- parameter of type 'const vtkMultiProcessStream&' -->
          <parameter type-id='7306a979'/>
          <!-- void -->
          <return type-id='48b5725f'/>
        </function-decl>
      </member-function>
      <member-function access='private' destructor='yes'>
        <!-- vtkMultiProcessStream::~vtkMultiProcessStream(int) -->
        <function-decl name='~vtkMultiProcessStream' mangled-name='_ZN21vtkMultiProcessStreamD1Ev' filepath='/tmp/legendre/spack-stage/spack-stage-R_crTC/VTK-6.1.0/Parallel/Core/vtkMultiProcessStream.h' line='39' column='1' visibility='default' binding='global' size-in-bits='64' elf-symbol-id='_ZN21vtkMultiProcessStreamD1Ev'>
          <!-- implicit parameter of type 'vtkMultiProcessStream*' -->
          <parameter type-id='c0a2a39c' is-artificial='yes'/>
          <!-- artificial parameter of type 'int' -->
          <parameter type-id='95e97e5e' is-artificial='yes'/>
          <!-- void -->
          <return type-id='48b5725f'/>
        </function-decl>
      </member-function>
      <member-function access='private'>
        <!-- bool vtkMultiProcessStream::Empty() -->
        <function-decl name='Empty' mangled-name='_ZN21vtkMultiProcessStream5EmptyEv' filepath='/tmp/legendre/spack-stage/spack-stage-R_crTC/VTK-6.1.0/Parallel/Core/vtkMultiProcessStream.h' line='111' column='1' visibility='default' binding='global' size-in-bits='64' elf-symbol-id='_ZN21vtkMultiProcessStream5EmptyEv'>
          <!-- implicit parameter of type 'vtkMultiProcessStream*' -->
          <parameter type-id='c0a2a39c' is-artificial='yes'/>
          <!-- bool -->
          <return type-id='c894953d'/>
        </function-decl>
      </member-function>
      <member-function access='private'>
        <!-- void vtkMultiProcessStream::Reset() -->
        <function-decl name='Reset' mangled-name='_ZN21vtkMultiProcessStream5ResetEv' filepath='/tmp/legendre/spack-stage/spack-stage-R_crTC/VTK-6.1.0/Parallel/Core/vtkMultiProcessStream.h' line='97' column='1' visibility='default' binding='global' size-in-bits='64' elf-symbol-id='_ZN21vtkMultiProcessStream5ResetEv'>
          <!-- implicit parameter of type 'vtkMultiProcessStream*' -->
          <parameter type-id='c0a2a39c' is-artificial='yes'/>
          <!-- void -->
          <return type-id='48b5725f'/>
        </function-decl>
      </member-function>
      <member-function access='private'>
        <!-- int vtkMultiProcessStream::Size() -->
        <function-decl name='Size' mangled-name='_ZN21vtkMultiProcessStream4SizeEv' filepath='/tmp/legendre/spack-stage/spack-stage-R_crTC/VTK-6.1.0/Parallel/Core/vtkMultiProcessStream.h' line='101' column='1' visibility='default' binding='global' size-in-bits='64' elf-symbol-id='_ZN21vtkMultiProcessStream4SizeEv'>
          <!-- implicit parameter of type 'vtkMultiProcessStream*' -->
          <parameter type-id='c0a2a39c' is-artificial='yes'/>
          <!-- int -->
          <return type-id='95e97e5e'/>
        </function-decl>
      </member-function>
      <member-function access='private'>
        <!-- void vtkMultiProcessStream::GetRawData(unsigned char*&, unsigned int&) -->
        <function-decl name='GetRawData' mangled-name='_ZN21vtkMultiProcessStream10GetRawDataERPhRj' filepath='/tmp/legendre/spack-stage/spack-stage-R_crTC/VTK-6.1.0/Parallel/Core/vtkMultiProcessStream.h' line='117' column='1' visibility='default' binding='global' size-in-bits='64' elf-symbol-id='_ZN21vtkMultiProcessStream10GetRawDataERPhRj'>
          <!-- implicit parameter of type 'vtkMultiProcessStream*' -->
          <parameter type-id='c0a2a39c' is-artificial='yes'/>
          <!-- parameter of type 'unsigned char*&' -->
          <parameter type-id='a24d1fe6'/>
          <!-- parameter of type 'unsigned int&' -->
          <parameter type-id='8c787cb7'/>
          <!-- void -->
          <return type-id='48b5725f'/>
        </function-decl>
      </member-function>
      <member-function access='private'>
        <!-- void vtkMultiProcessStream::GetRawData(std::vector<unsigned char, std::allocator<unsigned char> >&) -->
        <function-decl name='GetRawData' mangled-name='_ZNK21vtkMultiProcessStream10GetRawDataERSt6vectorIhSaIhEE' filepath='/tmp/legendre/spack-stage/spack-stage-R_crTC/VTK-6.1.0/Parallel/Core/vtkMultiProcessStream.h' line='116' column='1' visibility='default' binding='global' size-in-bits='64' elf-symbol-id='_ZNK21vtkMultiProcessStream10GetRawDataERSt6vectorIhSaIhEE'>
          <!-- implicit parameter of type 'const vtkMultiProcessStream*' -->
          <parameter type-id='7f06bc5d' is-artificial='yes'/>
          <!-- parameter of type 'std::vector<unsigned char, std::allocator<unsigned char> >&' -->
          <parameter type-id='7512b6ad'/>
          <!-- void -->
          <return type-id='48b5725f'/>
        </function-decl>
      </member-function>
      <member-function access='private'>
        <!-- vtkMultiProcessStream& vtkMultiProcessStream::operator>>(unsigned int&) -->
        <function-decl name='operator&gt;&gt;' mangled-name='_ZN21vtkMultiProcessStreamrsERj' filepath='/tmp/legendre/spack-stage/spack-stage-R_crTC/VTK-6.1.0/Parallel/Core/vtkMultiProcessStream.h' line='61' column='1' visibility='default' binding='global' size-in-bits='64' elf-symbol-id='_ZN21vtkMultiProcessStreamrsERj'>
          <!-- implicit parameter of type 'vtkMultiProcessStream*' -->
          <parameter type-id='c0a2a39c' is-artificial='yes'/>
          <!-- parameter of type 'unsigned int&' -->
          <parameter type-id='8c787cb7'/>
          <!-- vtkMultiProcessStream& -->
          <return type-id='c4a2a9e8'/>
        </function-decl>
      </member-function>
      <member-function access='private'>
        <!-- vtkMultiProcessStream& vtkMultiProcessStream::operator>>(char&) -->
        <function-decl name='operator&gt;&gt;' mangled-name='_ZN21vtkMultiProcessStreamrsERc' filepath='/tmp/legendre/spack-stage/spack-stage-R_crTC/VTK-6.1.0/Parallel/Core/vtkMultiProcessStream.h' line='60' column='1' visibility='default' binding='global' size-in-bits='64' elf-symbol-id='_ZN21vtkMultiProcessStreamrsERc'>
          <!-- implicit parameter of type 'vtkMultiProcessStream*' -->
          <parameter type-id='c0a2a39c' is-artificial='yes'/>
          <!-- parameter of type 'char&' -->
          <parameter type-id='2aa915e1'/>
          <!-- vtkMultiProcessStream& -->
          <return type-id='c4a2a9e8'/>
        </function-decl>
      </member-function>
      <member-function access='private'>
        <!-- vtkMultiProcessStream& vtkMultiProcessStream::operator>>(vtkTypeUInt64&) -->
        <function-decl name='operator&gt;&gt;' mangled-name='_ZN21vtkMultiProcessStreamrsERy' filepath='/tmp/legendre/spack-stage/spack-stage-R_crTC/VTK-6.1.0/Parallel/Core/vtkMultiProcessStream.h' line='64' column='1' visibility='default' binding='global' size-in-bits='64' elf-symbol-id='_ZN21vtkMultiProcessStreamrsERy'>
          <!-- implicit parameter of type 'vtkMultiProcessStream*' -->
          <parameter type-id='c0a2a39c' is-artificial='yes'/>
          <!-- parameter of type 'vtkTypeUInt64&' -->
          <parameter type-id='be4073d0'/>
          <!-- vtkMultiProcessStream& -->
          <return type-id='c4a2a9e8'/>
        </function-decl>
      </member-function>
      <member-function access='private'>
        <!-- vtkMultiProcessStream& vtkMultiProcessStream::operator>>(float&) -->
        <function-decl name='operator&gt;&gt;' mangled-name='_ZN21vtkMultiProcessStreamrsERf' filepath='/tmp/legendre/spack-stage/spack-stage-R_crTC/VTK-6.1.0/Parallel/Core/vtkMultiProcessStream.h' line='58' column='1' visibility='default' binding='global' size-in-bits='64' elf-symbol-id='_ZN21vtkMultiProcessStreamrsERf'>
          <!-- implicit parameter of type 'vtkMultiProcessStream*' -->
          <parameter type-id='c0a2a39c' is-artificial='yes'/>
          <!-- parameter of type 'float&' -->
          <parameter type-id='2a1f6799'/>
          <!-- vtkMultiProcessStream& -->
          <return type-id='c4a2a9e8'/>
        </function-decl>
      </member-function>
      <member-function access='private'>
        <!-- vtkMultiProcessStream& vtkMultiProcessStream::operator>>(unsigned char&) -->
        <function-decl name='operator&gt;&gt;' mangled-name='_ZN21vtkMultiProcessStreamrsERh' filepath='/tmp/legendre/spack-stage/spack-stage-R_crTC/VTK-6.1.0/Parallel/Core/vtkMultiProcessStream.h' line='62' column='1' visibility='default' binding='global' size-in-bits='64' elf-symbol-id='_ZN21vtkMultiProcessStreamrsERh'>
          <!-- implicit parameter of type 'vtkMultiProcessStream*' -->
          <parameter type-id='c0a2a39c' is-artificial='yes'/>
          <!-- parameter of type 'unsigned char&' -->
          <parameter type-id='c3535580'/>
          <!-- vtkMultiProcessStream& -->
          <return type-id='c4a2a9e8'/>
        </function-decl>
      </member-function>
      <member-function access='private'>
        <!-- vtkMultiProcessStream& vtkMultiProcessStream::operator>>(std::string&) -->
        <function-decl name='operator&gt;&gt;' mangled-name='_ZN21vtkMultiProcessStreamrsERSs' filepath='/tmp/legendre/spack-stage/spack-stage-R_crTC/VTK-6.1.0/Parallel/Core/vtkMultiProcessStream.h' line='65' column='1' visibility='default' binding='global' size-in-bits='64' elf-symbol-id='_ZN21vtkMultiProcessStreamrsERSs'>
          <!-- implicit parameter of type 'vtkMultiProcessStream*' -->
          <parameter type-id='c0a2a39c' is-artificial='yes'/>
          <!-- parameter of type 'std::string&' -->
          <parameter type-id='0f5b8043'/>
          <!-- vtkMultiProcessStream& -->
          <return type-id='c4a2a9e8'/>
        </function-decl>
      </member-function>
      <member-function access='private'>
        <!-- vtkMultiProcessStream& vtkMultiProcessStream::operator>>(double&) -->
        <function-decl name='operator&gt;&gt;' mangled-name='_ZN21vtkMultiProcessStreamrsERd' filepath='/tmp/legendre/spack-stage/spack-stage-R_crTC/VTK-6.1.0/Parallel/Core/vtkMultiProcessStream.h' line='57' column='1' visibility='default' binding='global' size-in-bits='64' elf-symbol-id='_ZN21vtkMultiProcessStreamrsERd'>
          <!-- implicit parameter of type 'vtkMultiProcessStream*' -->
          <parameter type-id='c0a2a39c' is-artificial='yes'/>
          <!-- parameter of type 'double&' -->
          <parameter type-id='8008e56a'/>
          <!-- vtkMultiProcessStream& -->
          <return type-id='c4a2a9e8'/>
        </function-decl>
      </member-function>
      <member-function access='private'>
        <!-- void vtkMultiProcessStream::Pop(int*&, unsigned int&) -->
        <function-decl name='Pop' mangled-name='_ZN21vtkMultiProcessStream3PopERPiRj' filepath='/tmp/legendre/spack-stage/spack-stage-R_crTC/VTK-6.1.0/Parallel/Core/vtkMultiProcessStream.h' line='87' column='1' visibility='default' binding='global' size-in-bits='64' elf-symbol-id='_ZN21vtkMultiProcessStream3PopERPiRj'>
          <!-- implicit parameter of type 'vtkMultiProcessStream*' -->
          <parameter type-id='c0a2a39c' is-artificial='yes'/>
          <!-- parameter of type 'int*&' -->
          <parameter type-id='15f054ce'/>
          <!-- parameter of type 'unsigned int&' -->
          <parameter type-id='8c787cb7'/>
          <!-- void -->
          <return type-id='48b5725f'/>
        </function-decl>
      </member-function>
      <member-function access='private'>
        <!-- void vtkMultiProcessStream::Pop(vtkTypeInt64*&, unsigned int&) -->
        <function-decl name='Pop' mangled-name='_ZN21vtkMultiProcessStream3PopERPxRj' filepath='/tmp/legendre/spack-stage/spack-stage-R_crTC/VTK-6.1.0/Parallel/Core/vtkMultiProcessStream.h' line='91' column='1' visibility='default' binding='global' size-in-bits='64' elf-symbol-id='_ZN21vtkMultiProcessStream3PopERPxRj'>
          <!-- implicit parameter of type 'vtkMultiProcessStream*' -->
          <parameter type-id='c0a2a39c' is-artificial='yes'/>
          <!-- parameter of type 'vtkTypeInt64*&' -->
          <parameter type-id='5b1d15b3'/>
          <!-- parameter of type 'unsigned int&' -->
          <parameter type-id='8c787cb7'/>
          <!-- void -->
          <return type-id='48b5725f'/>
        </function-decl>
      </member-function>
      <member-function access='private'>
        <!-- vtkMultiProcessStream& vtkMultiProcessStream::operator>>(vtkTypeInt64&) -->
        <function-decl name='operator&gt;&gt;' mangled-name='_ZN21vtkMultiProcessStreamrsERx' filepath='/tmp/legendre/spack-stage/spack-stage-R_crTC/VTK-6.1.0/Parallel/Core/vtkMultiProcessStream.h' line='63' column='1' visibility='default' binding='global' size-in-bits='64' elf-symbol-id='_ZN21vtkMultiProcessStreamrsERx'>
          <!-- implicit parameter of type 'vtkMultiProcessStream*' -->
          <parameter type-id='c0a2a39c' is-artificial='yes'/>
          <!-- parameter of type 'vtkTypeInt64&' -->
          <parameter type-id='20739c63'/>
          <!-- vtkMultiProcessStream& -->
          <return type-id='c4a2a9e8'/>
        </function-decl>
      </member-function>
      <member-function access='private'>
        <!-- vtkMultiProcessStream& vtkMultiProcessStream::operator>>(int&) -->
        <function-decl name='operator&gt;&gt;' mangled-name='_ZN21vtkMultiProcessStreamrsERi' filepath='/tmp/legendre/spack-stage/spack-stage-R_crTC/VTK-6.1.0/Parallel/Core/vtkMultiProcessStream.h' line='59' column='1' visibility='default' binding='global' size-in-bits='64' elf-symbol-id='_ZN21vtkMultiProcessStreamrsERi'>
          <!-- implicit parameter of type 'vtkMultiProcessStream*' -->
          <parameter type-id='c0a2a39c' is-artificial='yes'/>
          <!-- parameter of type 'int&' -->
          <parameter type-id='769216e8'/>
          <!-- vtkMultiProcessStream& -->
          <return type-id='c4a2a9e8'/>
        </function-decl>
      </member-function>
      <member-function access='private'>
        <!-- void vtkMultiProcessStream::Pop(float*&, unsigned int&) -->
        <function-decl name='Pop' mangled-name='_ZN21vtkMultiProcessStream3PopERPfRj' filepath='/tmp/legendre/spack-stage/spack-stage-R_crTC/VTK-6.1.0/Parallel/Core/vtkMultiProcessStream.h' line='86' column='1' visibility='default' binding='global' size-in-bits='64' elf-symbol-id='_ZN21vtkMultiProcessStream3PopERPfRj'>
          <!-- implicit parameter of type 'vtkMultiProcessStream*' -->
          <parameter type-id='c0a2a39c' is-artificial='yes'/>
          <!-- parameter of type 'float*&' -->
          <parameter type-id='8e8d9d41'/>
          <!-- parameter of type 'unsigned int&' -->
          <parameter type-id='8c787cb7'/>
          <!-- void -->
          <return type-id='48b5725f'/>
        </function-decl>
      </member-function>
      <member-function access='private'>
        <!-- void vtkMultiProcessStream::Pop(vtkTypeUInt64*&, unsigned int&) -->
        <function-decl name='Pop' mangled-name='_ZN21vtkMultiProcessStream3PopERPyRj' filepath='/tmp/legendre/spack-stage/spack-stage-R_crTC/VTK-6.1.0/Parallel/Core/vtkMultiProcessStream.h' line='92' column='1' visibility='default' binding='global' size-in-bits='64' elf-symbol-id='_ZN21vtkMultiProcessStream3PopERPyRj'>
          <!-- implicit parameter of type 'vtkMultiProcessStream*' -->
          <parameter type-id='c0a2a39c' is-artificial='yes'/>
          <!-- parameter of type 'vtkTypeUInt64*&' -->
          <parameter type-id='f593d7d6'/>
          <!-- parameter of type 'unsigned int&' -->
          <parameter type-id='8c787cb7'/>
          <!-- void -->
          <return type-id='48b5725f'/>
        </function-decl>
      </member-function>
      <member-function access='private'>
        <!-- void vtkMultiProcessStream::Pop(double*&, unsigned int&) -->
        <function-decl name='Pop' mangled-name='_ZN21vtkMultiProcessStream3PopERPdRj' filepath='/tmp/legendre/spack-stage/spack-stage-R_crTC/VTK-6.1.0/Parallel/Core/vtkMultiProcessStream.h' line='85' column='1' visibility='default' binding='global' size-in-bits='64' elf-symbol-id='_ZN21vtkMultiProcessStream3PopERPdRj'>
          <!-- implicit parameter of type 'vtkMultiProcessStream*' -->
          <parameter type-id='c0a2a39c' is-artificial='yes'/>
          <!-- parameter of type 'double*&' -->
          <parameter type-id='49e391e0'/>
          <!-- parameter of type 'unsigned int&' -->
          <parameter type-id='8c787cb7'/>
          <!-- void -->
          <return type-id='48b5725f'/>
        </function-decl>
      </member-function>
      <member-function access='private'>
        <!-- void vtkMultiProcessStream::Pop(unsigned char*&, unsigned int&) -->
        <function-decl name='Pop' mangled-name='_ZN21vtkMultiProcessStream3PopERPhRj' filepath='/tmp/legendre/spack-stage/spack-stage-R_crTC/VTK-6.1.0/Parallel/Core/vtkMultiProcessStream.h' line='90' column='1' visibility='default' binding='global' size-in-bits='64' elf-symbol-id='_ZN21vtkMultiProcessStream3PopERPhRj'>
          <!-- implicit parameter of type 'vtkMultiProcessStream*' -->
          <parameter type-id='c0a2a39c' is-artificial='yes'/>
          <!-- parameter of type 'unsigned char*&' -->
          <parameter type-id='a24d1fe6'/>
          <!-- parameter of type 'unsigned int&' -->
          <parameter type-id='8c787cb7'/>
          <!-- void -->
          <return type-id='48b5725f'/>
        </function-decl>
      </member-function>
      <member-function access='private'>
        <!-- void vtkMultiProcessStream::Pop(char*&, unsigned int&) -->
        <function-decl name='Pop' mangled-name='_ZN21vtkMultiProcessStream3PopERPcRj' filepath='/tmp/legendre/spack-stage/spack-stage-R_crTC/VTK-6.1.0/Parallel/Core/vtkMultiProcessStream.h' line='88' column='1' visibility='default' binding='global' size-in-bits='64' elf-symbol-id='_ZN21vtkMultiProcessStream3PopERPcRj'>
          <!-- implicit parameter of type 'vtkMultiProcessStream*' -->
          <parameter type-id='c0a2a39c' is-artificial='yes'/>
          <!-- parameter of type 'char*&' -->
          <parameter type-id='8f23b6c9'/>
          <!-- parameter of type 'unsigned int&' -->
          <parameter type-id='8c787cb7'/>
          <!-- void -->
          <return type-id='48b5725f'/>
        </function-decl>
      </member-function>
      <member-function access='private'>
        <!-- void vtkMultiProcessStream::Pop(unsigned int*&, unsigned int&) -->
        <function-decl name='Pop' mangled-name='_ZN21vtkMultiProcessStream3PopERPjRj' filepath='/tmp/legendre/spack-stage/spack-stage-R_crTC/VTK-6.1.0/Parallel/Core/vtkMultiProcessStream.h' line='89' column='1' visibility='default' binding='global' size-in-bits='64' elf-symbol-id='_ZN21vtkMultiProcessStream3PopERPjRj'>
          <!-- implicit parameter of type 'vtkMultiProcessStream*' -->
          <parameter type-id='c0a2a39c' is-artificial='yes'/>
          <!-- parameter of type 'unsigned int*&' -->
          <parameter type-id='328eccaf'/>
          <!-- parameter of type 'unsigned int&' -->
          <parameter type-id='8c787cb7'/>
          <!-- void -->
          <return type-id='48b5725f'/>
        </function-decl>
      </member-function>
      <member-function access='private'>
        <!-- vtkMultiProcessStream& vtkMultiProcessStream::operator<<(const std::string&) -->
        <function-decl name='operator&lt;&lt;' mangled-name='_ZN21vtkMultiProcessStreamlsERKSs' filepath='/tmp/legendre/spack-stage/spack-stage-R_crTC/VTK-6.1.0/Parallel/Core/vtkMultiProcessStream.h' line='52' column='1' visibility='default' binding='global' size-in-bits='64' elf-symbol-id='_ZN21vtkMultiProcessStreamlsERKSs'>
          <!-- implicit parameter of type 'vtkMultiProcessStream*' -->
          <parameter type-id='c0a2a39c' is-artificial='yes'/>
          <!-- parameter of type 'const std::string&' -->
          <parameter type-id='13a9aa92'/>
          <!-- vtkMultiProcessStream& -->
          <return type-id='c4a2a9e8'/>
        </function-decl>
      </member-function>
      <member-function access='private'>
        <!-- vtkMultiProcessStream& vtkMultiProcessStream::operator<<(float) -->
        <function-decl name='operator&lt;&lt;' mangled-name='_ZN21vtkMultiProcessStreamlsEf' filepath='/tmp/legendre/spack-stage/spack-stage-R_crTC/VTK-6.1.0/Parallel/Core/vtkMultiProcessStream.h' line='45' column='1' visibility='default' binding='global' size-in-bits='64' elf-symbol-id='_ZN21vtkMultiProcessStreamlsEf'>
          <!-- implicit parameter of type 'vtkMultiProcessStream*' -->
          <parameter type-id='c0a2a39c' is-artificial='yes'/>
          <!-- parameter of type 'float' -->
          <parameter type-id='a6c45d85'/>
          <!-- vtkMultiProcessStream& -->
          <return type-id='c4a2a9e8'/>
        </function-decl>
      </member-function>
      <member-function access='private'>
        <!-- vtkMultiProcessStream& vtkMultiProcessStream::operator<<(unsigned char) -->
        <function-decl name='operator&lt;&lt;' mangled-name='_ZN21vtkMultiProcessStreamlsEh' filepath='/tmp/legendre/spack-stage/spack-stage-R_crTC/VTK-6.1.0/Parallel/Core/vtkMultiProcessStream.h' line='49' column='1' visibility='default' binding='global' size-in-bits='64' elf-symbol-id='_ZN21vtkMultiProcessStreamlsEh'>
          <!-- implicit parameter of type 'vtkMultiProcessStream*' -->
          <parameter type-id='c0a2a39c' is-artificial='yes'/>
          <!-- parameter of type 'unsigned char' -->
          <parameter type-id='002ac4a6'/>
          <!-- vtkMultiProcessStream& -->
          <return type-id='c4a2a9e8'/>
        </function-decl>
      </member-function>
      <member-function access='private'>
        <!-- vtkMultiProcessStream& vtkMultiProcessStream::operator<<(const vtkMultiProcessStream&) -->
        <function-decl name='operator&lt;&lt;' mangled-name='_ZN21vtkMultiProcessStreamlsERKS_' filepath='/tmp/legendre/spack-stage/spack-stage-R_crTC/VTK-6.1.0/Parallel/Core/vtkMultiProcessStream.h' line='53' column='1' visibility='default' binding='global' size-in-bits='64' elf-symbol-id='_ZN21vtkMultiProcessStreamlsERKS_'>
          <!-- implicit parameter of type 'vtkMultiProcessStream*' -->
          <parameter type-id='c0a2a39c' is-artificial='yes'/>
          <!-- parameter of type 'const vtkMultiProcessStream&' -->
          <parameter type-id='7306a979'/>
          <!-- vtkMultiProcessStream& -->
          <return type-id='c4a2a9e8'/>
        </function-decl>
      </member-function>
      <member-function access='private'>
        <!-- void vtkMultiProcessStream::Push(double*, unsigned int) -->
        <function-decl name='Push' mangled-name='_ZN21vtkMultiProcessStream4PushEPdj' filepath='/tmp/legendre/spack-stage/spack-stage-R_crTC/VTK-6.1.0/Parallel/Core/vtkMultiProcessStream.h' line='70' column='1' visibility='default' binding='global' size-in-bits='64' elf-symbol-id='_ZN21vtkMultiProcessStream4PushEPdj'>
          <!-- implicit parameter of type 'vtkMultiProcessStream*' -->
          <parameter type-id='c0a2a39c' is-artificial='yes'/>
          <!-- parameter of type 'double*' -->
          <parameter type-id='7408d286'/>
          <!-- parameter of type 'unsigned int' -->
          <parameter type-id='f0981eeb'/>
          <!-- void -->
          <return type-id='48b5725f'/>
        </function-decl>
      </member-function>
      <member-function access='private'>
        <!-- vtkMultiProcessStream& vtkMultiProcessStream::operator<<(vtkTypeUInt64) -->
        <function-decl name='operator&lt;&lt;' mangled-name='_ZN21vtkMultiProcessStreamlsEy' filepath='/tmp/legendre/spack-stage/spack-stage-R_crTC/VTK-6.1.0/Parallel/Core/vtkMultiProcessStream.h' line='51' column='1' visibility='default' binding='global' size-in-bits='64' elf-symbol-id='_ZN21vtkMultiProcessStreamlsEy'>
          <!-- implicit parameter of type 'vtkMultiProcessStream*' -->
          <parameter type-id='c0a2a39c' is-artificial='yes'/>
          <!-- parameter of type 'typedef vtkTypeUInt64' -->
          <parameter type-id='6be9ba65'/>
          <!-- vtkMultiProcessStream& -->
          <return type-id='c4a2a9e8'/>
        </function-decl>
      </member-function>
      <member-function access='private'>
        <!-- void vtkMultiProcessStream::SetRawData(const unsigned char*, unsigned int) -->
        <function-decl name='SetRawData' mangled-name='_ZN21vtkMultiProcessStream10SetRawDataEPKhj' filepath='/tmp/legendre/spack-stage/spack-stage-R_crTC/VTK-6.1.0/Parallel/Core/vtkMultiProcessStream.h' line='119' column='1' visibility='default' binding='global' size-in-bits='64' elf-symbol-id='_ZN21vtkMultiProcessStream10SetRawDataEPKhj'>
          <!-- implicit parameter of type 'vtkMultiProcessStream*' -->
          <parameter type-id='c0a2a39c' is-artificial='yes'/>
          <!-- parameter of type 'const unsigned char*' -->
          <parameter type-id='354f7eb9'/>
          <!-- parameter of type 'unsigned int' -->
          <parameter type-id='f0981eeb'/>
          <!-- void -->
          <return type-id='48b5725f'/>
        </function-decl>
      </member-function>
      <member-function access='private'>
        <!-- void vtkMultiProcessStream::SetRawData(const std::vector<unsigned char, std::allocator<unsigned char> >&) -->
        <function-decl name='SetRawData' mangled-name='_ZN21vtkMultiProcessStream10SetRawDataERKSt6vectorIhSaIhEE' filepath='/tmp/legendre/spack-stage/spack-stage-R_crTC/VTK-6.1.0/Parallel/Core/vtkMultiProcessStream.h' line='118' column='1' visibility='default' binding='global' size-in-bits='64' elf-symbol-id='_ZN21vtkMultiProcessStream10SetRawDataERKSt6vectorIhSaIhEE'>
          <!-- implicit parameter of type 'vtkMultiProcessStream*' -->
          <parameter type-id='c0a2a39c' is-artificial='yes'/>
          <!-- parameter of type 'const std::vector<unsigned char, std::allocator<unsigned char> >&' -->
          <parameter type-id='2acaabc2'/>
          <!-- void -->
          <return type-id='48b5725f'/>
        </function-decl>
      </member-function>
      <member-function access='private'>
        <!-- vtkMultiProcessStream& vtkMultiProcessStream::operator=(const vtkMultiProcessStream&) -->
        <function-decl name='operator=' mangled-name='_ZN21vtkMultiProcessStreamaSERKS_' filepath='/tmp/legendre/spack-stage/spack-stage-R_crTC/VTK-6.1.0/Parallel/Core/vtkMultiProcessStream.h' line='40' column='1' visibility='default' binding='global' size-in-bits='64' elf-symbol-id='_ZN21vtkMultiProcessStreamaSERKS_'>
          <!-- implicit parameter of type 'vtkMultiProcessStream*' -->
          <parameter type-id='c0a2a39c' is-artificial='yes'/>
          <!-- parameter of type 'const vtkMultiProcessStream&' -->
          <parameter type-id='7306a979'/>
          <!-- vtkMultiProcessStream& -->
          <return type-id='c4a2a9e8'/>
        </function-decl>
      </member-function>
      <member-function access='private'>
        <!-- vtkMultiProcessStream& vtkMultiProcessStream::operator<<(char) -->
        <function-decl name='operator&lt;&lt;' mangled-name='_ZN21vtkMultiProcessStreamlsEc' filepath='/tmp/legendre/spack-stage/spack-stage-R_crTC/VTK-6.1.0/Parallel/Core/vtkMultiProcessStream.h' line='47' column='1' visibility='default' binding='global' size-in-bits='64' elf-symbol-id='_ZN21vtkMultiProcessStreamlsEc'>
          <!-- implicit parameter of type 'vtkMultiProcessStream*' -->
          <parameter type-id='c0a2a39c' is-artificial='yes'/>
          <!-- parameter of type 'char' -->
          <parameter type-id='a84c031d'/>
          <!-- vtkMultiProcessStream& -->
          <return type-id='c4a2a9e8'/>
        </function-decl>
      </member-function>
      <member-function access='private'>
        <!-- void vtkMultiProcessStream::Push(unsigned int*, unsigned int) -->
        <function-decl name='Push' mangled-name='_ZN21vtkMultiProcessStream4PushEPjj' filepath='/tmp/legendre/spack-stage/spack-stage-R_crTC/VTK-6.1.0/Parallel/Core/vtkMultiProcessStream.h' line='74' column='1' visibility='default' binding='global' size-in-bits='64' elf-symbol-id='_ZN21vtkMultiProcessStream4PushEPjj'>
          <!-- implicit parameter of type 'vtkMultiProcessStream*' -->
          <parameter type-id='c0a2a39c' is-artificial='yes'/>
          <!-- parameter of type 'unsigned int*' -->
          <parameter type-id='807869d3'/>
          <!-- parameter of type 'unsigned int' -->
          <parameter type-id='f0981eeb'/>
          <!-- void -->
          <return type-id='48b5725f'/>
        </function-decl>
      </member-function>
      <member-function access='private'>
        <!-- void vtkMultiProcessStream::Push(unsigned char*, unsigned int) -->
        <function-decl name='Push' mangled-name='_ZN21vtkMultiProcessStream4PushEPhj' filepath='/tmp/legendre/spack-stage/spack-stage-R_crTC/VTK-6.1.0/Parallel/Core/vtkMultiProcessStream.h' line='75' column='1' visibility='default' binding='global' size-in-bits='64' elf-symbol-id='_ZN21vtkMultiProcessStream4PushEPhj'>
          <!-- implicit parameter of type 'vtkMultiProcessStream*' -->
          <parameter type-id='c0a2a39c' is-artificial='yes'/>
          <!-- parameter of type 'unsigned char*' -->
          <parameter type-id='cf536864'/>
          <!-- parameter of type 'unsigned int' -->
          <parameter type-id='f0981eeb'/>
          <!-- void -->
          <return type-id='48b5725f'/>
        </function-decl>
      </member-function>
      <member-function access='private'>
        <!-- void vtkMultiProcessStream::Push(int*, unsigned int) -->
        <function-decl name='Push' mangled-name='_ZN21vtkMultiProcessStream4PushEPij' filepath='/tmp/legendre/spack-stage/spack-stage-R_crTC/VTK-6.1.0/Parallel/Core/vtkMultiProcessStream.h' line='72' column='1' visibility='default' binding='global' size-in-bits='64' elf-symbol-id='_ZN21vtkMultiProcessStream4PushEPij'>
          <!-- implicit parameter of type 'vtkMultiProcessStream*' -->
          <parameter type-id='c0a2a39c' is-artificial='yes'/>
          <!-- parameter of type 'int*' -->
          <parameter type-id='7292109c'/>
          <!-- parameter of type 'unsigned int' -->
          <parameter type-id='f0981eeb'/>
          <!-- void -->
          <return type-id='48b5725f'/>
        </function-decl>
      </member-function>
      <member-function access='private'>
        <!-- vtkMultiProcessStream& vtkMultiProcessStream::operator<<(vtkTypeInt64) -->
        <function-decl name='operator&lt;&lt;' mangled-name='_ZN21vtkMultiProcessStreamlsEx' filepath='/tmp/legendre/spack-stage/spack-stage-R_crTC/VTK-6.1.0/Parallel/Core/vtkMultiProcessStream.h' line='50' column='1' visibility='default' binding='global' size-in-bits='64' elf-symbol-id='_ZN21vtkMultiProcessStreamlsEx'>
          <!-- implicit parameter of type 'vtkMultiProcessStream*' -->
          <parameter type-id='c0a2a39c' is-artificial='yes'/>
          <!-- parameter of type 'typedef vtkTypeInt64' -->
          <parameter type-id='b8ec660a'/>
          <!-- vtkMultiProcessStream& -->
          <return type-id='c4a2a9e8'/>
        </function-decl>
      </member-function>
      <member-function access='private'>
        <!-- void vtkMultiProcessStream::Push(char*, unsigned int) -->
        <function-decl name='Push' mangled-name='_ZN21vtkMultiProcessStream4PushEPcj' filepath='/tmp/legendre/spack-stage/spack-stage-R_crTC/VTK-6.1.0/Parallel/Core/vtkMultiProcessStream.h' line='73' column='1' visibility='default' binding='global' size-in-bits='64' elf-symbol-id='_ZN21vtkMultiProcessStream4PushEPcj'>
          <!-- implicit parameter of type 'vtkMultiProcessStream*' -->
          <parameter type-id='c0a2a39c' is-artificial='yes'/>
          <!-- parameter of type 'char*' -->
          <parameter type-id='26a90f95'/>
          <!-- parameter of type 'unsigned int' -->
          <parameter type-id='f0981eeb'/>
          <!-- void -->
          <return type-id='48b5725f'/>
        </function-decl>
      </member-function>
      <member-function access='private'>
        <!-- vtkMultiProcessStream& vtkMultiProcessStream::operator<<(double) -->
        <function-decl name='operator&lt;&lt;' mangled-name='_ZN21vtkMultiProcessStreamlsEd' filepath='/tmp/legendre/spack-stage/spack-stage-R_crTC/VTK-6.1.0/Parallel/Core/vtkMultiProcessStream.h' line='44' column='1' visibility='default' binding='global' size-in-bits='64' elf-symbol-id='_ZN21vtkMultiProcessStreamlsEd'>
          <!-- implicit parameter of type 'vtkMultiProcessStream*' -->
          <parameter type-id='c0a2a39c' is-artificial='yes'/>
          <!-- parameter of type 'double' -->
          <parameter type-id='a0eb0f08'/>
          <!-- vtkMultiProcessStream& -->
          <return type-id='c4a2a9e8'/>
        </function-decl>
      </member-function>
      <member-function access='private'>
        <!-- void vtkMultiProcessStream::Push(float*, unsigned int) -->
        <function-decl name='Push' mangled-name='_ZN21vtkMultiProcessStream4PushEPfj' filepath='/tmp/legendre/spack-stage/spack-stage-R_crTC/VTK-6.1.0/Parallel/Core/vtkMultiProcessStream.h' line='71' column='1' visibility='default' binding='global' size-in-bits='64' elf-symbol-id='_ZN21vtkMultiProcessStream4PushEPfj'>
          <!-- implicit parameter of type 'vtkMultiProcessStream*' -->
          <parameter type-id='c0a2a39c' is-artificial='yes'/>
          <!-- parameter of type 'float*' -->
          <parameter type-id='361f7a7d'/>
          <!-- parameter of type 'unsigned int' -->
          <parameter type-id='f0981eeb'/>
          <!-- void -->
          <return type-id='48b5725f'/>
        </function-decl>
      </member-function>
      <member-function access='private'>
        <!-- vtkMultiProcessStream& vtkMultiProcessStream::operator<<(unsigned int) -->
        <function-decl name='operator&lt;&lt;' mangled-name='_ZN21vtkMultiProcessStreamlsEj' filepath='/tmp/legendre/spack-stage/spack-stage-R_crTC/VTK-6.1.0/Parallel/Core/vtkMultiProcessStream.h' line='48' column='1' visibility='default' binding='global' size-in-bits='64' elf-symbol-id='_ZN21vtkMultiProcessStreamlsEj'>
          <!-- implicit parameter of type 'vtkMultiProcessStream*' -->
          <parameter type-id='c0a2a39c' is-artificial='yes'/>
          <!-- parameter of type 'unsigned int' -->
          <parameter type-id='f0981eeb'/>
          <!-- vtkMultiProcessStream& -->
          <return type-id='c4a2a9e8'/>
        </function-decl>
      </member-function>
      <member-function access='private'>
        <!-- void vtkMultiProcessStream::Push(vtkTypeInt64*, unsigned int) -->
        <function-decl name='Push' mangled-name='_ZN21vtkMultiProcessStream4PushEPxj' filepath='/tmp/legendre/spack-stage/spack-stage-R_crTC/VTK-6.1.0/Parallel/Core/vtkMultiProcessStream.h' line='76' column='1' visibility='default' binding='global' size-in-bits='64' elf-symbol-id='_ZN21vtkMultiProcessStream4PushEPxj'>
          <!-- implicit parameter of type 'vtkMultiProcessStream*' -->
          <parameter type-id='c0a2a39c' is-artificial='yes'/>
          <!-- parameter of type 'vtkTypeInt64*' -->
          <parameter type-id='2c73af47'/>
          <!-- parameter of type 'unsigned int' -->
          <parameter type-id='f0981eeb'/>
          <!-- void -->
          <return type-id='48b5725f'/>
        </function-decl>
      </member-function>
      <member-function access='private'>
        <!-- vtkMultiProcessStream& vtkMultiProcessStream::operator>>(vtkMultiProcessStream&) -->
        <function-decl name='operator&gt;&gt;' mangled-name='_ZN21vtkMultiProcessStreamrsERS_' filepath='/tmp/legendre/spack-stage/spack-stage-R_crTC/VTK-6.1.0/Parallel/Core/vtkMultiProcessStream.h' line='66' column='1' visibility='default' binding='global' size-in-bits='64' elf-symbol-id='_ZN21vtkMultiProcessStreamrsERS_'>
          <!-- implicit parameter of type 'vtkMultiProcessStream*' -->
          <parameter type-id='c0a2a39c' is-artificial='yes'/>
          <!-- parameter of type 'vtkMultiProcessStream&' -->
          <parameter type-id='c4a2a9e8'/>
          <!-- vtkMultiProcessStream& -->
          <return type-id='c4a2a9e8'/>
        </function-decl>
      </member-function>
      <member-function access='private'>
        <!-- vtkMultiProcessStream& vtkMultiProcessStream::operator<<(int) -->
        <function-decl name='operator&lt;&lt;' mangled-name='_ZN21vtkMultiProcessStreamlsEi' filepath='/tmp/legendre/spack-stage/spack-stage-R_crTC/VTK-6.1.0/Parallel/Core/vtkMultiProcessStream.h' line='46' column='1' visibility='default' binding='global' size-in-bits='64' elf-symbol-id='_ZN21vtkMultiProcessStreamlsEi'>
          <!-- implicit parameter of type 'vtkMultiProcessStream*' -->
          <parameter type-id='c0a2a39c' is-artificial='yes'/>
          <!-- parameter of type 'int' -->
          <parameter type-id='95e97e5e'/>
          <!-- vtkMultiProcessStream& -->
          <return type-id='c4a2a9e8'/>
        </function-decl>
      </member-function>
      <member-function access='private'>
        <!-- void vtkMultiProcessStream::Push(vtkTypeUInt64*, unsigned int) -->
        <function-decl name='Push' mangled-name='_ZN21vtkMultiProcessStream4PushEPyj' filepath='/tmp/legendre/spack-stage/spack-stage-R_crTC/VTK-6.1.0/Parallel/Core/vtkMultiProcessStream.h' line='77' column='1' visibility='default' binding='global' size-in-bits='64' elf-symbol-id='_ZN21vtkMultiProcessStream4PushEPyj'>
          <!-- implicit parameter of type 'vtkMultiProcessStream*' -->
          <parameter type-id='c0a2a39c' is-artificial='yes'/>
          <!-- parameter of type 'vtkTypeUInt64*' -->
          <parameter type-id='ca4086b4'/>
          <!-- parameter of type 'unsigned int' -->
          <parameter type-id='f0981eeb'/>
          <!-- void -->
          <return type-id='48b5725f'/>
        </function-decl>
      </member-function>
    </class-decl>
    <!-- struct _G_fpos64_t -->
    <class-decl name='_G_fpos64_t' size-in-bits='128' is-struct='yes' visibility='default' filepath='/usr/include/_G_config.h' line='28' column='1' id='0c7ea805'>
      <data-member access='public' layout-offset-in-bits='0'>
        <!-- __off64_t _G_fpos64_t::__pos -->
        <var-decl name='__pos' type-id='724e4de6' visibility='default' filepath='/usr/include/_G_config.h' line='29' column='1'/>
      </data-member>
      <data-member access='public' layout-offset-in-bits='64'>
        <!-- __mbstate_t _G_fpos64_t::__state -->
        <var-decl name='__state' type-id='87447a2e' visibility='default' filepath='/usr/include/_G_config.h' line='30' column='1'/>
      </data-member>
    </class-decl>
    <!-- struct __pthread_internal_list -->
    <class-decl name='__pthread_internal_list' size-in-bits='128' is-struct='yes' visibility='default' filepath='/usr/include/bits/pthreadtypes.h' line='62' column='1' id='0e01899c'>
      <data-member access='public' layout-offset-in-bits='0'>
        <!-- __pthread_internal_list* __pthread_internal_list::__prev -->
        <var-decl name='__prev' type-id='4d98cd5a' visibility='default' filepath='/usr/include/bits/pthreadtypes.h' line='63' column='1'/>
      </data-member>
      <data-member access='public' layout-offset-in-bits='64'>
        <!-- __pthread_internal_list* __pthread_internal_list::__next -->
        <var-decl name='__next' type-id='4d98cd5a' visibility='default' filepath='/usr/include/bits/pthreadtypes.h' line='64' column='1'/>
      </data-member>
    </class-decl>
    <!-- typedef __pthread_internal_list __pthread_list_t -->
    <typedef-decl name='__pthread_list_t' type-id='0e01899c' filepath='/usr/include/bits/pthreadtypes.h' line='65' column='1' id='518fb49c'/>
    <!-- union pthread_mutex_t -->
    <union-decl name='pthread_mutex_t' size-in-bits='320' visibility='default' filepath='/usr/include/bits/pthreadtypes.h' line='77' column='1' id='70681f9b'>
      <member-type access='public'>
        <!-- struct pthread_mutex_t::__pthread_mutex_s -->
        <class-decl name='__pthread_mutex_s' size-in-bits='320' is-struct='yes' visibility='default' filepath='/usr/include/bits/pthreadtypes.h' line='79' column='1' id='6688f464'>
          <data-member access='public' layout-offset-in-bits='0'>
            <!-- int pthread_mutex_t::__pthread_mutex_s::__lock -->
            <var-decl name='__lock' type-id='95e97e5e' visibility='default' filepath='/usr/include/bits/pthreadtypes.h' line='80' column='1'/>
          </data-member>
          <data-member access='public' layout-offset-in-bits='32'>
            <!-- unsigned int pthread_mutex_t::__pthread_mutex_s::__count -->
            <var-decl name='__count' type-id='f0981eeb' visibility='default' filepath='/usr/include/bits/pthreadtypes.h' line='81' column='1'/>
          </data-member>
          <data-member access='public' layout-offset-in-bits='64'>
            <!-- int pthread_mutex_t::__pthread_mutex_s::__owner -->
            <var-decl name='__owner' type-id='95e97e5e' visibility='default' filepath='/usr/include/bits/pthreadtypes.h' line='82' column='1'/>
          </data-member>
          <data-member access='public' layout-offset-in-bits='96'>
            <!-- unsigned int pthread_mutex_t::__pthread_mutex_s::__nusers -->
            <var-decl name='__nusers' type-id='f0981eeb' visibility='default' filepath='/usr/include/bits/pthreadtypes.h' line='84' column='1'/>
          </data-member>
          <data-member access='public' layout-offset-in-bits='128'>
            <!-- int pthread_mutex_t::__pthread_mutex_s::__kind -->
            <var-decl name='__kind' type-id='95e97e5e' visibility='default' filepath='/usr/include/bits/pthreadtypes.h' line='88' column='1'/>
          </data-member>
          <data-member access='public' layout-offset-in-bits='160'>
            <!-- int pthread_mutex_t::__pthread_mutex_s::__spins -->
            <var-decl name='__spins' type-id='95e97e5e' visibility='default' filepath='/usr/include/bits/pthreadtypes.h' line='90' column='1'/>
          </data-member>
          <data-member access='public' layout-offset-in-bits='192'>
            <!-- __pthread_list_t pthread_mutex_t::__pthread_mutex_s::__list -->
            <var-decl name='__list' type-id='518fb49c' visibility='default' filepath='/usr/include/bits/pthreadtypes.h' line='91' column='1'/>
          </data-member>
        </class-decl>
      </member-type>
      <data-member access='public'>
        <!-- pthread_mutex_t::__pthread_mutex_s pthread_mutex_t::__data -->
        <var-decl name='__data' type-id='6688f464' visibility='default' filepath='/usr/include/bits/pthreadtypes.h' line='101' column='1'/>
      </data-member>
      <data-member access='public'>
        <!-- char pthread_mutex_t::__size[40] -->
        <var-decl name='__size' type-id='36c46961' visibility='default' filepath='/usr/include/bits/pthreadtypes.h' line='102' column='1'/>
      </data-member>
      <data-member access='public'>
        <!-- long int pthread_mutex_t::__align -->
        <var-decl name='__align' type-id='bd54fe1a' visibility='default' filepath='/usr/include/bits/pthreadtypes.h' line='103' column='1'/>
      </data-member>
    </union-decl>
    <!-- typedef int __int32_t -->
    <typedef-decl name='__int32_t' type-id='95e97e5e' filepath='/usr/include/bits/types.h' line='41' column='1' id='33f57a65'/>
    <!-- typedef long int __off_t -->
    <typedef-decl name='__off_t' type-id='bd54fe1a' filepath='/usr/include/bits/types.h' line='141' column='1' id='79989e9c'/>
    <!-- typedef long int __off64_t -->
    <typedef-decl name='__off64_t' type-id='bd54fe1a' filepath='/usr/include/bits/types.h' line='142' column='1' id='724e4de6'/>
    <!-- typedef void _IO_lock_t -->
    <typedef-decl name='_IO_lock_t' type-id='48b5725f' filepath='/usr/include/libio.h' line='180' column='1' id='bb4788fa'/>
    <!-- struct _IO_marker -->
    <class-decl name='_IO_marker' size-in-bits='192' is-struct='yes' visibility='default' filepath='/usr/include/libio.h' line='186' column='1' id='010ae0b9'>
      <data-member access='public' layout-offset-in-bits='0'>
        <!-- _IO_marker* _IO_marker::_next -->
        <var-decl name='_next' type-id='e4c6fa61' visibility='default' filepath='/usr/include/libio.h' line='187' column='1'/>
      </data-member>
      <data-member access='public' layout-offset-in-bits='64'>
        <!-- _IO_FILE* _IO_marker::_sbuf -->
        <var-decl name='_sbuf' type-id='dca988a5' visibility='default' filepath='/usr/include/libio.h' line='188' column='1'/>
      </data-member>
      <data-member access='public' layout-offset-in-bits='128'>
        <!-- int _IO_marker::_pos -->
        <var-decl name='_pos' type-id='95e97e5e' visibility='default' filepath='/usr/include/libio.h' line='192' column='1'/>
      </data-member>
    </class-decl>
    <!-- struct _IO_FILE -->
    <class-decl name='_IO_FILE' size-in-bits='1728' is-struct='yes' visibility='default' filepath='/usr/include/libio.h' line='271' column='1' id='ec1ed955'>
      <data-member access='public' layout-offset-in-bits='0'>
        <!-- int _IO_FILE::_flags -->
        <var-decl name='_flags' type-id='95e97e5e' visibility='default' filepath='/usr/include/libio.h' line='272' column='1'/>
      </data-member>
      <data-member access='public' layout-offset-in-bits='64'>
        <!-- char* _IO_FILE::_IO_read_ptr -->
        <var-decl name='_IO_read_ptr' type-id='26a90f95' visibility='default' filepath='/usr/include/libio.h' line='277' column='1'/>
      </data-member>
      <data-member access='public' layout-offset-in-bits='128'>
        <!-- char* _IO_FILE::_IO_read_end -->
        <var-decl name='_IO_read_end' type-id='26a90f95' visibility='default' filepath='/usr/include/libio.h' line='278' column='1'/>
      </data-member>
      <data-member access='public' layout-offset-in-bits='192'>
        <!-- char* _IO_FILE::_IO_read_base -->
        <var-decl name='_IO_read_base' type-id='26a90f95' visibility='default' filepath='/usr/include/libio.h' line='279' column='1'/>
      </data-member>
      <data-member access='public' layout-offset-in-bits='256'>
        <!-- char* _IO_FILE::_IO_write_base -->
        <var-decl name='_IO_write_base' type-id='26a90f95' visibility='default' filepath='/usr/include/libio.h' line='280' column='1'/>
      </data-member>
      <data-member access='public' layout-offset-in-bits='320'>
        <!-- char* _IO_FILE::_IO_write_ptr -->
        <var-decl name='_IO_write_ptr' type-id='26a90f95' visibility='default' filepath='/usr/include/libio.h' line='281' column='1'/>
      </data-member>
      <data-member access='public' layout-offset-in-bits='384'>
        <!-- char* _IO_FILE::_IO_write_end -->
        <var-decl name='_IO_write_end' type-id='26a90f95' visibility='default' filepath='/usr/include/libio.h' line='282' column='1'/>
      </data-member>
      <data-member access='public' layout-offset-in-bits='448'>
        <!-- char* _IO_FILE::_IO_buf_base -->
        <var-decl name='_IO_buf_base' type-id='26a90f95' visibility='default' filepath='/usr/include/libio.h' line='283' column='1'/>
      </data-member>
      <data-member access='public' layout-offset-in-bits='512'>
        <!-- char* _IO_FILE::_IO_buf_end -->
        <var-decl name='_IO_buf_end' type-id='26a90f95' visibility='default' filepath='/usr/include/libio.h' line='284' column='1'/>
      </data-member>
      <data-member access='public' layout-offset-in-bits='576'>
        <!-- char* _IO_FILE::_IO_save_base -->
        <var-decl name='_IO_save_base' type-id='26a90f95' visibility='default' filepath='/usr/include/libio.h' line='286' column='1'/>
      </data-member>
      <data-member access='public' layout-offset-in-bits='640'>
        <!-- char* _IO_FILE::_IO_backup_base -->
        <var-decl name='_IO_backup_base' type-id='26a90f95' visibility='default' filepath='/usr/include/libio.h' line='287' column='1'/>
      </data-member>
      <data-member access='public' layout-offset-in-bits='704'>
        <!-- char* _IO_FILE::_IO_save_end -->
        <var-decl name='_IO_save_end' type-id='26a90f95' visibility='default' filepath='/usr/include/libio.h' line='288' column='1'/>
      </data-member>
      <data-member access='public' layout-offset-in-bits='768'>
        <!-- _IO_marker* _IO_FILE::_markers -->
        <var-decl name='_markers' type-id='e4c6fa61' visibility='default' filepath='/usr/include/libio.h' line='290' column='1'/>
      </data-member>
      <data-member access='public' layout-offset-in-bits='832'>
        <!-- _IO_FILE* _IO_FILE::_chain -->
        <var-decl name='_chain' type-id='dca988a5' visibility='default' filepath='/usr/include/libio.h' line='292' column='1'/>
      </data-member>
      <data-member access='public' layout-offset-in-bits='896'>
        <!-- int _IO_FILE::_fileno -->
        <var-decl name='_fileno' type-id='95e97e5e' visibility='default' filepath='/usr/include/libio.h' line='294' column='1'/>
      </data-member>
      <data-member access='public' layout-offset-in-bits='928'>
        <!-- int _IO_FILE::_flags2 -->
        <var-decl name='_flags2' type-id='95e97e5e' visibility='default' filepath='/usr/include/libio.h' line='298' column='1'/>
      </data-member>
      <data-member access='public' layout-offset-in-bits='960'>
        <!-- __off_t _IO_FILE::_old_offset -->
        <var-decl name='_old_offset' type-id='79989e9c' visibility='default' filepath='/usr/include/libio.h' line='300' column='1'/>
      </data-member>
      <data-member access='public' layout-offset-in-bits='1024'>
        <!-- unsigned short int _IO_FILE::_cur_column -->
        <var-decl name='_cur_column' type-id='8efea9e5' visibility='default' filepath='/usr/include/libio.h' line='304' column='1'/>
      </data-member>
      <data-member access='public' layout-offset-in-bits='1040'>
        <!-- signed char _IO_FILE::_vtable_offset -->
        <var-decl name='_vtable_offset' type-id='28577a57' visibility='default' filepath='/usr/include/libio.h' line='305' column='1'/>
      </data-member>
      <data-member access='public' layout-offset-in-bits='1048'>
        <!-- char _IO_FILE::_shortbuf[1] -->
        <var-decl name='_shortbuf' type-id='89feb1ec' visibility='default' filepath='/usr/include/libio.h' line='306' column='1'/>
      </data-member>
      <data-member access='public' layout-offset-in-bits='1088'>
        <!-- _IO_lock_t* _IO_FILE::_lock -->
        <var-decl name='_lock' type-id='cecf4ea7' visibility='default' filepath='/usr/include/libio.h' line='310' column='1'/>
      </data-member>
      <data-member access='public' layout-offset-in-bits='1152'>
        <!-- __off64_t _IO_FILE::_offset -->
        <var-decl name='_offset' type-id='724e4de6' visibility='default' filepath='/usr/include/libio.h' line='319' column='1'/>
      </data-member>
      <data-member access='public' layout-offset-in-bits='1216'>
        <!-- void* _IO_FILE::__pad1 -->
        <var-decl name='__pad1' type-id='eaa32e2f' visibility='default' filepath='/usr/include/libio.h' line='328' column='1'/>
      </data-member>
      <data-member access='public' layout-offset-in-bits='1280'>
        <!-- void* _IO_FILE::__pad2 -->
        <var-decl name='__pad2' type-id='eaa32e2f' visibility='default' filepath='/usr/include/libio.h' line='329' column='1'/>
      </data-member>
      <data-member access='public' layout-offset-in-bits='1344'>
        <!-- void* _IO_FILE::__pad3 -->
        <var-decl name='__pad3' type-id='eaa32e2f' visibility='default' filepath='/usr/include/libio.h' line='330' column='1'/>
      </data-member>
      <data-member access='public' layout-offset-in-bits='1408'>
        <!-- void* _IO_FILE::__pad4 -->
        <var-decl name='__pad4' type-id='eaa32e2f' visibility='default' filepath='/usr/include/libio.h' line='331' column='1'/>
      </data-member>
      <data-member access='public' layout-offset-in-bits='1472'>
        <!-- size_t _IO_FILE::__pad5 -->
        <var-decl name='__pad5' type-id='b59d7dce' visibility='default' filepath='/usr/include/libio.h' line='332' column='1'/>
      </data-member>
      <data-member access='public' layout-offset-in-bits='1536'>
        <!-- int _IO_FILE::_mode -->
        <var-decl name='_mode' type-id='95e97e5e' visibility='default' filepath='/usr/include/libio.h' line='334' column='1'/>
      </data-member>
      <data-member access='public' layout-offset-in-bits='1568'>
        <!-- char _IO_FILE::_unused2[20] -->
        <var-decl name='_unused2' type-id='664ac0b7' visibility='default' filepath='/usr/include/libio.h' line='336' column='1'/>
      </data-member>
    </class-decl>
    <!-- struct lconv -->
    <class-decl name='lconv' size-in-bits='768' is-struct='yes' visibility='default' filepath='/usr/include/locale.h' line='55' column='1' id='58591d3d'>
      <data-member access='public' layout-offset-in-bits='0'>
        <!-- char* lconv::decimal_point -->
        <var-decl name='decimal_point' type-id='26a90f95' visibility='default' filepath='/usr/include/locale.h' line='58' column='1'/>
      </data-member>
      <data-member access='public' layout-offset-in-bits='64'>
        <!-- char* lconv::thousands_sep -->
        <var-decl name='thousands_sep' type-id='26a90f95' visibility='default' filepath='/usr/include/locale.h' line='59' column='1'/>
      </data-member>
      <data-member access='public' layout-offset-in-bits='128'>
        <!-- char* lconv::grouping -->
        <var-decl name='grouping' type-id='26a90f95' visibility='default' filepath='/usr/include/locale.h' line='65' column='1'/>
      </data-member>
      <data-member access='public' layout-offset-in-bits='192'>
        <!-- char* lconv::int_curr_symbol -->
        <var-decl name='int_curr_symbol' type-id='26a90f95' visibility='default' filepath='/usr/include/locale.h' line='71' column='1'/>
      </data-member>
      <data-member access='public' layout-offset-in-bits='256'>
        <!-- char* lconv::currency_symbol -->
        <var-decl name='currency_symbol' type-id='26a90f95' visibility='default' filepath='/usr/include/locale.h' line='72' column='1'/>
      </data-member>
      <data-member access='public' layout-offset-in-bits='320'>
        <!-- char* lconv::mon_decimal_point -->
        <var-decl name='mon_decimal_point' type-id='26a90f95' visibility='default' filepath='/usr/include/locale.h' line='73' column='1'/>
      </data-member>
      <data-member access='public' layout-offset-in-bits='384'>
        <!-- char* lconv::mon_thousands_sep -->
        <var-decl name='mon_thousands_sep' type-id='26a90f95' visibility='default' filepath='/usr/include/locale.h' line='74' column='1'/>
      </data-member>
      <data-member access='public' layout-offset-in-bits='448'>
        <!-- char* lconv::mon_grouping -->
        <var-decl name='mon_grouping' type-id='26a90f95' visibility='default' filepath='/usr/include/locale.h' line='75' column='1'/>
      </data-member>
      <data-member access='public' layout-offset-in-bits='512'>
        <!-- char* lconv::positive_sign -->
        <var-decl name='positive_sign' type-id='26a90f95' visibility='default' filepath='/usr/include/locale.h' line='76' column='1'/>
      </data-member>
      <data-member access='public' layout-offset-in-bits='576'>
        <!-- char* lconv::negative_sign -->
        <var-decl name='negative_sign' type-id='26a90f95' visibility='default' filepath='/usr/include/locale.h' line='77' column='1'/>
      </data-member>
      <data-member access='public' layout-offset-in-bits='640'>
        <!-- char lconv::int_frac_digits -->
        <var-decl name='int_frac_digits' type-id='a84c031d' visibility='default' filepath='/usr/include/locale.h' line='78' column='1'/>
      </data-member>
      <data-member access='public' layout-offset-in-bits='648'>
        <!-- char lconv::frac_digits -->
        <var-decl name='frac_digits' type-id='a84c031d' visibility='default' filepath='/usr/include/locale.h' line='79' column='1'/>
      </data-member>
      <data-member access='public' layout-offset-in-bits='656'>
        <!-- char lconv::p_cs_precedes -->
        <var-decl name='p_cs_precedes' type-id='a84c031d' visibility='default' filepath='/usr/include/locale.h' line='81' column='1'/>
      </data-member>
      <data-member access='public' layout-offset-in-bits='664'>
        <!-- char lconv::p_sep_by_space -->
        <var-decl name='p_sep_by_space' type-id='a84c031d' visibility='default' filepath='/usr/include/locale.h' line='83' column='1'/>
      </data-member>
      <data-member access='public' layout-offset-in-bits='672'>
        <!-- char lconv::n_cs_precedes -->
        <var-decl name='n_cs_precedes' type-id='a84c031d' visibility='default' filepath='/usr/include/locale.h' line='85' column='1'/>
      </data-member>
      <data-member access='public' layout-offset-in-bits='680'>
        <!-- char lconv::n_sep_by_space -->
        <var-decl name='n_sep_by_space' type-id='a84c031d' visibility='default' filepath='/usr/include/locale.h' line='87' column='1'/>
      </data-member>
      <data-member access='public' layout-offset-in-bits='688'>
        <!-- char lconv::p_sign_posn -->
        <var-decl name='p_sign_posn' type-id='a84c031d' visibility='default' filepath='/usr/include/locale.h' line='94' column='1'/>
      </data-member>
      <data-member access='public' layout-offset-in-bits='696'>
        <!-- char lconv::n_sign_posn -->
        <var-decl name='n_sign_posn' type-id='a84c031d' visibility='default' filepath='/usr/include/locale.h' line='95' column='1'/>
      </data-member>
      <data-member access='public' layout-offset-in-bits='704'>
        <!-- char lconv::int_p_cs_precedes -->
        <var-decl name='int_p_cs_precedes' type-id='a84c031d' visibility='default' filepath='/usr/include/locale.h' line='98' column='1'/>
      </data-member>
      <data-member access='public' layout-offset-in-bits='712'>
        <!-- char lconv::int_p_sep_by_space -->
        <var-decl name='int_p_sep_by_space' type-id='a84c031d' visibility='default' filepath='/usr/include/locale.h' line='100' column='1'/>
      </data-member>
      <data-member access='public' layout-offset-in-bits='720'>
        <!-- char lconv::int_n_cs_precedes -->
        <var-decl name='int_n_cs_precedes' type-id='a84c031d' visibility='default' filepath='/usr/include/locale.h' line='102' column='1'/>
      </data-member>
      <data-member access='public' layout-offset-in-bits='728'>
        <!-- char lconv::int_n_sep_by_space -->
        <var-decl name='int_n_sep_by_space' type-id='a84c031d' visibility='default' filepath='/usr/include/locale.h' line='104' column='1'/>
      </data-member>
      <data-member access='public' layout-offset-in-bits='736'>
        <!-- char lconv::int_p_sign_posn -->
        <var-decl name='int_p_sign_posn' type-id='a84c031d' visibility='default' filepath='/usr/include/locale.h' line='111' column='1'/>
      </data-member>
      <data-member access='public' layout-offset-in-bits='744'>
        <!-- char lconv::int_n_sign_posn -->
        <var-decl name='int_n_sign_posn' type-id='a84c031d' visibility='default' filepath='/usr/include/locale.h' line='112' column='1'/>
      </data-member>
    </class-decl>
    <!-- typedef _IO_FILE FILE -->
    <typedef-decl name='FILE' type-id='ec1ed955' filepath='/usr/include/stdio.h' line='49' column='1' id='aa12d1ba'/>
    <!-- typedef _IO_FILE __FILE -->
    <typedef-decl name='__FILE' type-id='ec1ed955' filepath='/usr/include/stdio.h' line='65' column='1' id='79311084'/>
    <!-- typedef _G_fpos64_t fpos_t -->
    <typedef-decl name='fpos_t' type-id='0c7ea805' filepath='/usr/include/stdio.h' line='113' column='1' id='e322b6ef'/>
    <!-- struct div_t -->
    <class-decl name='div_t' size-in-bits='64' is-struct='yes' visibility='default' filepath='/usr/include/stdlib.h' line='99' column='1' id='1fc6054b'>
      <data-member access='public' layout-offset-in-bits='0'>
        <!-- int div_t::quot -->
        <var-decl name='quot' type-id='95e97e5e' visibility='default' filepath='/usr/include/stdlib.h' line='100' column='1'/>
      </data-member>
      <data-member access='public' layout-offset-in-bits='32'>
        <!-- int div_t::rem -->
        <var-decl name='rem' type-id='95e97e5e' visibility='default' filepath='/usr/include/stdlib.h' line='101' column='1'/>
      </data-member>
    </class-decl>
    <!-- struct ldiv_t -->
    <class-decl name='ldiv_t' size-in-bits='128' is-struct='yes' visibility='default' filepath='/usr/include/stdlib.h' line='107' column='1' id='9b5926fd'>
      <data-member access='public' layout-offset-in-bits='0'>
        <!-- long int ldiv_t::quot -->
        <var-decl name='quot' type-id='bd54fe1a' visibility='default' filepath='/usr/include/stdlib.h' line='108' column='1'/>
      </data-member>
      <data-member access='public' layout-offset-in-bits='64'>
        <!-- long int ldiv_t::rem -->
        <var-decl name='rem' type-id='bd54fe1a' visibility='default' filepath='/usr/include/stdlib.h' line='109' column='1'/>
      </data-member>
    </class-decl>
    <!-- struct lldiv_t -->
    <class-decl name='lldiv_t' size-in-bits='128' is-struct='yes' visibility='default' filepath='/usr/include/stdlib.h' line='119' column='1' id='649cba4b'>
      <data-member access='public' layout-offset-in-bits='0'>
        <!-- long long int lldiv_t::quot -->
        <var-decl name='quot' type-id='1eb56b1e' visibility='default' filepath='/usr/include/stdlib.h' line='120' column='1'/>
      </data-member>
      <data-member access='public' layout-offset-in-bits='64'>
        <!-- long long int lldiv_t::rem -->
        <var-decl name='rem' type-id='1eb56b1e' visibility='default' filepath='/usr/include/stdlib.h' line='121' column='1'/>
      </data-member>
    </class-decl>
    <!-- typedef int (void*, void*)* __compar_fn_t -->
    <typedef-decl name='__compar_fn_t' type-id='585e1de9' filepath='/usr/include/stdlib.h' line='742' column='1' id='aba7edd8'/>
    <!-- struct tm -->
    <class-decl name='tm' size-in-bits='448' is-struct='yes' visibility='default' filepath='/usr/include/time.h' line='134' column='1' id='dddf6ca2'>
      <data-member access='public' layout-offset-in-bits='0'>
        <!-- int tm::tm_sec -->
        <var-decl name='tm_sec' type-id='95e97e5e' visibility='default' filepath='/usr/include/time.h' line='135' column='1'/>
      </data-member>
      <data-member access='public' layout-offset-in-bits='32'>
        <!-- int tm::tm_min -->
        <var-decl name='tm_min' type-id='95e97e5e' visibility='default' filepath='/usr/include/time.h' line='136' column='1'/>
      </data-member>
      <data-member access='public' layout-offset-in-bits='64'>
        <!-- int tm::tm_hour -->
        <var-decl name='tm_hour' type-id='95e97e5e' visibility='default' filepath='/usr/include/time.h' line='137' column='1'/>
      </data-member>
      <data-member access='public' layout-offset-in-bits='96'>
        <!-- int tm::tm_mday -->
        <var-decl name='tm_mday' type-id='95e97e5e' visibility='default' filepath='/usr/include/time.h' line='138' column='1'/>
      </data-member>
      <data-member access='public' layout-offset-in-bits='128'>
        <!-- int tm::tm_mon -->
        <var-decl name='tm_mon' type-id='95e97e5e' visibility='default' filepath='/usr/include/time.h' line='139' column='1'/>
      </data-member>
      <data-member access='public' layout-offset-in-bits='160'>
        <!-- int tm::tm_year -->
        <var-decl name='tm_year' type-id='95e97e5e' visibility='default' filepath='/usr/include/time.h' line='140' column='1'/>
      </data-member>
      <data-member access='public' layout-offset-in-bits='192'>
        <!-- int tm::tm_wday -->
        <var-decl name='tm_wday' type-id='95e97e5e' visibility='default' filepath='/usr/include/time.h' line='141' column='1'/>
      </data-member>
      <data-member access='public' layout-offset-in-bits='224'>
        <!-- int tm::tm_yday -->
        <var-decl name='tm_yday' type-id='95e97e5e' visibility='default' filepath='/usr/include/time.h' line='142' column='1'/>
      </data-member>
      <data-member access='public' layout-offset-in-bits='256'>
        <!-- int tm::tm_isdst -->
        <var-decl name='tm_isdst' type-id='95e97e5e' visibility='default' filepath='/usr/include/time.h' line='143' column='1'/>
      </data-member>
      <data-member access='public' layout-offset-in-bits='320'>
        <!-- long int tm::tm_gmtoff -->
        <var-decl name='tm_gmtoff' type-id='bd54fe1a' visibility='default' filepath='/usr/include/time.h' line='146' column='1'/>
      </data-member>
      <data-member access='public' layout-offset-in-bits='384'>
        <!-- const char* tm::tm_zone -->
        <var-decl name='tm_zone' type-id='80f4b756' visibility='default' filepath='/usr/include/time.h' line='147' column='1'/>
      </data-member>
    </class-decl>
    <!-- struct __mbstate_t -->
    <class-decl name='__mbstate_t' size-in-bits='64' is-struct='yes' visibility='default' filepath='/usr/include/wchar.h' line='84' column='1' id='87447a2e'>
      <member-type access='public'>
        <!-- union {unsigned int __wch; char __wchb[4];} -->
        <union-decl name='__anonymous_union__' size-in-bits='32' is-anonymous='yes' visibility='default' filepath='/usr/include/wchar.h' line='87' column='1' id='ac5ab595'>
          <data-member access='public'>
            <!-- unsigned int __wch -->
            <var-decl name='__wch' type-id='f0981eeb' visibility='default' filepath='/usr/include/wchar.h' line='89' column='1'/>
          </data-member>
          <data-member access='public'>
            <!-- char __wchb[4] -->
            <var-decl name='__wchb' type-id='8e0573fd' visibility='default' filepath='/usr/include/wchar.h' line='93' column='1'/>
          </data-member>
        </union-decl>
      </member-type>
      <data-member access='public' layout-offset-in-bits='0'>
        <!-- int __mbstate_t::__count -->
        <var-decl name='__count' type-id='95e97e5e' visibility='default' filepath='/usr/include/wchar.h' line='85' column='1'/>
      </data-member>
      <data-member access='public' layout-offset-in-bits='32'>
        <!-- union {unsigned int __wch; char __wchb[4];} __mbstate_t::__value -->
        <var-decl name='__value' type-id='ac5ab595' visibility='default' filepath='/usr/include/wchar.h' line='94' column='1'/>
      </data-member>
    </class-decl>
    <!-- typedef __mbstate_t mbstate_t -->
    <typedef-decl name='mbstate_t' type-id='87447a2e' filepath='/usr/include/wchar.h' line='106' column='1' id='3d7d8cbf'/>
    <!-- typedef unsigned long int wctype_t -->
    <typedef-decl name='wctype_t' type-id='7359adad' filepath='/usr/include/wctype.h' line='53' column='1' id='ba50424d'/>
    <!-- typedef const __int32_t* wctrans_t -->
    <typedef-decl name='wctrans_t' type-id='a0de50cd' filepath='/usr/include/wctype.h' line='187' column='1' id='183c72c3'/>
    <!-- typedef int _Atomic_word -->
    <typedef-decl name='_Atomic_word' type-id='95e97e5e' filepath='/usr/lib/gcc/x86_64-redhat-linux/4.4.7/../../../../include/c++/4.4.7/x86_64-redhat-linux/bits/atomic_word.h' line='32' column='1' id='e9464a99'/>
    <!-- typedef pthread_mutex_t __gthread_mutex_t -->
    <typedef-decl name='__gthread_mutex_t' type-id='70681f9b' filepath='/usr/lib/gcc/x86_64-redhat-linux/4.4.7/../../../../include/c++/4.4.7/x86_64-redhat-linux/bits/gthr-default.h' line='47' column='1' id='d3b6e0d0'/>
    <!-- typedef long int ptrdiff_t -->
    <typedef-decl name='ptrdiff_t' type-id='bd54fe1a' filepath='/usr/lib/gcc/x86_64-redhat-linux/4.4.7/include/stddef.h' line='149' column='1' id='fc84bffe'/>
    <!-- typedef unsigned long int size_t -->
    <typedef-decl name='size_t' type-id='7359adad' filepath='/usr/lib/gcc/x86_64-redhat-linux/4.4.7/include/stddef.h' line='211' column='1' id='b59d7dce'/>
    <!-- typedef unsigned int wint_t -->
    <typedef-decl name='wint_t' type-id='f0981eeb' filepath='/usr/lib/gcc/x86_64-redhat-linux/4.4.7/include/stddef.h' line='352' column='1' id='6dd37369'/>
    <!-- FILE* -->
    <pointer-type-def type-id='aa12d1ba' size-in-bits='64' id='822cd80b'/>
    <!-- _IO_FILE* -->
    <pointer-type-def type-id='ec1ed955' size-in-bits='64' id='dca988a5'/>
    <!-- _IO_lock_t* -->
    <pointer-type-def type-id='bb4788fa' size-in-bits='64' id='cecf4ea7'/>
    <!-- _IO_marker* -->
    <pointer-type-def type-id='010ae0b9' size-in-bits='64' id='e4c6fa61'/>
    <!-- __FILE* -->
    <pointer-type-def type-id='79311084' size-in-bits='64' id='b9c57915'/>
    <!-- __gnu_cxx::__normal_iterator<unsigned char*, std::vector<unsigned char, std::allocator<unsigned char> > >& -->
    <reference-type-def kind='lvalue' type-id='c6d16ee0' size-in-bits='64' id='6567abfa'/>
    <!-- __gnu_cxx::__normal_iterator<unsigned char*, std::vector<unsigned char, std::allocator<unsigned char> > >* -->
    <pointer-type-def type-id='c6d16ee0' size-in-bits='64' id='59679916'/>
    <!-- __gnu_cxx::new_allocator<char>* -->
    <pointer-type-def type-id='ae3b5d4b' size-in-bits='64' id='33bb12fb'/>
    <!-- __gnu_cxx::new_allocator<long long int>* -->
    <pointer-type-def type-id='3460fb4a' size-in-bits='64' id='eb727b88'/>
    <!-- __gnu_cxx::new_allocator<unsigned char>* -->
    <pointer-type-def type-id='6936154e' size-in-bits='64' id='c1ee0ab4'/>
    <!-- __pthread_internal_list* -->
    <pointer-type-def type-id='0e01899c' size-in-bits='64' id='4d98cd5a'/>
    <!-- char& -->
    <reference-type-def kind='lvalue' type-id='a84c031d' size-in-bits='64' id='2aa915e1'/>
    <!-- char* -->
    <pointer-type-def type-id='a84c031d' size-in-bits='64' id='26a90f95'/>
    <!-- char*& -->
    <reference-type-def kind='lvalue' type-id='26a90f95' size-in-bits='64' id='8f23b6c9'/>
    <!-- char** -->
    <pointer-type-def type-id='26a90f95' size-in-bits='64' id='9b23c9ad'/>
    <!-- const __gnu_cxx::__normal_iterator<unsigned char*, std::vector<unsigned char, std::allocator<unsigned char> > > -->
    <qualified-type-def type-id='c6d16ee0' const='yes' id='2f361c7b'/>
    <!-- const __gnu_cxx::__normal_iterator<unsigned char*, std::vector<unsigned char, std::allocator<unsigned char> > >& -->
    <reference-type-def kind='lvalue' type-id='2f361c7b' size-in-bits='64' id='af2ea667'/>
    <!-- const __gnu_cxx::__normal_iterator<unsigned char*, std::vector<unsigned char, std::allocator<unsigned char> > >* -->
    <pointer-type-def type-id='2f361c7b' size-in-bits='64' id='a32e9383'/>
    <!-- const __gnu_cxx::new_allocator<char> -->
    <qualified-type-def type-id='ae3b5d4b' const='yes' id='ab34868e'/>
    <!-- const __gnu_cxx::new_allocator<char>& -->
    <reference-type-def kind='lvalue' type-id='ab34868e' size-in-bits='64' id='2baffa78'/>
    <!-- const __gnu_cxx::new_allocator<char>* -->
    <pointer-type-def type-id='ab34868e' size-in-bits='64' id='27aff42c'/>
    <!-- const __gnu_cxx::new_allocator<long long int> -->
    <qualified-type-def type-id='3460fb4a' const='yes' id='9ab26249'/>
    <!-- const __gnu_cxx::new_allocator<long long int>& -->
    <reference-type-def kind='lvalue' type-id='9ab26249' size-in-bits='64' id='f5d0f4bd'/>
    <!-- const __gnu_cxx::new_allocator<long long int>* -->
    <pointer-type-def type-id='9ab26249' size-in-bits='64' id='e9d0e1d9'/>
    <!-- const __gnu_cxx::new_allocator<unsigned char> -->
    <qualified-type-def type-id='6936154e' const='yes' id='984474d9'/>
    <!-- const __gnu_cxx::new_allocator<unsigned char>& -->
    <reference-type-def kind='lvalue' type-id='984474d9' size-in-bits='64' id='b2c42d6d'/>
    <!-- const __gnu_cxx::new_allocator<unsigned char>* -->
    <pointer-type-def type-id='984474d9' size-in-bits='64' id='a6c41a89'/>
    <!-- const __int32_t -->
    <qualified-type-def type-id='33f57a65' const='yes' id='21fd6035'/>
    <!-- const __int32_t* -->
    <pointer-type-def type-id='21fd6035' size-in-bits='64' id='a0de50cd'/>
    <!-- const char -->
    <qualified-type-def type-id='a84c031d' const='yes' id='9b45d938'/>
    <!-- const char& -->
    <reference-type-def kind='lvalue' type-id='9b45d938' size-in-bits='64' id='8cf4ca3a'/>
    <!-- const char* -->
    <pointer-type-def type-id='9b45d938' size-in-bits='64' id='80f4b756'/>
    <!-- const char** -->
    <pointer-type-def type-id='80f4b756' size-in-bits='64' id='7d3cd834'/>
    <!-- const double -->
    <qualified-type-def type-id='a0eb0f08' const='yes' id='c80c3491'/>
    <!-- const double* -->
    <pointer-type-def type-id='c80c3491' size-in-bits='64' id='a6370261'/>
    <!-- const float -->
    <qualified-type-def type-id='a6c45d85' const='yes' id='73f3791e'/>
    <!-- const float* -->
    <pointer-type-def type-id='73f3791e' size-in-bits='64' id='bc47ccdc'/>
    <!-- const fpos_t -->
    <qualified-type-def type-id='e322b6ef' const='yes' id='59d28eff'/>
    <!-- const fpos_t* -->
    <pointer-type-def type-id='59d28eff' size-in-bits='64' id='3b76d94f'/>
    <!-- const int -->
    <qualified-type-def type-id='95e97e5e' const='yes' id='2448a865'/>
    <!-- const int* -->
    <pointer-type-def type-id='2448a865' size-in-bits='64' id='6d60f45d'/>
    <!-- const long long int -->
    <qualified-type-def type-id='1eb56b1e' const='yes' id='ca7c9639'/>
    <!-- const long long int& -->
    <reference-type-def kind='lvalue' type-id='ca7c9639' size-in-bits='64' id='e12052cd'/>
    <!-- const long long int* -->
    <pointer-type-def type-id='ca7c9639' size-in-bits='64' id='d5203fe9'/>
    <!-- const mbstate_t -->
    <qualified-type-def type-id='3d7d8cbf' const='yes' id='7411c98f'/>
    <!-- const mbstate_t* -->
    <pointer-type-def type-id='7411c98f' size-in-bits='64' id='5d006ebf'/>
    <!-- const ptrdiff_t -->
    <qualified-type-def type-id='fc84bffe' const='yes' id='ba5c718e'/>
    <!-- const ptrdiff_t& -->
    <reference-type-def kind='lvalue' type-id='ba5c718e' size-in-bits='64' id='0786eb78'/>
    <!-- const size_t -->
    <qualified-type-def type-id='b59d7dce' const='yes' id='d0fa5dde'/>
    <!-- const size_t& -->
    <reference-type-def kind='lvalue' type-id='d0fa5dde' size-in-bits='64' id='f221ed68'/>
    <!-- const std::_Resetiosflags::fmtflags -->
    <qualified-type-def type-id='08d452fb' const='yes' id='571489ab'/>
    <!-- const std::_Vector_base<long long int, std::allocator<long long int> > -->
    <qualified-type-def type-id='9af3c6ae' const='yes' id='996e91f7'/>
    <!-- const std::_Vector_base<long long int, std::allocator<long long int> >* -->
    <pointer-type-def type-id='996e91f7' size-in-bits='64' id='660f9ee7'/>
    <!-- const std::_Vector_base<unsigned char, std::allocator<unsigned char> > -->
    <qualified-type-def type-id='6d9922f6' const='yes' id='6de2e41f'/>
    <!-- const std::_Vector_base<unsigned char, std::allocator<unsigned char> >* -->
    <pointer-type-def type-id='6de2e41f' size-in-bits='64' id='312d3f6f'/>
    <!-- const std::__basic_file<char> -->
    <qualified-type-def type-id='03cd47eb' const='yes' id='4d8087c8'/>
    <!-- const std::__basic_file<char>* -->
    <pointer-type-def type-id='4d8087c8' size-in-bits='64' id='e355e8c6'/>
    <!-- const std::__basic_file<char>::openmode -->
    <qualified-type-def type-id='b545deb7' const='yes' id='141f5be7'/>
    <!-- const std::__basic_file<char>::seekdir -->
    <qualified-type-def type-id='df669193' const='yes' id='f5bda603'/>
    <!-- const std::__miter_base<const vtkCommunicator::ReduceVoidArray::VTK_TT*, false>::VTK_TT -->
    <qualified-type-def type-id='19f6e221' const='yes' id='1af435d1'/>
    <!-- const std::__miter_base<const vtkCommunicator::ReduceVoidArray::VTK_TT*, false>::VTK_TT& -->
    <reference-type-def kind='lvalue' type-id='1af435d1' size-in-bits='64' id='6570f3d5'/>
    <!-- const std::__miter_base<const vtkCommunicator::ReduceVoidArray::VTK_TT*, false>::VTK_TT* -->
    <pointer-type-def type-id='1af435d1' size-in-bits='64' id='6970fa21'/>
    <!-- const std::allocator<char> -->
    <qualified-type-def type-id='eb166b35' const='yes' id='43f3d2f8'/>
    <!-- const std::allocator<char>& -->
    <reference-type-def kind='lvalue' type-id='43f3d2f8' size-in-bits='64' id='d6d4f37a'/>
    <!-- const std::allocator<long long int> -->
    <qualified-type-def type-id='6143f8c4' const='yes' id='d024880b'/>
    <!-- const std::allocator<long long int>& -->
    <reference-type-def kind='lvalue' type-id='d024880b' size-in-bits='64' id='d6825ed7'/>
    <!-- const std::allocator<unsigned char> -->
    <qualified-type-def type-id='97154bcc' const='yes' id='39b096cf'/>
    <!-- const std::allocator<unsigned char>& -->
    <reference-type-def kind='lvalue' type-id='39b096cf' size-in-bits='64' id='b9fd90cb'/>
    <!-- const std::basic_ios<char, std::char_traits<char> > -->
    <qualified-type-def type-id='f13e525d' const='yes' id='18473e42'/>
    <!-- const std::basic_ios<char, std::char_traits<char> >* -->
    <pointer-type-def type-id='18473e42' size-in-bits='64' id='a0273db8'/>
    <!-- const std::basic_ios<char, std::char_traits<char> >::iostate -->
    <qualified-type-def type-id='2dca02ab' const='yes' id='f2e7f6fb'/>
    <!-- const std::basic_string<char, std::char_traits<char>, std::allocator<char> > -->
    <qualified-type-def type-id='c2931f67' const='yes' id='69463a72'/>
    <!-- const std::basic_string<char, std::char_traits<char>, std::allocator<char> >& -->
    <reference-type-def kind='lvalue' type-id='69463a72' size-in-bits='64' id='0d8dd23c'/>
    <!-- const std::basic_string<char, std::char_traits<char>, std::allocator<char> >* -->
    <pointer-type-def type-id='69463a72' size-in-bits='64' id='118dd888'/>
    <!-- const std::char_traits<char>::char_type -->
    <qualified-type-def type-id='d3b6d5a2' const='yes' id='1c751112'/>
    <!-- const std::char_traits<char>::char_type& -->
    <reference-type-def kind='lvalue' type-id='1c751112' size-in-bits='64' id='004a14dc'/>
    <!-- const std::char_traits<char>::char_type* -->
    <pointer-type-def type-id='1c751112' size-in-bits='64' id='044a1b28'/>
    <!-- const std::char_traits<char>::int_type -->
    <qualified-type-def type-id='e967275f' const='yes' id='dda95aaf'/>
    <!-- const std::char_traits<char>::int_type& -->
    <reference-type-def kind='lvalue' type-id='dda95aaf' size-in-bits='64' id='7a9985ab'/>
    <!-- const std::ctype<char> -->
    <qualified-type-def type-id='164a43cd' const='yes' id='f84c8cb8'/>
    <!-- const std::ctype<char>& -->
    <reference-type-def kind='lvalue' type-id='f84c8cb8' size-in-bits='64' id='7e815cba'/>
    <!-- const std::ctype<char>* -->
    <pointer-type-def type-id='f84c8cb8' size-in-bits='64' id='728149d6'/>
    <!-- const std::string -->
    <qualified-type-def type-id='4a30a7f0' const='yes' id='24010e40'/>
    <!-- const std::string& -->
    <reference-type-def kind='lvalue' type-id='24010e40' size-in-bits='64' id='13a9aa92'/>
    <!-- const std::vector<long long int, std::allocator<long long int> > -->
    <qualified-type-def type-id='b076a8c1' const='yes' id='cb805ea0'/>
    <!-- const std::vector<long long int, std::allocator<long long int> >& -->
    <reference-type-def kind='lvalue' type-id='cb805ea0' size-in-bits='64' id='e114ccf2'/>
    <!-- const std::vector<long long int, std::allocator<long long int> >* -->
    <pointer-type-def type-id='cb805ea0' size-in-bits='64' id='e514d33e'/>
    <!-- const std::vector<unsigned char, std::allocator<unsigned char> > -->
    <qualified-type-def type-id='31951281' const='yes' id='928d8650'/>
    <!-- const std::vector<unsigned char, std::allocator<unsigned char> >& -->
    <reference-type-def kind='lvalue' type-id='928d8650' size-in-bits='64' id='2acaabc2'/>
    <!-- const std::vector<unsigned char, std::allocator<unsigned char> >* -->
    <pointer-type-def type-id='928d8650' size-in-bits='64' id='2ecab20e'/>
    <!-- const tm -->
    <qualified-type-def type-id='dddf6ca2' const='yes' id='e824a34f'/>
    <!-- const tm* -->
    <pointer-type-def type-id='e824a34f' size-in-bits='64' id='d6ad37ff'/>
    <!-- const unsigned char -->
    <qualified-type-def type-id='002ac4a6' const='yes' id='ea86de29'/>
    <!-- const unsigned char& -->
    <reference-type-def kind='lvalue' type-id='ea86de29' size-in-bits='64' id='414f919d'/>
    <!-- const unsigned char* -->
    <pointer-type-def type-id='ea86de29' size-in-bits='64' id='354f7eb9'/>
    <!-- const unsigned int -->
    <qualified-type-def type-id='f0981eeb' const='yes' id='20f5f452'/>
    <!-- const unsigned int* -->
    <pointer-type-def type-id='20f5f452' size-in-bits='64' id='5b2fd8e8'/>
    <!-- const unsigned long int -->
    <qualified-type-def type-id='7359adad' const='yes' id='9cbd1c16'/>
    <!-- const unsigned long int* -->
    <pointer-type-def type-id='9cbd1c16' size-in-bits='64' id='f9b37274'/>
    <!-- const vtkBoundingBox -->
    <qualified-type-def type-id='1e4b9615' const='yes' id='a07e0224'/>
    <!-- const vtkBoundingBox& -->
    <reference-type-def kind='lvalue' type-id='a07e0224' size-in-bits='64' id='a85d2926'/>
    <!-- const vtkBoundingBox* -->
    <pointer-type-def type-id='a07e0224' size-in-bits='64' id='b45d3c0a'/>
    <!-- const vtkCommunicator -->
    <qualified-type-def type-id='e4440c73' const='yes' id='a8c9bd28'/>
    <!-- const vtkCommunicator& -->
    <reference-type-def kind='lvalue' type-id='a8c9bd28' size-in-bits='64' id='c3949d0a'/>
    <!-- const vtkCommunicator* -->
    <pointer-type-def type-id='a8c9bd28' size-in-bits='64' id='b7948a26'/>
    <!-- const vtkDataObject -->
    <qualified-type-def type-id='1aa5f6c3' const='yes' id='15eeadb4'/>
    <!-- const vtkDataObject* -->
    <pointer-type-def type-id='15eeadb4' size-in-bits='64' id='24bb4fba'/>
    <!-- const vtkIdType -->
    <qualified-type-def type-id='7dc2ef22' const='yes' id='58087832'/>
    <!-- const vtkIdType* -->
    <pointer-type-def type-id='58087832' size-in-bits='64' id='ad550dc8'/>
    <!-- const vtkMultiProcessStream -->
    <qualified-type-def type-id='71cb3696' const='yes' id='bcc8c065'/>
    <!-- const vtkMultiProcessStream& -->
    <reference-type-def kind='lvalue' type-id='bcc8c065' size-in-bits='64' id='7306a979'/>
    <!-- const vtkMultiProcessStream* -->
    <pointer-type-def type-id='bcc8c065' size-in-bits='64' id='7f06bc5d'/>
    <!-- const vtkOStreamWrapper::EndlType -->
    <qualified-type-def type-id='11abefc7' const='yes' id='eacbfb54'/>
    <!-- const vtkOStreamWrapper::EndlType& -->
    <reference-type-def kind='lvalue' type-id='eacbfb54' size-in-bits='64' id='111cd476'/>
    <!-- const vtkSmartPointer<vtkCharArray> -->
    <qualified-type-def type-id='e1959c4c' const='yes' id='5256dd5b'/>
    <!-- const vtkSmartPointer<vtkCharArray>* -->
    <pointer-type-def type-id='5256dd5b' size-in-bits='64' id='0fbe98e3'/>
    <!-- const vtkSmartPointer<vtkDataObject> -->
    <qualified-type-def type-id='2e8e1f58' const='yes' id='ed45284d'/>
    <!-- const vtkSmartPointer<vtkDataObject>* -->
    <pointer-type-def type-id='ed45284d' size-in-bits='64' id='eade9a25'/>
    <!-- const vtkSmartPointer<vtkGenericDataObjectReader> -->
    <qualified-type-def type-id='cf9884a8' const='yes' id='28106f67'/>
    <!-- const vtkSmartPointer<vtkGenericDataObjectReader>* -->
    <pointer-type-def type-id='28106f67' size-in-bits='64' id='5edf3637'/>
    <!-- const vtkSmartPointer<vtkGenericDataObjectWriter> -->
    <qualified-type-def type-id='1d7707ac' const='yes' id='2eed3ebb'/>
    <!-- const vtkSmartPointer<vtkGenericDataObjectWriter>* -->
    <pointer-type-def type-id='2eed3ebb' size-in-bits='64' id='70797e43'/>
    <!-- const vtkSmartPointerBase -->
    <qualified-type-def type-id='f1051367' const='yes' id='f916802c'/>
    <!-- const vtkSmartPointerBase& -->
    <reference-type-def kind='lvalue' type-id='f916802c' size-in-bits='64' id='286b8fbe'/>
    <!-- const vtkSmartPointerBase* -->
    <pointer-type-def type-id='f916802c' size-in-bits='64' id='246b8972'/>
    <!-- const vtkSmartPointerBase::NoReference -->
    <qualified-type-def type-id='a54445e1' const='yes' id='2377a8b4'/>
    <!-- const vtkSmartPointerBase::NoReference& -->
    <reference-type-def kind='lvalue' type-id='2377a8b4' size-in-bits='64' id='675e5dd6'/>
    <!-- const wchar_t -->
    <qualified-type-def type-id='c523b9f1' const='yes' id='effb3702'/>
    <!-- const wchar_t* -->
    <pointer-type-def type-id='effb3702' size-in-bits='64' id='f077d3f8'/>
    <!-- const wchar_t** -->
    <pointer-type-def type-id='f077d3f8' size-in-bits='64' id='5ea27396'/>
    <!-- double& -->
    <reference-type-def kind='lvalue' type-id='a0eb0f08' size-in-bits='64' id='8008e56a'/>
    <!-- double* -->
    <pointer-type-def type-id='a0eb0f08' size-in-bits='64' id='7408d286'/>
    <!-- double*& -->
    <reference-type-def kind='lvalue' type-id='7408d286' size-in-bits='64' id='49e391e0'/>
    <!-- float& -->
    <reference-type-def kind='lvalue' type-id='a6c45d85' size-in-bits='64' id='2a1f6799'/>
    <!-- float* -->
    <pointer-type-def type-id='a6c45d85' size-in-bits='64' id='361f7a7d'/>
    <!-- float*& -->
    <reference-type-def kind='lvalue' type-id='361f7a7d' size-in-bits='64' id='8e8d9d41'/>
    <!-- fpos_t* -->
    <pointer-type-def type-id='e322b6ef' size-in-bits='64' id='c5f12884'/>
    <!-- int (void*, void*)* -->
    <pointer-type-def type-id='96ee24a5' size-in-bits='64' id='585e1de9'/>
    <!-- int& -->
    <reference-type-def kind='lvalue' type-id='95e97e5e' size-in-bits='64' id='769216e8'/>
    <!-- int* -->
    <pointer-type-def type-id='95e97e5e' size-in-bits='64' id='7292109c'/>
    <!-- int*& -->
    <reference-type-def kind='lvalue' type-id='7292109c' size-in-bits='64' id='15f054ce'/>
    <!-- lconv* -->
    <pointer-type-def type-id='58591d3d' size-in-bits='64' id='d83ac36d'/>
    <!-- long long int& -->
    <reference-type-def kind='lvalue' type-id='1eb56b1e' size-in-bits='64' id='8f97c928'/>
    <!-- long long int* -->
    <pointer-type-def type-id='1eb56b1e' size-in-bits='64' id='8b97c2dc'/>
    <!-- mbstate_t* -->
    <pointer-type-def type-id='3d7d8cbf' size-in-bits='64' id='a68021ce'/>
    <!-- std::_Bit_type* -->
    <pointer-type-def type-id='1ee7c18a' size-in-bits='64' id='3113c6cb'/>
    <!-- std::_Vector_base<long long int, std::allocator<long long int> >* -->
    <pointer-type-def type-id='9af3c6ae' size-in-bits='64' id='4095c424'/>
    <!-- std::_Vector_base<long long int, std::allocator<long long int> >::_Vector_impl* -->
    <pointer-type-def type-id='c1111393' size-in-bits='64' id='d4c69033'/>
    <!-- std::_Vector_base<unsigned char, std::allocator<unsigned char> >* -->
    <pointer-type-def type-id='6d9922f6' size-in-bits='64' id='72b2d84c'/>
    <!-- std::_Vector_base<unsigned char, std::allocator<unsigned char> >::_Vector_impl* -->
    <pointer-type-def type-id='d026921b' size-in-bits='64' id='37b67ebb'/>
    <!-- std::__basic_file<char>* -->
    <pointer-type-def type-id='03cd47eb' size-in-bits='64' id='7bd659ab'/>
    <!-- std::__c_file* -->
    <pointer-type-def type-id='82984273' size-in-bits='64' id='c2cec1de'/>
    <!-- std::__c_lock* -->
    <pointer-type-def type-id='024271f2' size-in-bits='64' id='c0f1dfa1'/>
    <!-- std::__miter_base<const vtkCommunicator::ReduceVoidArray::VTK_TT*, false>::VTK_TT* -->
    <pointer-type-def type-id='19f6e221' size-in-bits='64' id='24885fd4'/>
    <!-- std::allocator<char>* -->
    <pointer-type-def type-id='eb166b35' size-in-bits='64' id='4acb8155'/>
    <!-- std::allocator<long long int>& -->
    <reference-type-def kind='lvalue' type-id='6143f8c4' size-in-bits='64' id='d6acf13e'/>
    <!-- std::allocator<long long int>* -->
    <pointer-type-def type-id='6143f8c4' size-in-bits='64' id='d2aceaf2'/>
    <!-- std::allocator<unsigned char>& -->
    <reference-type-def kind='lvalue' type-id='97154bcc' size-in-bits='64' id='a6807896'/>
    <!-- std::allocator<unsigned char>* -->
    <pointer-type-def type-id='97154bcc' size-in-bits='64' id='b2808b7a'/>
    <!-- std::basic_ios<char, std::char_traits<char> >* -->
    <pointer-type-def type-id='f13e525d' size-in-bits='64' id='45fd5b9d'/>
    <!-- std::basic_ostream<char, std::char_traits<char> >& -->
    <reference-type-def kind='lvalue' type-id='774b367d' size-in-bits='64' id='59cdd279'/>
    <!-- std::basic_ostream<char, std::char_traits<char> >& (std::basic_ostream<char, std::char_traits<char> >&)* -->
    <pointer-type-def type-id='9aa08498' size-in-bits='64' id='b3ef42b2'/>
    <!-- std::basic_ostream<char, std::char_traits<char> >* -->
    <pointer-type-def type-id='774b367d' size-in-bits='64' id='65cde55d'/>
    <!-- std::basic_string<char, std::char_traits<char>, std::allocator<char> >& -->
    <reference-type-def kind='lvalue' type-id='c2931f67' size-in-bits='64' id='1a9350bb'/>
    <!-- std::basic_string<char, std::char_traits<char>, std::allocator<char> >* -->
    <pointer-type-def type-id='c2931f67' size-in-bits='64' id='16934a6f'/>
    <!-- std::basic_string<char, std::char_traits<char>, std::allocator<char> >::_Alloc_hider* -->
    <pointer-type-def type-id='bab0e33c' size-in-bits='64' id='daf943aa'/>
    <!-- std::basic_string<char, std::char_traits<char>, std::allocator<char> >::_Rep& -->
    <reference-type-def kind='lvalue' type-id='34601093' size-in-bits='64' id='6f1c93e7'/>
    <!-- std::basic_string<char, std::char_traits<char>, std::allocator<char> >::_Rep* -->
    <pointer-type-def type-id='34601093' size-in-bits='64' id='631c8103'/>
    <!-- std::char_traits<char>::char_type& -->
    <reference-type-def kind='lvalue' type-id='d3b6d5a2' size-in-bits='64' id='e28cef01'/>
    <!-- std::char_traits<char>::char_type* -->
    <pointer-type-def type-id='d3b6d5a2' size-in-bits='64' id='de8ce8b5'/>
    <!-- std::ios_base& -->
    <reference-type-def kind='lvalue' type-id='1a0bf4cd' size-in-bits='64' id='7ad58d19'/>
    <!-- std::ios_base::Init* -->
    <pointer-type-def type-id='e225edbb' size-in-bits='64' id='9565452b'/>
    <!-- std::ostream& -->
    <reference-type-def kind='lvalue' type-id='a8e08226' size-in-bits='64' id='d19833bf'/>
    <!-- std::string& -->
    <reference-type-def kind='lvalue' type-id='4a30a7f0' size-in-bits='64' id='0f5b8043'/>
    <!-- std::vector<long long int, std::allocator<long long int> >& -->
    <reference-type-def kind='lvalue' type-id='b076a8c1' size-in-bits='64' id='d5f8f32d'/>
    <!-- std::vector<long long int, std::allocator<long long int> >* -->
    <pointer-type-def type-id='b076a8c1' size-in-bits='64' id='c9f8e049'/>
    <!-- std::vector<unsigned char, std::allocator<unsigned char> >& -->
    <reference-type-def kind='lvalue' type-id='31951281' size-in-bits='64' id='7512b6ad'/>
    <!-- std::vector<unsigned char, std::allocator<unsigned char> >* -->
    <pointer-type-def type-id='31951281' size-in-bits='64' id='6912a3c9'/>
    <!-- typedef __va_list_tag __va_list_tag* -->
    <pointer-type-def type-id='ce184e0c' size-in-bits='64' id='38f76a2a'/>
    <!-- unsigned char& -->
    <reference-type-def kind='lvalue' type-id='002ac4a6' size-in-bits='64' id='c3535580'/>
    <!-- unsigned char* -->
    <pointer-type-def type-id='002ac4a6' size-in-bits='64' id='cf536864'/>
    <!-- unsigned char* const -->
    <qualified-type-def type-id='cf536864' const='yes' id='b0327aaf'/>
    <!-- unsigned char* const& -->
    <reference-type-def kind='lvalue' type-id='b0327aaf' size-in-bits='64' id='e876e5ab'/>
    <!-- unsigned char*& -->
    <reference-type-def kind='lvalue' type-id='cf536864' size-in-bits='64' id='a24d1fe6'/>
    <!-- unsigned int& -->
    <reference-type-def kind='lvalue' type-id='f0981eeb' size-in-bits='64' id='8c787cb7'/>
    <!-- unsigned int* -->
    <pointer-type-def type-id='f0981eeb' size-in-bits='64' id='807869d3'/>
    <!-- unsigned int*& -->
    <reference-type-def kind='lvalue' type-id='807869d3' size-in-bits='64' id='328eccaf'/>
    <!-- unsigned long int* -->
    <pointer-type-def type-id='7359adad' size-in-bits='64' id='1d2c2b85'/>
    <!-- void ()* -->
    <pointer-type-def type-id='ee076206' size-in-bits='64' id='953b12f8'/>
    <!-- void* -->
    <pointer-type-def type-id='48b5725f' size-in-bits='64' id='eaa32e2f'/>
    <!-- vtkAbstractArray* -->
    <pointer-type-def type-id='3f5734c3' size-in-bits='64' id='bb8080a3'/>
    <!-- vtkBoundingBox& -->
    <reference-type-def kind='lvalue' type-id='1e4b9615' size-in-bits='64' id='be97f7c1'/>
    <!-- vtkBoundingBox* -->
    <pointer-type-def type-id='1e4b9615' size-in-bits='64' id='ba97f175'/>
    <!-- vtkCharArray& -->
    <reference-type-def kind='lvalue' type-id='a70ea625' size-in-bits='64' id='163f21d1'/>
    <!-- vtkCharArray* -->
    <pointer-type-def type-id='a70ea625' size-in-bits='64' id='123f1b85'/>
    <!-- vtkCommunicator* -->
    <pointer-type-def type-id='e4440c73' size-in-bits='64' id='08e57073'/>
    <!-- vtkCommunicator::Operation* -->
    <pointer-type-def type-id='d0b17aa0' size-in-bits='64' id='ee4d60a6'/>
    <!-- vtkCommunicatorBitwiseAndClass* -->
    <pointer-type-def type-id='5987e369' size-in-bits='64' id='b400eae1'/>
    <!-- vtkCommunicatorBitwiseOrClass* -->
    <pointer-type-def type-id='ef63cb15' size-in-bits='64' id='d93ffae5'/>
    <!-- vtkCommunicatorBitwiseXorClass* -->
    <pointer-type-def type-id='1532d331' size-in-bits='64' id='3a7c8459'/>
    <!-- vtkCommunicatorLogicalAndClass* -->
    <pointer-type-def type-id='5a3684fd' size-in-bits='64' id='e74273fd'/>
    <!-- vtkCommunicatorLogicalOrClass* -->
    <pointer-type-def type-id='31407eb9' size-in-bits='64' id='8e412681'/>
    <!-- vtkCommunicatorLogicalXorClass* -->
    <pointer-type-def type-id='db81907d' size-in-bits='64' id='0fadf1ed'/>
    <!-- vtkCommunicatorMaxClass* -->
    <pointer-type-def type-id='0bfe38ad' size-in-bits='64' id='478d0c8d'/>
    <!-- vtkCommunicatorMinClass* -->
    <pointer-type-def type-id='e97d00bf' size-in-bits='64' id='1f1c6ac7'/>
    <!-- vtkCommunicatorProductClass* -->
    <pointer-type-def type-id='80b7e93a' size-in-bits='64' id='87d8acc8'/>
    <!-- vtkCommunicatorSumClass* -->
    <pointer-type-def type-id='2e630386' size-in-bits='64' id='7305775c'/>
    <!-- vtkDataArray* -->
    <pointer-type-def type-id='6761cb89' size-in-bits='64' id='8c488431'/>
    <!-- vtkDataArrayTemplate<char>* -->
    <pointer-type-def type-id='4368ae3d' size-in-bits='64' id='9f701cbd'/>
    <!-- vtkDataObject& -->
    <reference-type-def kind='lvalue' type-id='1aa5f6c3' size-in-bits='64' id='158d72c7'/>
    <!-- vtkDataObject* -->
    <pointer-type-def type-id='1aa5f6c3' size-in-bits='64' id='098d5fe3'/>
    <!-- vtkDataSet* -->
    <pointer-type-def type-id='e782cb3c' size-in-bits='64' id='e36623aa'/>
    <!-- vtkDataWriter* -->
    <pointer-type-def type-id='19827543' size-in-bits='64' id='09a2a693'/>
    <!-- vtkGarbageCollector* -->
    <pointer-type-def type-id='2847f56a' size-in-bits='64' id='317081b8'/>
    <!-- vtkGenericDataObjectReader& -->
    <reference-type-def kind='lvalue' type-id='d99d6ab1' size-in-bits='64' id='1327a04d'/>
    <!-- vtkGenericDataObjectReader* -->
    <pointer-type-def type-id='d99d6ab1' size-in-bits='64' id='07278d69'/>
    <!-- vtkGenericDataObjectWriter& -->
    <reference-type-def kind='lvalue' type-id='343a0fe1' size-in-bits='64' id='82b77dad'/>
    <!-- vtkGenericDataObjectWriter* -->
    <pointer-type-def type-id='343a0fe1' size-in-bits='64' id='76b76ac9'/>
    <!-- vtkIdType* -->
    <pointer-type-def type-id='7dc2ef22' size-in-bits='64' id='9196db11'/>
    <!-- vtkImageData* -->
    <pointer-type-def type-id='0da09719' size-in-bits='64' id='19895351'/>
    <!-- vtkIndent* -->
    <pointer-type-def type-id='dcc9227a' size-in-bits='64' id='2cffa8f8'/>
    <!-- vtkMultiBlockDataSet* -->
    <pointer-type-def type-id='5f3981b6' size-in-bits='64' id='a5b95efc'/>
    <!-- vtkMultiProcessStream& -->
    <reference-type-def kind='lvalue' type-id='71cb3696' size-in-bits='64' id='c4a2a9e8'/>
    <!-- vtkMultiProcessStream* -->
    <pointer-type-def type-id='71cb3696' size-in-bits='64' id='c0a2a39c'/>
    <!-- vtkMultiProcessStream::vtkInternals* -->
    <pointer-type-def type-id='a56ddd15' size-in-bits='64' id='9e4cf7a5'/>
    <!-- vtkObjectBase* -->
    <pointer-type-def type-id='5bed7e06' size-in-bits='64' id='3f9da73c'/>
    <!-- vtkRectilinearGrid* -->
    <pointer-type-def type-id='ad884e1c' size-in-bits='64' id='dfa427ba'/>
    <!-- vtkSmartPointer<vtkCharArray>& -->
    <reference-type-def kind='lvalue' type-id='e1959c4c' size-in-bits='64' id='d1c36d76'/>
    <!-- vtkSmartPointer<vtkCharArray>* -->
    <pointer-type-def type-id='e1959c4c' size-in-bits='64' id='ddc3805a'/>
    <!-- vtkSmartPointer<vtkDataObject>& -->
    <reference-type-def kind='lvalue' type-id='2e8e1f58' size-in-bits='64' id='c53b7e02'/>
    <!-- vtkSmartPointer<vtkDataObject>* -->
    <pointer-type-def type-id='2e8e1f58' size-in-bits='64' id='c93b844e'/>
    <!-- vtkSmartPointer<vtkGenericDataObjectReader>& -->
    <reference-type-def kind='lvalue' type-id='cf9884a8' size-in-bits='64' id='8c573102'/>
    <!-- vtkSmartPointer<vtkGenericDataObjectReader>* -->
    <pointer-type-def type-id='cf9884a8' size-in-bits='64' id='9057374e'/>
    <!-- vtkSmartPointer<vtkGenericDataObjectWriter>& -->
    <reference-type-def kind='lvalue' type-id='1d7707ac' size-in-bits='64' id='32dfcea6'/>
    <!-- vtkSmartPointer<vtkGenericDataObjectWriter>* -->
    <pointer-type-def type-id='1d7707ac' size-in-bits='64' id='3edfe18a'/>
    <!-- vtkSmartPointerBase& -->
    <reference-type-def kind='lvalue' type-id='f1051367' size-in-bits='64' id='5f6235fb'/>
    <!-- vtkSmartPointerBase* -->
    <pointer-type-def type-id='f1051367' size-in-bits='64' id='5b622faf'/>
    <!-- vtkStructuredGrid* -->
    <pointer-type-def type-id='b43c45b3' size-in-bits='64' id='6527c983'/>
    <!-- vtkTypeInt64& -->
    <reference-type-def kind='lvalue' type-id='b8ec660a' size-in-bits='64' id='20739c63'/>
    <!-- vtkTypeInt64* -->
    <pointer-type-def type-id='b8ec660a' size-in-bits='64' id='2c73af47'/>
    <!-- vtkTypeInt64*& -->
    <reference-type-def kind='lvalue' type-id='2c73af47' size-in-bits='64' id='5b1d15b3'/>
    <!-- vtkTypeUInt64& -->
    <reference-type-def kind='lvalue' type-id='6be9ba65' size-in-bits='64' id='be4073d0'/>
    <!-- vtkTypeUInt64* -->
    <pointer-type-def type-id='6be9ba65' size-in-bits='64' id='ca4086b4'/>
    <!-- vtkTypeUInt64*& -->
    <reference-type-def kind='lvalue' type-id='ca4086b4' size-in-bits='64' id='f593d7d6'/>
    <!-- wchar_t* -->
    <pointer-type-def type-id='c523b9f1' size-in-bits='64' id='323d93c1'/>
    <!-- wchar_t** -->
    <pointer-type-def type-id='323d93c1' size-in-bits='64' id='01efdaf1'/>
    <!-- struct vtkAbstractArray -->
    <class-decl name='vtkAbstractArray' is-struct='yes' visibility='default' is-declaration-only='yes' id='3f5734c3'>
      <member-function access='public'>
        <!-- int vtkAbstractArray::GetNumberOfComponents() -->
        <function-decl name='GetNumberOfComponents' mangled-name='_ZN16vtkAbstractArray21GetNumberOfComponentsEv' filepath='/tmp/legendre/spack-stage/spack-stage-R_crTC/VTK-6.1.0/Common/Core/vtkAbstractArray.h' line='98' column='1' visibility='default' binding='global' size-in-bits='64'>
          <!-- implicit parameter of type 'vtkAbstractArray*' -->
          <parameter type-id='bb8080a3' is-artificial='yes'/>
          <!-- int -->
          <return type-id='95e97e5e'/>
        </function-decl>
      </member-function>
      <member-function access='public'>
        <!-- vtkIdType vtkAbstractArray::GetNumberOfTuples() -->
        <function-decl name='GetNumberOfTuples' mangled-name='_ZN16vtkAbstractArray17GetNumberOfTuplesEv' filepath='/tmp/legendre/spack-stage/spack-stage-R_crTC/VTK-6.1.0/Common/Core/vtkAbstractArray.h' line='128' column='1' visibility='default' binding='global' size-in-bits='64'>
          <!-- implicit parameter of type 'vtkAbstractArray*' -->
          <parameter type-id='bb8080a3' is-artificial='yes'/>
          <!-- typedef vtkIdType -->
          <return type-id='7dc2ef22'/>
        </function-decl>
      </member-function>
    </class-decl>
    <!-- class vtkCharArray -->
    <class-decl name='vtkCharArray' visibility='default' is-declaration-only='yes' id='a70ea625'/>
    <!-- class vtkDataArray -->
    <class-decl name='vtkDataArray' visibility='default' is-declaration-only='yes' id='6761cb89'/>
    <!-- class vtkDataArrayTemplate<char> -->
    <class-decl name='vtkDataArrayTemplate&lt;char&gt;' visibility='default' is-declaration-only='yes' id='4368ae3d'>
      <member-type access='private'>
        <!-- enum vtkDataArrayTemplate<char>::DeleteMethod -->
        <enum-decl name='DeleteMethod' filepath='/tmp/legendre/spack-stage/spack-stage-R_crTC/VTK-6.1.0/Common/Core/vtkDataArrayTemplate.h' line='254' column='1' id='a06ae90e'>
          <underlying-type type-id='9cac1fee'/>
          <enumerator name='VTK_DATA_ARRAY_FREE' value='0'/>
          <enumerator name='VTK_DATA_ARRAY_DELETE' value='1'/>
        </enum-decl>
      </member-type>
      <member-function access='private'>
        <!-- char* vtkDataArrayTemplate<char>::GetPointer(long long int) -->
        <function-decl name='GetPointer' mangled-name='_ZN20vtkDataArrayTemplateIcE10GetPointerEx' filepath='/tmp/legendre/spack-stage/spack-stage-R_crTC/VTK-6.1.0/Common/Core/vtkDataArrayTemplate.h' line='250' column='1' visibility='default' binding='global' size-in-bits='64'>
          <!-- implicit parameter of type 'vtkDataArrayTemplate<char>*' -->
          <parameter type-id='9f701cbd' is-artificial='yes'/>
          <!-- parameter of type 'long long int' -->
          <parameter type-id='1eb56b1e'/>
          <!-- char* -->
          <return type-id='26a90f95'/>
        </function-decl>
      </member-function>
      <member-function access='private'>
        <!-- void vtkDataArrayTemplate<char>::SetArray(char*, long long int, int) -->
        <function-decl name='SetArray' mangled-name='_ZN20vtkDataArrayTemplateIcE8SetArrayEPcxi' filepath='/tmp/legendre/spack-stage/spack-stage-R_crTC/VTK-6.1.0/Common/Core/vtkDataArrayTemplate.h' line='272' column='1' visibility='default' binding='global' size-in-bits='64'>
          <!-- implicit parameter of type 'vtkDataArrayTemplate<char>*' -->
          <parameter type-id='9f701cbd' is-artificial='yes'/>
          <!-- parameter of type 'char*' -->
          <parameter type-id='26a90f95'/>
          <!-- parameter of type 'long long int' -->
          <parameter type-id='1eb56b1e'/>
          <!-- parameter of type 'int' -->
          <parameter type-id='95e97e5e'/>
          <!-- void -->
          <return type-id='48b5725f'/>
        </function-decl>
      </member-function>
    </class-decl>
    <!-- class vtkDataObject -->
    <class-decl name='vtkDataObject' visibility='default' is-declaration-only='yes' id='1aa5f6c3'>
      <member-function access='private' static='yes'>
        <!-- vtkDataObject* vtkDataObject::SafeDownCast() -->
        <function-decl name='SafeDownCast' mangled-name='_ZN13vtkDataObject12SafeDownCastEP13vtkObjectBase' filepath='/tmp/legendre/spack-stage/spack-stage-R_crTC/VTK-6.1.0/Common/DataModel/vtkDataObject.h' line='61' column='1' visibility='default' binding='global' size-in-bits='64'>
          <!-- parameter of type 'vtkObjectBase*' -->
          <parameter type-id='3f9da73c'/>
          <!-- vtkDataObject* -->
          <return type-id='098d5fe3'/>
        </function-decl>
      </member-function>
      <member-function access='private'>
        <!-- vtkDataObject* vtkDataObject::NewInstance() -->
        <function-decl name='NewInstance' mangled-name='_ZNK13vtkDataObject11NewInstanceEv' filepath='/tmp/legendre/spack-stage/spack-stage-R_crTC/VTK-6.1.0/Common/DataModel/vtkDataObject.h' line='61' column='1' visibility='default' binding='global' size-in-bits='64'>
          <!-- implicit parameter of type 'const vtkDataObject*' -->
          <parameter type-id='24bb4fba' is-artificial='yes'/>
          <!-- vtkDataObject* -->
          <return type-id='098d5fe3'/>
        </function-decl>
      </member-function>
    </class-decl>
    <!-- class vtkDataSet -->
    <class-decl name='vtkDataSet' visibility='default' is-declaration-only='yes' id='e782cb3c'>
      <member-function access='private' static='yes'>
        <!-- vtkDataSet* vtkDataSet::SafeDownCast() -->
        <function-decl name='SafeDownCast' mangled-name='_ZN10vtkDataSet12SafeDownCastEP13vtkObjectBase' filepath='/tmp/legendre/spack-stage/spack-stage-R_crTC/VTK-6.1.0/Common/DataModel/vtkDataSet.h' line='55' column='1' visibility='default' binding='global' size-in-bits='64'>
          <!-- parameter of type 'vtkObjectBase*' -->
          <parameter type-id='3f9da73c'/>
          <!-- vtkDataSet* -->
          <return type-id='e36623aa'/>
        </function-decl>
      </member-function>
    </class-decl>
    <!-- class vtkDataWriter -->
    <class-decl name='vtkDataWriter' visibility='default' is-declaration-only='yes' id='19827543'>
      <member-function access='private'>
        <!-- void vtkDataWriter::SetFileTypeToBinary() -->
        <function-decl name='SetFileTypeToBinary' mangled-name='_ZN13vtkDataWriter19SetFileTypeToBinaryEv' filepath='/tmp/legendre/spack-stage/spack-stage-R_crTC/VTK-6.1.0/IO/Legacy/vtkDataWriter.h' line='94' column='1' visibility='default' binding='global' size-in-bits='64'>
          <!-- implicit parameter of type 'vtkDataWriter*' -->
          <parameter type-id='09a2a693' is-artificial='yes'/>
          <!-- void -->
          <return type-id='48b5725f'/>
        </function-decl>
      </member-function>
      <member-function access='private'>
        <!-- void vtkDataWriter::SetFileTypeToASCII() -->
        <function-decl name='SetFileTypeToASCII' mangled-name='_ZN13vtkDataWriter18SetFileTypeToASCIIEv' filepath='/tmp/legendre/spack-stage/spack-stage-R_crTC/VTK-6.1.0/IO/Legacy/vtkDataWriter.h' line='93' column='1' visibility='default' binding='global' size-in-bits='64'>
          <!-- implicit parameter of type 'vtkDataWriter*' -->
          <parameter type-id='09a2a693' is-artificial='yes'/>
          <!-- void -->
          <return type-id='48b5725f'/>
        </function-decl>
      </member-function>
    </class-decl>
    <!-- struct vtkGarbageCollector -->
    <class-decl name='vtkGarbageCollector' is-struct='yes' visibility='default' is-declaration-only='yes' id='2847f56a'/>
    <!-- class vtkGenericDataObjectReader -->
    <class-decl name='vtkGenericDataObjectReader' visibility='default' is-declaration-only='yes' id='d99d6ab1'/>
    <!-- class vtkGenericDataObjectWriter -->
    <class-decl name='vtkGenericDataObjectWriter' visibility='default' is-declaration-only='yes' id='343a0fe1'/>
    <!-- class vtkImageData -->
    <class-decl name='vtkImageData' visibility='default' is-declaration-only='yes' id='0da09719'>
      <member-function access='private' static='yes'>
        <!-- vtkImageData* vtkImageData::SafeDownCast() -->
        <function-decl name='SafeDownCast' mangled-name='_ZN12vtkImageData12SafeDownCastEP13vtkObjectBase' filepath='/tmp/legendre/spack-stage/spack-stage-R_crTC/VTK-6.1.0/Common/DataModel/vtkImageData.h' line='41' column='1' visibility='default' binding='global' size-in-bits='64'>
          <!-- parameter of type 'vtkObjectBase*' -->
          <parameter type-id='3f9da73c'/>
          <!-- vtkImageData* -->
          <return type-id='19895351'/>
        </function-decl>
      </member-function>
    </class-decl>
    <!-- struct vtkMultiBlockDataSet -->
    <class-decl name='vtkMultiBlockDataSet' is-struct='yes' visibility='default' is-declaration-only='yes' id='5f3981b6'/>
    <!-- class vtkOStreamWrapper -->
    <class-decl name='vtkOStreamWrapper' visibility='default' is-declaration-only='yes' id='6c0ba6d8'>
      <member-type access='private'>
        <!-- struct vtkOStreamWrapper::EndlType -->
        <class-decl name='EndlType' size-in-bits='8' is-struct='yes' visibility='default' filepath='/tmp/legendre/spack-stage/spack-stage-R_crTC/VTK-6.1.0/Common/Core/vtkOStreamWrapper.h' line='58' column='1' id='11abefc7'/>
      </member-type>
      <member-function access='private' static='yes'>
        <!-- void vtkOStreamWrapper::UseEndl() -->
        <function-decl name='UseEndl' mangled-name='_ZN17vtkOStreamWrapper7UseEndlERKNS_8EndlTypeE' filepath='/tmp/legendre/spack-stage/spack-stage-R_crTC/VTK-6.1.0/Common/Core/vtkOStreamWrapper.h' line='134' column='1' visibility='default' binding='global' size-in-bits='64'>
          <!-- parameter of type 'const vtkOStreamWrapper::EndlType&' -->
          <parameter type-id='111cd476'/>
          <!-- void -->
          <return type-id='48b5725f'/>
        </function-decl>
      </member-function>
    </class-decl>
    <!-- class vtkObject -->
    <class-decl name='vtkObject' visibility='default' is-declaration-only='yes' id='d3e73f1b'>
      <member-function access='private' static='yes'>
        <!-- int vtkObject::IsTypeOf() -->
        <function-decl name='IsTypeOf' mangled-name='_ZN9vtkObject8IsTypeOfEPKc' filepath='/tmp/legendre/spack-stage/spack-stage-R_crTC/VTK-6.1.0/Common/Core/vtkObject.h' line='53' column='1' visibility='default' binding='global' size-in-bits='64'>
          <!-- parameter of type 'const char*' -->
          <parameter type-id='80f4b756'/>
          <!-- int -->
          <return type-id='95e97e5e'/>
        </function-decl>
      </member-function>
      <member-function access='private'>
        <!-- int vtkObject::InvokeEvent(unsigned long int) -->
        <function-decl name='InvokeEvent' mangled-name='_ZN9vtkObject11InvokeEventEm' filepath='/tmp/legendre/spack-stage/spack-stage-R_crTC/VTK-6.1.0/Common/Core/vtkObject.h' line='215' column='1' visibility='default' binding='global' size-in-bits='64'>
          <!-- implicit parameter of type 'vtkObject*' -->
          <parameter type-id='41725e7b' is-artificial='yes'/>
          <!-- parameter of type 'unsigned long int' -->
          <parameter type-id='7359adad'/>
          <!-- int -->
          <return type-id='95e97e5e'/>
        </function-decl>
      </member-function>
    </class-decl>
    <!-- class vtkObjectBase -->
    <class-decl name='vtkObjectBase' visibility='default' is-declaration-only='yes' id='5bed7e06'>
      <member-function access='protected' vtable-offset='11'>
        <!-- void vtkObjectBase::CollectRevisions(std::ostream&) -->
        <function-decl name='CollectRevisions' mangled-name='_ZN13vtkObjectBase16CollectRevisionsERSo' filepath='/tmp/legendre/spack-stage/spack-stage-R_crTC/VTK-6.1.0/Common/Core/vtkObjectBase.h' line='163' column='1' visibility='default' binding='global' size-in-bits='64'>
          <!-- implicit parameter of type 'vtkObjectBase*' -->
          <parameter type-id='3f9da73c' is-artificial='yes'/>
          <!-- parameter of type 'std::ostream&' -->
          <parameter type-id='d19833bf'/>
          <!-- void -->
          <return type-id='48b5725f'/>
        </function-decl>
      </member-function>
    </class-decl>
    <!-- class vtkRectilinearGrid -->
    <class-decl name='vtkRectilinearGrid' visibility='default' is-declaration-only='yes' id='ad884e1c'>
      <member-function access='private' static='yes'>
        <!-- vtkRectilinearGrid* vtkRectilinearGrid::SafeDownCast() -->
        <function-decl name='SafeDownCast' mangled-name='_ZN18vtkRectilinearGrid12SafeDownCastEP13vtkObjectBase' filepath='/tmp/legendre/spack-stage/spack-stage-R_crTC/VTK-6.1.0/Common/DataModel/vtkRectilinearGrid.h' line='52' column='1' visibility='default' binding='global' size-in-bits='64'>
          <!-- parameter of type 'vtkObjectBase*' -->
          <parameter type-id='3f9da73c'/>
          <!-- vtkRectilinearGrid* -->
          <return type-id='dfa427ba'/>
        </function-decl>
      </member-function>
    </class-decl>
    <!-- class vtkStructuredGrid -->
    <class-decl name='vtkStructuredGrid' visibility='default' is-declaration-only='yes' id='b43c45b3'>
      <member-function access='private' static='yes'>
        <!-- vtkStructuredGrid* vtkStructuredGrid::SafeDownCast() -->
        <function-decl name='SafeDownCast' mangled-name='_ZN17vtkStructuredGrid12SafeDownCastEP13vtkObjectBase' filepath='/tmp/legendre/spack-stage/spack-stage-R_crTC/VTK-6.1.0/Common/DataModel/vtkStructuredGrid.h' line='60' column='1' visibility='default' binding='global' size-in-bits='64'>
          <!-- parameter of type 'vtkObjectBase*' -->
          <parameter type-id='3f9da73c'/>
          <!-- vtkStructuredGrid* -->
          <return type-id='6527c983'/>
        </function-decl>
      </member-function>
    </class-decl>
    <!-- namespace std -->
    <namespace-decl name='std'>
      <!-- class std::allocator<long long int> -->
      <class-decl name='allocator&lt;long long int&gt;' size-in-bits='8' visibility='default' filepath='/usr/lib/gcc/x86_64-redhat-linux/4.4.7/../../../../include/c++/4.4.7/bits/allocator.h' line='87' column='1' id='6143f8c4'>
        <!-- class __gnu_cxx::new_allocator<long long int> -->
        <base-class access='public' layout-offset-in-bits='0' type-id='3460fb4a'/>
        <member-function access='private'>
          <!-- void std::allocator<long long int>::allocator() -->
          <function-decl name='allocator' filepath='/usr/lib/gcc/x86_64-redhat-linux/4.4.7/../../../../include/c++/4.4.7/bits/allocator.h' line='101' column='1' visibility='default' binding='global' size-in-bits='64'>
            <!-- implicit parameter of type 'std::allocator<long long int>*' -->
            <parameter type-id='d2aceaf2' is-artificial='yes'/>
            <!-- void -->
            <return type-id='48b5725f'/>
          </function-decl>
        </member-function>
        <member-function access='private'>
          <!-- void std::allocator<long long int>::allocator(const std::allocator<long long int>&) -->
          <function-decl name='allocator' filepath='/usr/lib/gcc/x86_64-redhat-linux/4.4.7/../../../../include/c++/4.4.7/bits/allocator.h' line='103' column='1' visibility='default' binding='global' size-in-bits='64'>
            <!-- implicit parameter of type 'std::allocator<long long int>*' -->
            <parameter type-id='d2aceaf2' is-artificial='yes'/>
            <!-- parameter of type 'const std::allocator<long long int>&' -->
            <parameter type-id='d6825ed7'/>
            <!-- void -->
            <return type-id='48b5725f'/>
          </function-decl>
        </member-function>
        <member-function access='private' destructor='yes'>
          <!-- std::allocator<long long int>::~allocator(int) -->
          <function-decl name='~allocator' filepath='/usr/lib/gcc/x86_64-redhat-linux/4.4.7/../../../../include/c++/4.4.7/bits/allocator.h' line='109' column='1' visibility='default' binding='global' size-in-bits='64'>
            <!-- implicit parameter of type 'std::allocator<long long int>*' -->
            <parameter type-id='d2aceaf2' is-artificial='yes'/>
            <!-- artificial parameter of type 'int' -->
            <parameter type-id='95e97e5e' is-artificial='yes'/>
            <!-- void -->
            <return type-id='48b5725f'/>
          </function-decl>
        </member-function>
      </class-decl>
      <!-- class std::allocator<unsigned char> -->
      <class-decl name='allocator&lt;unsigned char&gt;' size-in-bits='8' visibility='default' filepath='/usr/lib/gcc/x86_64-redhat-linux/4.4.7/../../../../include/c++/4.4.7/bits/allocator.h' line='87' column='1' id='97154bcc'>
        <!-- class __gnu_cxx::new_allocator<unsigned char> -->
        <base-class access='public' layout-offset-in-bits='0' type-id='6936154e'/>
        <member-function access='private'>
          <!-- void std::allocator<unsigned char>::allocator() -->
          <function-decl name='allocator' filepath='/usr/lib/gcc/x86_64-redhat-linux/4.4.7/../../../../include/c++/4.4.7/bits/allocator.h' line='101' column='1' visibility='default' binding='global' size-in-bits='64'>
            <!-- implicit parameter of type 'std::allocator<unsigned char>*' -->
            <parameter type-id='b2808b7a' is-artificial='yes'/>
            <!-- void -->
            <return type-id='48b5725f'/>
          </function-decl>
        </member-function>
        <member-function access='private'>
          <!-- void std::allocator<unsigned char>::allocator(const std::allocator<unsigned char>&) -->
          <function-decl name='allocator' filepath='/usr/lib/gcc/x86_64-redhat-linux/4.4.7/../../../../include/c++/4.4.7/bits/allocator.h' line='103' column='1' visibility='default' binding='global' size-in-bits='64'>
            <!-- implicit parameter of type 'std::allocator<unsigned char>*' -->
            <parameter type-id='b2808b7a' is-artificial='yes'/>
            <!-- parameter of type 'const std::allocator<unsigned char>&' -->
            <parameter type-id='b9fd90cb'/>
            <!-- void -->
            <return type-id='48b5725f'/>
          </function-decl>
        </member-function>
        <member-function access='private' destructor='yes'>
          <!-- std::allocator<unsigned char>::~allocator(int) -->
          <function-decl name='~allocator' filepath='/usr/lib/gcc/x86_64-redhat-linux/4.4.7/../../../../include/c++/4.4.7/bits/allocator.h' line='109' column='1' visibility='default' binding='global' size-in-bits='64'>
            <!-- implicit parameter of type 'std::allocator<unsigned char>*' -->
            <parameter type-id='b2808b7a' is-artificial='yes'/>
            <!-- artificial parameter of type 'int' -->
            <parameter type-id='95e97e5e' is-artificial='yes'/>
            <!-- void -->
            <return type-id='48b5725f'/>
          </function-decl>
        </member-function>
      </class-decl>
      <!-- struct std::char_traits<char> -->
      <class-decl name='char_traits&lt;char&gt;' size-in-bits='8' is-struct='yes' visibility='default' filepath='/usr/lib/gcc/x86_64-redhat-linux/4.4.7/../../../../include/c++/4.4.7/bits/char_traits.h' line='238' column='1' id='6382fa58'>
        <member-type access='public'>
          <!-- typedef char std::char_traits<char>::char_type -->
          <typedef-decl name='char_type' type-id='a84c031d' filepath='/usr/lib/gcc/x86_64-redhat-linux/4.4.7/../../../../include/c++/4.4.7/bits/char_traits.h' line='239' column='1' id='d3b6d5a2'/>
        </member-type>
        <member-type access='public'>
          <!-- typedef int std::char_traits<char>::int_type -->
          <typedef-decl name='int_type' type-id='95e97e5e' filepath='/usr/lib/gcc/x86_64-redhat-linux/4.4.7/../../../../include/c++/4.4.7/bits/char_traits.h' line='240' column='1' id='e967275f'/>
        </member-type>
        <member-function access='public' static='yes'>
          <!-- size_t std::char_traits<char>::length() -->
          <function-decl name='length' mangled-name='_ZNSt11char_traitsIcE6lengthEPKc' filepath='/usr/lib/gcc/x86_64-redhat-linux/4.4.7/../../../../include/c++/4.4.7/bits/char_traits.h' line='262' column='1' visibility='default' binding='global' size-in-bits='64'>
            <!-- parameter of type 'const std::char_traits<char>::char_type*' -->
            <parameter type-id='044a1b28'/>
            <!-- typedef size_t -->
            <return type-id='b59d7dce'/>
          </function-decl>
        </member-function>
        <member-function access='public' static='yes'>
          <!-- void std::char_traits<char>::assign(const std::char_traits<char>::char_type&) -->
          <function-decl name='assign' mangled-name='_ZNSt11char_traitsIcE6assignERcRKc' filepath='/usr/lib/gcc/x86_64-redhat-linux/4.4.7/../../../../include/c++/4.4.7/bits/char_traits.h' line='246' column='1' visibility='default' binding='global' size-in-bits='64'>
            <!-- parameter of type 'std::char_traits<char>::char_type&' -->
            <parameter type-id='e28cef01'/>
            <!-- parameter of type 'const std::char_traits<char>::char_type&' -->
            <parameter type-id='004a14dc'/>
            <!-- void -->
            <return type-id='48b5725f'/>
          </function-decl>
        </member-function>
      </class-decl>
      <!-- enum std::_Ios_Fmtflags -->
      <enum-decl name='_Ios_Fmtflags' filepath='/usr/lib/gcc/x86_64-redhat-linux/4.4.7/../../../../include/c++/4.4.7/bits/ios_base.h' line='60' column='1' id='deb7653e'>
        <underlying-type type-id='9cac1fee'/>
        <enumerator name='_S_boolalpha' value='1'/>
        <enumerator name='_S_dec' value='2'/>
        <enumerator name='_S_fixed' value='4'/>
        <enumerator name='_S_hex' value='8'/>
        <enumerator name='_S_internal' value='16'/>
        <enumerator name='_S_left' value='32'/>
        <enumerator name='_S_oct' value='64'/>
        <enumerator name='_S_right' value='128'/>
        <enumerator name='_S_scientific' value='256'/>
        <enumerator name='_S_showbase' value='512'/>
        <enumerator name='_S_showpoint' value='1024'/>
        <enumerator name='_S_showpos' value='2048'/>
        <enumerator name='_S_skipws' value='4096'/>
        <enumerator name='_S_unitbuf' value='8192'/>
        <enumerator name='_S_uppercase' value='16384'/>
        <enumerator name='_S_adjustfield' value='176'/>
        <enumerator name='_S_basefield' value='74'/>
        <enumerator name='_S_floatfield' value='260'/>
        <enumerator name='_S_ios_fmtflags_end' value='65536'/>
      </enum-decl>
      <!-- enum std::_Ios_Openmode -->
      <enum-decl name='_Ios_Openmode' filepath='/usr/lib/gcc/x86_64-redhat-linux/4.4.7/../../../../include/c++/4.4.7/bits/ios_base.h' line='112' column='1' id='be001bcf'>
        <underlying-type type-id='9cac1fee'/>
        <enumerator name='_S_app' value='1'/>
        <enumerator name='_S_ate' value='2'/>
        <enumerator name='_S_bin' value='4'/>
        <enumerator name='_S_in' value='8'/>
        <enumerator name='_S_out' value='16'/>
        <enumerator name='_S_trunc' value='32'/>
        <enumerator name='_S_ios_openmode_end' value='65536'/>
      </enum-decl>
      <!-- enum std::_Ios_Iostate -->
      <enum-decl name='_Ios_Iostate' filepath='/usr/lib/gcc/x86_64-redhat-linux/4.4.7/../../../../include/c++/4.4.7/bits/ios_base.h' line='152' column='1' id='3eae72a5'>
        <underlying-type type-id='9cac1fee'/>
        <enumerator name='_S_goodbit' value='0'/>
        <enumerator name='_S_badbit' value='1'/>
        <enumerator name='_S_eofbit' value='2'/>
        <enumerator name='_S_failbit' value='4'/>
        <enumerator name='_S_ios_iostate_end' value='65536'/>
      </enum-decl>
      <!-- enum std::_Ios_Seekdir -->
      <enum-decl name='_Ios_Seekdir' filepath='/usr/lib/gcc/x86_64-redhat-linux/4.4.7/../../../../include/c++/4.4.7/bits/ios_base.h' line='189' column='1' id='3c72183b'>
        <underlying-type type-id='9cac1fee'/>
        <enumerator name='_S_beg' value='0'/>
        <enumerator name='_S_cur' value='1'/>
        <enumerator name='_S_end' value='2'/>
        <enumerator name='_S_ios_seekdir_end' value='65536'/>
      </enum-decl>
      <!-- typedef long int std::streamoff -->
      <typedef-decl name='streamoff' type-id='bd54fe1a' filepath='/usr/lib/gcc/x86_64-redhat-linux/4.4.7/../../../../include/c++/4.4.7/bits/postypes.h' line='88' column='1' id='fe4f8552'/>
      <!-- typedef ptrdiff_t std::streamsize -->
      <typedef-decl name='streamsize' type-id='fc84bffe' filepath='/usr/lib/gcc/x86_64-redhat-linux/4.4.7/../../../../include/c++/4.4.7/bits/postypes.h' line='98' column='1' id='6ac7cda4'/>
      <!-- struct std::__niter_base<const vtkCommunicator::ReduceVoidArray::VTK_TT*, false> -->
      <class-decl name='__niter_base&lt;const vtkCommunicator::ReduceVoidArray::VTK_TT*, false&gt;' size-in-bits='8' is-struct='yes' visibility='default' filepath='/usr/lib/gcc/x86_64-redhat-linux/4.4.7/../../../../include/c++/4.4.7/bits/stl_algobase.h' line='267' column='1' id='a96df079'>
        <member-function access='public' static='yes'>
          <!-- const std::__miter_base<const vtkCommunicator::ReduceVoidArray::VTK_TT*, false>::VTK_TT* std::__niter_base<const vtkCommunicator::ReduceVoidArray::VTK_TT*, false>::__b() -->
          <function-decl name='__b' mangled-name='_ZNSt12__niter_baseIPKaLb0EE3__bES1_' filepath='/usr/lib/gcc/x86_64-redhat-linux/4.4.7/../../../../include/c++/4.4.7/bits/stl_algobase.h' line='269' column='1' visibility='default' binding='global' size-in-bits='64'>
            <!-- parameter of type 'const std::__miter_base<const vtkCommunicator::ReduceVoidArray::VTK_TT*, false>::VTK_TT*' -->
            <parameter type-id='6970fa21'/>
            <!-- const std::__miter_base<const vtkCommunicator::ReduceVoidArray::VTK_TT*, false>::VTK_TT* -->
            <return type-id='6970fa21'/>
          </function-decl>
        </member-function>
      </class-decl>
      <!-- struct std::__niter_base<std::_Bit_type*, false> -->
      <class-decl name='__niter_base&lt;std::_Bit_type*, false&gt;' size-in-bits='8' is-struct='yes' visibility='default' filepath='/usr/lib/gcc/x86_64-redhat-linux/4.4.7/../../../../include/c++/4.4.7/bits/stl_algobase.h' line='267' column='1' id='e1ec4f7b'>
        <member-function access='public' static='yes'>
          <!-- std::_Bit_type* std::__niter_base<std::_Bit_type*, false>::__b() -->
          <function-decl name='__b' mangled-name='_ZNSt12__niter_baseIPmLb0EE3__bES0_' filepath='/usr/lib/gcc/x86_64-redhat-linux/4.4.7/../../../../include/c++/4.4.7/bits/stl_algobase.h' line='269' column='1' visibility='default' binding='global' size-in-bits='64'>
            <!-- parameter of type 'std::_Bit_type*' -->
            <parameter type-id='3113c6cb'/>
            <!-- std::_Bit_type* -->
            <return type-id='3113c6cb'/>
          </function-decl>
        </member-function>
      </class-decl>
      <!-- struct std::__niter_base<vtkCommunicator::ReduceVoidArray::VTK_TT*, false> -->
      <class-decl name='__niter_base&lt;vtkCommunicator::ReduceVoidArray::VTK_TT*, false&gt;' size-in-bits='8' is-struct='yes' visibility='default' filepath='/usr/lib/gcc/x86_64-redhat-linux/4.4.7/../../../../include/c++/4.4.7/bits/stl_algobase.h' line='267' column='1' id='56671eae'>
        <member-function access='public' static='yes'>
          <!-- std::__miter_base<const vtkCommunicator::ReduceVoidArray::VTK_TT*, false>::VTK_TT* std::__niter_base<vtkCommunicator::ReduceVoidArray::VTK_TT*, false>::__b() -->
          <function-decl name='__b' mangled-name='_ZNSt12__niter_baseIPaLb0EE3__bES0_' filepath='/usr/lib/gcc/x86_64-redhat-linux/4.4.7/../../../../include/c++/4.4.7/bits/stl_algobase.h' line='269' column='1' visibility='default' binding='global' size-in-bits='64'>
            <!-- parameter of type 'std::__miter_base<const vtkCommunicator::ReduceVoidArray::VTK_TT*, false>::VTK_TT*' -->
            <parameter type-id='24885fd4'/>
            <!-- std::__miter_base<const vtkCommunicator::ReduceVoidArray::VTK_TT*, false>::VTK_TT* -->
            <return type-id='24885fd4'/>
          </function-decl>
        </member-function>
      </class-decl>
      <!-- struct std::__miter_base<const vtkCommunicator::ReduceVoidArray::VTK_TT*, false> -->
      <class-decl name='__miter_base&lt;const vtkCommunicator::ReduceVoidArray::VTK_TT*, false&gt;' size-in-bits='8' is-struct='yes' visibility='default' filepath='/usr/lib/gcc/x86_64-redhat-linux/4.4.7/../../../../include/c++/4.4.7/bits/stl_algobase.h' line='285' column='1' id='09818012'>
        <member-type access='public'>
          <!-- typedef long long int std::__miter_base<const vtkCommunicator::ReduceVoidArray::VTK_TT*, false>::VTK_TT -->
          <typedef-decl name='VTK_TT' type-id='1eb56b1e' filepath='/tmp/legendre/spack-stage/spack-stage-R_crTC/VTK-6.1.0/Parallel/Core/vtkCommunicator.cxx' line='1342' column='1' id='19f6e221'/>
        </member-type>
        <member-function access='public' static='yes'>
          <!-- const std::__miter_base<const vtkCommunicator::ReduceVoidArray::VTK_TT*, false>::VTK_TT* std::__miter_base<const vtkCommunicator::ReduceVoidArray::VTK_TT*, false>::__b() -->
          <function-decl name='__b' mangled-name='_ZNSt12__miter_baseIPKhLb0EE3__bES1_' filepath='/usr/lib/gcc/x86_64-redhat-linux/4.4.7/../../../../include/c++/4.4.7/bits/stl_algobase.h' line='287' column='1' visibility='default' binding='global' size-in-bits='64'>
            <!-- parameter of type 'const std::__miter_base<const vtkCommunicator::ReduceVoidArray::VTK_TT*, false>::VTK_TT*' -->
            <parameter type-id='6970fa21'/>
            <!-- const std::__miter_base<const vtkCommunicator::ReduceVoidArray::VTK_TT*, false>::VTK_TT* -->
            <return type-id='6970fa21'/>
          </function-decl>
        </member-function>
        <member-function access='public' static='yes'>
          <!-- const std::__miter_base<const vtkCommunicator::ReduceVoidArray::VTK_TT*, false>::VTK_TT* std::__miter_base<const vtkCommunicator::ReduceVoidArray::VTK_TT*, false>::__b() -->
          <function-decl name='__b' mangled-name='_ZNSt12__miter_baseIPKdLb0EE3__bES1_' filepath='/usr/lib/gcc/x86_64-redhat-linux/4.4.7/../../../../include/c++/4.4.7/bits/stl_algobase.h' line='287' column='1' visibility='default' binding='global' size-in-bits='64'>
            <!-- parameter of type 'const std::__miter_base<const vtkCommunicator::ReduceVoidArray::VTK_TT*, false>::VTK_TT*' -->
            <parameter type-id='6970fa21'/>
            <!-- const std::__miter_base<const vtkCommunicator::ReduceVoidArray::VTK_TT*, false>::VTK_TT* -->
            <return type-id='6970fa21'/>
          </function-decl>
        </member-function>
        <member-function access='public' static='yes'>
          <!-- const std::__miter_base<const vtkCommunicator::ReduceVoidArray::VTK_TT*, false>::VTK_TT* std::__miter_base<const vtkCommunicator::ReduceVoidArray::VTK_TT*, false>::__b() -->
          <function-decl name='__b' mangled-name='_ZNSt12__miter_baseIPKfLb0EE3__bES1_' filepath='/usr/lib/gcc/x86_64-redhat-linux/4.4.7/../../../../include/c++/4.4.7/bits/stl_algobase.h' line='287' column='1' visibility='default' binding='global' size-in-bits='64'>
            <!-- parameter of type 'const std::__miter_base<const vtkCommunicator::ReduceVoidArray::VTK_TT*, false>::VTK_TT*' -->
            <parameter type-id='6970fa21'/>
            <!-- const std::__miter_base<const vtkCommunicator::ReduceVoidArray::VTK_TT*, false>::VTK_TT* -->
            <return type-id='6970fa21'/>
          </function-decl>
        </member-function>
        <member-function access='public' static='yes'>
          <!-- const std::__miter_base<const vtkCommunicator::ReduceVoidArray::VTK_TT*, false>::VTK_TT* std::__miter_base<const vtkCommunicator::ReduceVoidArray::VTK_TT*, false>::__b() -->
          <function-decl name='__b' mangled-name='_ZNSt12__miter_baseIPKyLb0EE3__bES1_' filepath='/usr/lib/gcc/x86_64-redhat-linux/4.4.7/../../../../include/c++/4.4.7/bits/stl_algobase.h' line='287' column='1' visibility='default' binding='global' size-in-bits='64'>
            <!-- parameter of type 'const std::__miter_base<const vtkCommunicator::ReduceVoidArray::VTK_TT*, false>::VTK_TT*' -->
            <parameter type-id='6970fa21'/>
            <!-- const std::__miter_base<const vtkCommunicator::ReduceVoidArray::VTK_TT*, false>::VTK_TT* -->
            <return type-id='6970fa21'/>
          </function-decl>
        </member-function>
        <member-function access='public' static='yes'>
          <!-- const std::__miter_base<const vtkCommunicator::ReduceVoidArray::VTK_TT*, false>::VTK_TT* std::__miter_base<const vtkCommunicator::ReduceVoidArray::VTK_TT*, false>::__b() -->
          <function-decl name='__b' mangled-name='_ZNSt12__miter_baseIPKaLb0EE3__bES1_' filepath='/usr/lib/gcc/x86_64-redhat-linux/4.4.7/../../../../include/c++/4.4.7/bits/stl_algobase.h' line='287' column='1' visibility='default' binding='global' size-in-bits='64'>
            <!-- parameter of type 'const std::__miter_base<const vtkCommunicator::ReduceVoidArray::VTK_TT*, false>::VTK_TT*' -->
            <parameter type-id='6970fa21'/>
            <!-- const std::__miter_base<const vtkCommunicator::ReduceVoidArray::VTK_TT*, false>::VTK_TT* -->
            <return type-id='6970fa21'/>
          </function-decl>
        </member-function>
      </class-decl>
      <!-- struct std::__miter_base<unsigned char*, false> -->
      <class-decl name='__miter_base&lt;unsigned char*, false&gt;' size-in-bits='8' is-struct='yes' visibility='default' filepath='/usr/lib/gcc/x86_64-redhat-linux/4.4.7/../../../../include/c++/4.4.7/bits/stl_algobase.h' line='285' column='1' id='fc57f983'>
        <member-function access='public' static='yes'>
          <!-- unsigned char* std::__miter_base<unsigned char*, false>::__b() -->
          <function-decl name='__b' mangled-name='_ZNSt12__miter_baseIPhLb0EE3__bES0_' filepath='/usr/lib/gcc/x86_64-redhat-linux/4.4.7/../../../../include/c++/4.4.7/bits/stl_algobase.h' line='287' column='1' visibility='default' binding='global' size-in-bits='64'>
            <!-- parameter of type 'unsigned char*' -->
            <parameter type-id='cf536864'/>
            <!-- unsigned char* -->
            <return type-id='cf536864'/>
          </function-decl>
        </member-function>
      </class-decl>
      <!-- struct std::__copy_move<false, true, std::random_access_iterator_tag> -->
      <class-decl name='__copy_move&lt;false, true, std::random_access_iterator_tag&gt;' size-in-bits='8' is-struct='yes' visibility='default' filepath='/usr/lib/gcc/x86_64-redhat-linux/4.4.7/../../../../include/c++/4.4.7/bits/stl_algobase.h' line='307' column='1' id='a7ac2dbb'>
        <member-function access='public' static='yes'>
          <!-- std::__miter_base<const vtkCommunicator::ReduceVoidArray::VTK_TT*, false>::VTK_TT* std::__copy_move<false, true, std::random_access_iterator_tag>::__copy_m<vtkCommunicator::ReduceVoidArray::VTK_TT>(const std::__miter_base<const vtkCommunicator::ReduceVoidArray::VTK_TT*, false>::VTK_TT*, std::__miter_base<const vtkCommunicator::ReduceVoidArray::VTK_TT*, false>::VTK_TT*) -->
          <function-decl name='__copy_m&lt;vtkCommunicator::ReduceVoidArray::VTK_TT&gt;' filepath='/usr/lib/gcc/x86_64-redhat-linux/4.4.7/../../../../include/c++/4.4.7/bits/stl_algobase.h' line='376' column='1' visibility='default' binding='global' size-in-bits='64'>
            <!-- parameter of type 'const std::__miter_base<const vtkCommunicator::ReduceVoidArray::VTK_TT*, false>::VTK_TT*' -->
            <parameter type-id='6970fa21'/>
            <!-- parameter of type 'const std::__miter_base<const vtkCommunicator::ReduceVoidArray::VTK_TT*, false>::VTK_TT*' -->
            <parameter type-id='6970fa21'/>
            <!-- parameter of type 'std::__miter_base<const vtkCommunicator::ReduceVoidArray::VTK_TT*, false>::VTK_TT*' -->
            <parameter type-id='24885fd4'/>
            <!-- std::__miter_base<const vtkCommunicator::ReduceVoidArray::VTK_TT*, false>::VTK_TT* -->
            <return type-id='24885fd4'/>
          </function-decl>
        </member-function>
        <member-function access='public' static='yes'>
          <!-- std::_Bit_type* std::__copy_move<false, true, std::random_access_iterator_tag>::__copy_m<std::_Bit_type>(const std::_Bit_type*, std::_Bit_type*) -->
          <function-decl name='__copy_m&lt;std::_Bit_type&gt;' filepath='/usr/lib/gcc/x86_64-redhat-linux/4.4.7/../../../../include/c++/4.4.7/bits/stl_algobase.h' line='376' column='1' visibility='default' binding='global' size-in-bits='64'>
            <!-- parameter of type 'const std::_Bit_type*' -->
            <parameter type-id='8d62a250'/>
            <!-- parameter of type 'const std::_Bit_type*' -->
            <parameter type-id='8d62a250'/>
            <!-- parameter of type 'std::_Bit_type*' -->
            <parameter type-id='3113c6cb'/>
            <!-- std::_Bit_type* -->
            <return type-id='3113c6cb'/>
          </function-decl>
        </member-function>
        <member-function access='public' static='yes'>
          <!-- vtksys::_Hashtable_node<std::pair<const int, void (*)(vtkMultiProcessController*, void*)> >** std::__copy_move<false, true, std::random_access_iterator_tag>::__copy_m<vtksys::_Hashtable_node<std::pair<const int, void (*)(vtkMultiProcessController*, void*)> >*>(vtksys::_Hashtable_node<std::pair<const int, void (*)(vtkMultiProcessController*, void*)> >* const*, vtksys::_Hashtable_node<std::pair<const int, void (*)(vtkMultiProcessController*, void*)> >**) -->
          <function-decl name='__copy_m&lt;vtksys::_Hashtable_node&lt;std::pair&lt;const int, void (*)(vtkMultiProcessController*, void*)&gt; &gt;*&gt;' filepath='/usr/lib/gcc/x86_64-redhat-linux/4.4.7/../../../../include/c++/4.4.7/bits/stl_algobase.h' line='376' column='1' visibility='default' binding='global' size-in-bits='64'>
            <!-- parameter of type 'vtksys::_Hashtable_node<std::pair<const int, void (*)(vtkMultiProcessController*, void*)> >* const*' -->
            <parameter type-id='13a1b08c'/>
            <!-- parameter of type 'vtksys::_Hashtable_node<std::pair<const int, void (*)(vtkMultiProcessController*, void*)> >* const*' -->
            <parameter type-id='13a1b08c'/>
            <!-- parameter of type 'vtksys::_Hashtable_node<std::pair<const int, void (*)(vtkMultiProcessController*, void*)> >**' -->
            <parameter type-id='238b03e1'/>
            <!-- vtksys::_Hashtable_node<std::pair<const int, void (*)(vtkMultiProcessController*, void*)> >** -->
            <return type-id='238b03e1'/>
          </function-decl>
        </member-function>
        <member-function access='public' static='yes'>
          <!-- vtksys::_Hashtable_node<std::pair<const int, void*> >** std::__copy_move<false, true, std::random_access_iterator_tag>::__copy_m<vtksys::_Hashtable_node<std::pair<const int, void*> >*>(vtksys::_Hashtable_node<std::pair<const int, void*> >* const*, vtksys::_Hashtable_node<std::pair<const int, void*> >**) -->
          <function-decl name='__copy_m&lt;vtksys::_Hashtable_node&lt;std::pair&lt;const int, void*&gt; &gt;*&gt;' filepath='/usr/lib/gcc/x86_64-redhat-linux/4.4.7/../../../../include/c++/4.4.7/bits/stl_algobase.h' line='376' column='1' visibility='default' binding='global' size-in-bits='64'>
            <!-- parameter of type 'vtksys::_Hashtable_node<std::pair<const int, void*> >* const*' -->
            <parameter type-id='d0756eed'/>
            <!-- parameter of type 'vtksys::_Hashtable_node<std::pair<const int, void*> >* const*' -->
            <parameter type-id='d0756eed'/>
            <!-- parameter of type 'vtksys::_Hashtable_node<std::pair<const int, void*> >**' -->
            <parameter type-id='e7879360'/>
            <!-- vtksys::_Hashtable_node<std::pair<const int, void*> >** -->
            <return type-id='e7879360'/>
          </function-decl>
        </member-function>
        <member-function access='public' static='yes'>
          <!-- vtksys::_Hashtable_node<std::pair<const int, std::vector<vtkMultiProcessController::vtkInternal::vtkRMICallback, std::allocator<vtkMultiProcessController::vtkInternal::vtkRMICallback> > > >** std::__copy_move<false, true, std::random_access_iterator_tag>::__copy_m<vtksys::_Hashtable_node<std::pair<const int, std::vector<vtkMultiProcessController::vtkInternal::vtkRMICallback, std::allocator<vtkMultiProcessController::vtkInternal::vtkRMICallback> > > >*>(vtksys::_Hashtable_node<std::pair<const int, std::vector<vtkMultiProcessController::vtkInternal::vtkRMICallback, std::allocator<vtkMultiProcessController::vtkInternal::vtkRMICallback> > > >* const*, vtksys::_Hashtable_node<std::pair<const int, std::vector<vtkMultiProcessController::vtkInternal::vtkRMICallback, std::allocator<vtkMultiProcessController::vtkInternal::vtkRMICallback> > > >**) -->
          <function-decl name='__copy_m&lt;vtksys::_Hashtable_node&lt;std::pair&lt;const int, std::vector&lt;vtkMultiProcessController::vtkInternal::vtkRMICallback, std::allocator&lt;vtkMultiProcessController::vtkInternal::vtkRMICallback&gt; &gt; &gt; &gt;*&gt;' filepath='/usr/lib/gcc/x86_64-redhat-linux/4.4.7/../../../../include/c++/4.4.7/bits/stl_algobase.h' line='376' column='1' visibility='default' binding='global' size-in-bits='64'>
            <!-- parameter of type 'vtksys::_Hashtable_node<std::pair<const int, std::vector<vtkMultiProcessController::vtkInternal::vtkRMICallback, std::allocator<vtkMultiProcessController::vtkInternal::vtkRMICallback> > > >* const*' -->
            <parameter type-id='c2167637'/>
            <!-- parameter of type 'vtksys::_Hashtable_node<std::pair<const int, std::vector<vtkMultiProcessController::vtkInternal::vtkRMICallback, std::allocator<vtkMultiProcessController::vtkInternal::vtkRMICallback> > > >* const*' -->
            <parameter type-id='c2167637'/>
            <!-- parameter of type 'vtksys::_Hashtable_node<std::pair<const int, std::vector<vtkMultiProcessController::vtkInternal::vtkRMICallback, std::allocator<vtkMultiProcessController::vtkInternal::vtkRMICallback> > > >**' -->
            <parameter type-id='266e36e2'/>
            <!-- vtksys::_Hashtable_node<std::pair<const int, std::vector<vtkMultiProcessController::vtkInternal::vtkRMICallback, std::allocator<vtkMultiProcessController::vtkInternal::vtkRMICallback> > > >** -->
            <return type-id='266e36e2'/>
          </function-decl>
        </member-function>
        <member-function access='public' static='yes'>
          <!-- vtkMultiProcessController::vtkInternal::vtkRMICallback* std::__copy_move<false, true, std::random_access_iterator_tag>::__copy_m<vtkMultiProcessController::vtkInternal::vtkRMICallback>(const vtkMultiProcessController::vtkInternal::vtkRMICallback*, vtkMultiProcessController::vtkInternal::vtkRMICallback*) -->
          <function-decl name='__copy_m&lt;vtkMultiProcessController::vtkInternal::vtkRMICallback&gt;' filepath='/usr/lib/gcc/x86_64-redhat-linux/4.4.7/../../../../include/c++/4.4.7/bits/stl_algobase.h' line='376' column='1' visibility='default' binding='global' size-in-bits='64'>
            <!-- parameter of type 'const vtkMultiProcessController::vtkInternal::vtkRMICallback*' -->
            <parameter type-id='4e8c521b'/>
            <!-- parameter of type 'const vtkMultiProcessController::vtkInternal::vtkRMICallback*' -->
            <parameter type-id='4e8c521b'/>
            <!-- parameter of type 'vtkMultiProcessController::vtkInternal::vtkRMICallback*' -->
            <parameter type-id='77cb9e50'/>
            <!-- vtkMultiProcessController::vtkInternal::vtkRMICallback* -->
            <return type-id='77cb9e50'/>
          </function-decl>
        </member-function>
        <member-function access='public' static='yes'>
          <!-- unsigned char** std::__copy_move<false, true, std::random_access_iterator_tag>::__copy_m<unsigned char*>(unsigned char* const*, unsigned char**) -->
          <function-decl name='__copy_m&lt;unsigned char*&gt;' filepath='/usr/lib/gcc/x86_64-redhat-linux/4.4.7/../../../../include/c++/4.4.7/bits/stl_algobase.h' line='376' column='1' visibility='default' binding='global' size-in-bits='64'>
            <!-- parameter of type 'unsigned char* const*' -->
            <parameter type-id='e476df5f'/>
            <!-- parameter of type 'unsigned char* const*' -->
            <parameter type-id='e476df5f'/>
            <!-- parameter of type 'unsigned char**' -->
            <parameter type-id='ae4d32ca'/>
            <!-- unsigned char** -->
            <return type-id='ae4d32ca'/>
          </function-decl>
        </member-function>
        <member-function access='public' static='yes'>
          <!-- unsigned char* std::__copy_move<false, true, std::random_access_iterator_tag>::__copy_m<unsigned char>(const unsigned char*, unsigned char*) -->
          <function-decl name='__copy_m&lt;unsigned char&gt;' filepath='/usr/lib/gcc/x86_64-redhat-linux/4.4.7/../../../../include/c++/4.4.7/bits/stl_algobase.h' line='376' column='1' visibility='default' binding='global' size-in-bits='64'>
            <!-- parameter of type 'const unsigned char*' -->
            <parameter type-id='354f7eb9'/>
            <!-- parameter of type 'const unsigned char*' -->
            <parameter type-id='354f7eb9'/>
            <!-- parameter of type 'unsigned char*' -->
            <parameter type-id='cf536864'/>
            <!-- unsigned char* -->
            <return type-id='cf536864'/>
          </function-decl>
        </member-function>
        <member-function access='public' static='yes'>
          <!-- int* std::__copy_move<false, true, std::random_access_iterator_tag>::__copy_m<int>(const int*, int*) -->
          <function-decl name='__copy_m&lt;int&gt;' filepath='/usr/lib/gcc/x86_64-redhat-linux/4.4.7/../../../../include/c++/4.4.7/bits/stl_algobase.h' line='376' column='1' visibility='default' binding='global' size-in-bits='64'>
            <!-- parameter of type 'const int*' -->
            <parameter type-id='6d60f45d'/>
            <!-- parameter of type 'const int*' -->
            <parameter type-id='6d60f45d'/>
            <!-- parameter of type 'int*' -->
            <parameter type-id='7292109c'/>
            <!-- int* -->
            <return type-id='7292109c'/>
          </function-decl>
        </member-function>
        <member-function access='public' static='yes'>
          <!-- char* std::__copy_move<false, true, std::random_access_iterator_tag>::__copy_m<char>(const char*, char*) -->
          <function-decl name='__copy_m&lt;char&gt;' filepath='/usr/lib/gcc/x86_64-redhat-linux/4.4.7/../../../../include/c++/4.4.7/bits/stl_algobase.h' line='376' column='1' visibility='default' binding='global' size-in-bits='64'>
            <!-- parameter of type 'const char*' -->
            <parameter type-id='80f4b756'/>
            <!-- parameter of type 'const char*' -->
            <parameter type-id='80f4b756'/>
            <!-- parameter of type 'char*' -->
            <parameter type-id='26a90f95'/>
            <!-- char* -->
            <return type-id='26a90f95'/>
          </function-decl>
        </member-function>
      </class-decl>
      <!-- struct std::__copy_move_backward<false, true, std::random_access_iterator_tag> -->
      <class-decl name='__copy_move_backward&lt;false, true, std::random_access_iterator_tag&gt;' size-in-bits='8' is-struct='yes' visibility='default' filepath='/usr/lib/gcc/x86_64-redhat-linux/4.4.7/../../../../include/c++/4.4.7/bits/stl_algobase.h' line='511' column='1' id='c23cea01'>
        <member-function access='public' static='yes'>
          <!-- std::__miter_base<const vtkCommunicator::ReduceVoidArray::VTK_TT*, false>::VTK_TT* std::__copy_move_backward<false, true, std::random_access_iterator_tag>::__copy_move_b<vtkCommunicator::ReduceVoidArray::VTK_TT>(const std::__miter_base<const vtkCommunicator::ReduceVoidArray::VTK_TT*, false>::VTK_TT*, std::__miter_base<const vtkCommunicator::ReduceVoidArray::VTK_TT*, false>::VTK_TT*) -->
          <function-decl name='__copy_move_b&lt;vtkCommunicator::ReduceVoidArray::VTK_TT&gt;' filepath='/usr/lib/gcc/x86_64-redhat-linux/4.4.7/../../../../include/c++/4.4.7/bits/stl_algobase.h' line='572' column='1' visibility='default' binding='global' size-in-bits='64'>
            <!-- parameter of type 'const std::__miter_base<const vtkCommunicator::ReduceVoidArray::VTK_TT*, false>::VTK_TT*' -->
            <parameter type-id='6970fa21'/>
            <!-- parameter of type 'const std::__miter_base<const vtkCommunicator::ReduceVoidArray::VTK_TT*, false>::VTK_TT*' -->
            <parameter type-id='6970fa21'/>
            <!-- parameter of type 'std::__miter_base<const vtkCommunicator::ReduceVoidArray::VTK_TT*, false>::VTK_TT*' -->
            <parameter type-id='24885fd4'/>
            <!-- std::__miter_base<const vtkCommunicator::ReduceVoidArray::VTK_TT*, false>::VTK_TT* -->
            <return type-id='24885fd4'/>
          </function-decl>
        </member-function>
        <member-function access='public' static='yes'>
          <!-- vtkMultiProcessController::vtkInternal::vtkRMICallback* std::__copy_move_backward<false, true, std::random_access_iterator_tag>::__copy_move_b<vtkMultiProcessController::vtkInternal::vtkRMICallback>(const vtkMultiProcessController::vtkInternal::vtkRMICallback*, vtkMultiProcessController::vtkInternal::vtkRMICallback*) -->
          <function-decl name='__copy_move_b&lt;vtkMultiProcessController::vtkInternal::vtkRMICallback&gt;' filepath='/usr/lib/gcc/x86_64-redhat-linux/4.4.7/../../../../include/c++/4.4.7/bits/stl_algobase.h' line='572' column='1' visibility='default' binding='global' size-in-bits='64'>
            <!-- parameter of type 'const vtkMultiProcessController::vtkInternal::vtkRMICallback*' -->
            <parameter type-id='4e8c521b'/>
            <!-- parameter of type 'const vtkMultiProcessController::vtkInternal::vtkRMICallback*' -->
            <parameter type-id='4e8c521b'/>
            <!-- parameter of type 'vtkMultiProcessController::vtkInternal::vtkRMICallback*' -->
            <parameter type-id='77cb9e50'/>
            <!-- vtkMultiProcessController::vtkInternal::vtkRMICallback* -->
            <return type-id='77cb9e50'/>
          </function-decl>
        </member-function>
        <member-function access='public' static='yes'>
          <!-- vtksys::_Hashtable_node<std::pair<const int, void (*)(vtkMultiProcessController*, void*)> >** std::__copy_move_backward<false, true, std::random_access_iterator_tag>::__copy_move_b<vtksys::_Hashtable_node<std::pair<const int, void (*)(vtkMultiProcessController*, void*)> >*>(vtksys::_Hashtable_node<std::pair<const int, void (*)(vtkMultiProcessController*, void*)> >* const*, vtksys::_Hashtable_node<std::pair<const int, void (*)(vtkMultiProcessController*, void*)> >**) -->
          <function-decl name='__copy_move_b&lt;vtksys::_Hashtable_node&lt;std::pair&lt;const int, void (*)(vtkMultiProcessController*, void*)&gt; &gt;*&gt;' filepath='/usr/lib/gcc/x86_64-redhat-linux/4.4.7/../../../../include/c++/4.4.7/bits/stl_algobase.h' line='572' column='1' visibility='default' binding='global' size-in-bits='64'>
            <!-- parameter of type 'vtksys::_Hashtable_node<std::pair<const int, void (*)(vtkMultiProcessController*, void*)> >* const*' -->
            <parameter type-id='13a1b08c'/>
            <!-- parameter of type 'vtksys::_Hashtable_node<std::pair<const int, void (*)(vtkMultiProcessController*, void*)> >* const*' -->
            <parameter type-id='13a1b08c'/>
            <!-- parameter of type 'vtksys::_Hashtable_node<std::pair<const int, void (*)(vtkMultiProcessController*, void*)> >**' -->
            <parameter type-id='238b03e1'/>
            <!-- vtksys::_Hashtable_node<std::pair<const int, void (*)(vtkMultiProcessController*, void*)> >** -->
            <return type-id='238b03e1'/>
          </function-decl>
        </member-function>
        <member-function access='public' static='yes'>
          <!-- vtksys::_Hashtable_node<std::pair<const int, void*> >** std::__copy_move_backward<false, true, std::random_access_iterator_tag>::__copy_move_b<vtksys::_Hashtable_node<std::pair<const int, void*> >*>(vtksys::_Hashtable_node<std::pair<const int, void*> >* const*, vtksys::_Hashtable_node<std::pair<const int, void*> >**) -->
          <function-decl name='__copy_move_b&lt;vtksys::_Hashtable_node&lt;std::pair&lt;const int, void*&gt; &gt;*&gt;' filepath='/usr/lib/gcc/x86_64-redhat-linux/4.4.7/../../../../include/c++/4.4.7/bits/stl_algobase.h' line='572' column='1' visibility='default' binding='global' size-in-bits='64'>
            <!-- parameter of type 'vtksys::_Hashtable_node<std::pair<const int, void*> >* const*' -->
            <parameter type-id='d0756eed'/>
            <!-- parameter of type 'vtksys::_Hashtable_node<std::pair<const int, void*> >* const*' -->
            <parameter type-id='d0756eed'/>
            <!-- parameter of type 'vtksys::_Hashtable_node<std::pair<const int, void*> >**' -->
            <parameter type-id='e7879360'/>
            <!-- vtksys::_Hashtable_node<std::pair<const int, void*> >** -->
            <return type-id='e7879360'/>
          </function-decl>
        </member-function>
        <member-function access='public' static='yes'>
          <!-- vtksys::_Hashtable_node<std::pair<const int, std::vector<vtkMultiProcessController::vtkInternal::vtkRMICallback, std::allocator<vtkMultiProcessController::vtkInternal::vtkRMICallback> > > >** std::__copy_move_backward<false, true, std::random_access_iterator_tag>::__copy_move_b<vtksys::_Hashtable_node<std::pair<const int, std::vector<vtkMultiProcessController::vtkInternal::vtkRMICallback, std::allocator<vtkMultiProcessController::vtkInternal::vtkRMICallback> > > >*>(vtksys::_Hashtable_node<std::pair<const int, std::vector<vtkMultiProcessController::vtkInternal::vtkRMICallback, std::allocator<vtkMultiProcessController::vtkInternal::vtkRMICallback> > > >* const*, vtksys::_Hashtable_node<std::pair<const int, std::vector<vtkMultiProcessController::vtkInternal::vtkRMICallback, std::allocator<vtkMultiProcessController::vtkInternal::vtkRMICallback> > > >**) -->
          <function-decl name='__copy_move_b&lt;vtksys::_Hashtable_node&lt;std::pair&lt;const int, std::vector&lt;vtkMultiProcessController::vtkInternal::vtkRMICallback, std::allocator&lt;vtkMultiProcessController::vtkInternal::vtkRMICallback&gt; &gt; &gt; &gt;*&gt;' filepath='/usr/lib/gcc/x86_64-redhat-linux/4.4.7/../../../../include/c++/4.4.7/bits/stl_algobase.h' line='572' column='1' visibility='default' binding='global' size-in-bits='64'>
            <!-- parameter of type 'vtksys::_Hashtable_node<std::pair<const int, std::vector<vtkMultiProcessController::vtkInternal::vtkRMICallback, std::allocator<vtkMultiProcessController::vtkInternal::vtkRMICallback> > > >* const*' -->
            <parameter type-id='c2167637'/>
            <!-- parameter of type 'vtksys::_Hashtable_node<std::pair<const int, std::vector<vtkMultiProcessController::vtkInternal::vtkRMICallback, std::allocator<vtkMultiProcessController::vtkInternal::vtkRMICallback> > > >* const*' -->
            <parameter type-id='c2167637'/>
            <!-- parameter of type 'vtksys::_Hashtable_node<std::pair<const int, std::vector<vtkMultiProcessController::vtkInternal::vtkRMICallback, std::allocator<vtkMultiProcessController::vtkInternal::vtkRMICallback> > > >**' -->
            <parameter type-id='266e36e2'/>
            <!-- vtksys::_Hashtable_node<std::pair<const int, std::vector<vtkMultiProcessController::vtkInternal::vtkRMICallback, std::allocator<vtkMultiProcessController::vtkInternal::vtkRMICallback> > > >** -->
            <return type-id='266e36e2'/>
          </function-decl>
        </member-function>
        <member-function access='public' static='yes'>
          <!-- unsigned char** std::__copy_move_backward<false, true, std::random_access_iterator_tag>::__copy_move_b<unsigned char*>(unsigned char* const*, unsigned char**) -->
          <function-decl name='__copy_move_b&lt;unsigned char*&gt;' filepath='/usr/lib/gcc/x86_64-redhat-linux/4.4.7/../../../../include/c++/4.4.7/bits/stl_algobase.h' line='572' column='1' visibility='default' binding='global' size-in-bits='64'>
            <!-- parameter of type 'unsigned char* const*' -->
            <parameter type-id='e476df5f'/>
            <!-- parameter of type 'unsigned char* const*' -->
            <parameter type-id='e476df5f'/>
            <!-- parameter of type 'unsigned char**' -->
            <parameter type-id='ae4d32ca'/>
            <!-- unsigned char** -->
            <return type-id='ae4d32ca'/>
          </function-decl>
        </member-function>
        <member-function access='public' static='yes'>
          <!-- unsigned char* std::__copy_move_backward<false, true, std::random_access_iterator_tag>::__copy_move_b<unsigned char>(const unsigned char*, unsigned char*) -->
          <function-decl name='__copy_move_b&lt;unsigned char&gt;' filepath='/usr/lib/gcc/x86_64-redhat-linux/4.4.7/../../../../include/c++/4.4.7/bits/stl_algobase.h' line='572' column='1' visibility='default' binding='global' size-in-bits='64'>
            <!-- parameter of type 'const unsigned char*' -->
            <parameter type-id='354f7eb9'/>
            <!-- parameter of type 'const unsigned char*' -->
            <parameter type-id='354f7eb9'/>
            <!-- parameter of type 'unsigned char*' -->
            <parameter type-id='cf536864'/>
            <!-- unsigned char* -->
            <return type-id='cf536864'/>
          </function-decl>
        </member-function>
        <member-function access='public' static='yes'>
          <!-- char* std::__copy_move_backward<false, true, std::random_access_iterator_tag>::__copy_move_b<char>(const char*, char*) -->
          <function-decl name='__copy_move_b&lt;char&gt;' filepath='/usr/lib/gcc/x86_64-redhat-linux/4.4.7/../../../../include/c++/4.4.7/bits/stl_algobase.h' line='572' column='1' visibility='default' binding='global' size-in-bits='64'>
            <!-- parameter of type 'const char*' -->
            <parameter type-id='80f4b756'/>
            <!-- parameter of type 'const char*' -->
            <parameter type-id='80f4b756'/>
            <!-- parameter of type 'char*' -->
            <parameter type-id='26a90f95'/>
            <!-- char* -->
            <return type-id='26a90f95'/>
          </function-decl>
        </member-function>
        <member-function access='public' static='yes'>
          <!-- int* std::__copy_move_backward<false, true, std::random_access_iterator_tag>::__copy_move_b<int>(const int*, int*) -->
          <function-decl name='__copy_move_b&lt;int&gt;' filepath='/usr/lib/gcc/x86_64-redhat-linux/4.4.7/../../../../include/c++/4.4.7/bits/stl_algobase.h' line='572' column='1' visibility='default' binding='global' size-in-bits='64'>
            <!-- parameter of type 'const int*' -->
            <parameter type-id='6d60f45d'/>
            <!-- parameter of type 'const int*' -->
            <parameter type-id='6d60f45d'/>
            <!-- parameter of type 'int*' -->
            <parameter type-id='7292109c'/>
            <!-- int* -->
            <return type-id='7292109c'/>
          </function-decl>
        </member-function>
      </class-decl>
      <!-- typedef unsigned long int std::_Bit_type -->
      <typedef-decl name='_Bit_type' type-id='7359adad' filepath='/usr/lib/gcc/x86_64-redhat-linux/4.4.7/../../../../include/c++/4.4.7/bits/stl_bvector.h' line='64' column='1' id='1ee7c18a'/>
      <!-- struct std::_Destroy_aux<true> -->
      <class-decl name='_Destroy_aux&lt;true&gt;' size-in-bits='8' is-struct='yes' visibility='default' filepath='/usr/lib/gcc/x86_64-redhat-linux/4.4.7/../../../../include/c++/4.4.7/bits/stl_construct.h' line='106' column='1' id='b676ee50'>
        <member-function access='public' static='yes'>
          <!-- void std::_Destroy_aux<true>::__destroy<long long int*>(long long int*) -->
          <function-decl name='__destroy&lt;long long int*&gt;' filepath='/usr/lib/gcc/x86_64-redhat-linux/4.4.7/../../../../include/c++/4.4.7/bits/stl_construct.h' line='109' column='1' visibility='default' binding='global' size-in-bits='64'>
            <!-- parameter of type 'long long int*' -->
            <parameter type-id='8b97c2dc'/>
            <!-- parameter of type 'long long int*' -->
            <parameter type-id='8b97c2dc'/>
            <!-- void -->
            <return type-id='48b5725f'/>
          </function-decl>
        </member-function>
        <member-function access='public' static='yes'>
          <!-- void std::_Destroy_aux<true>::__destroy<unsigned char*>(unsigned char*) -->
          <function-decl name='__destroy&lt;unsigned char*&gt;' filepath='/usr/lib/gcc/x86_64-redhat-linux/4.4.7/../../../../include/c++/4.4.7/bits/stl_construct.h' line='109' column='1' visibility='default' binding='global' size-in-bits='64'>
            <!-- parameter of type 'unsigned char*' -->
            <parameter type-id='cf536864'/>
            <!-- parameter of type 'unsigned char*' -->
            <parameter type-id='cf536864'/>
            <!-- void -->
            <return type-id='48b5725f'/>
          </function-decl>
        </member-function>
        <member-function access='public' static='yes'>
          <!-- void std::_Destroy_aux<true>::__destroy<int*>(int*) -->
          <function-decl name='__destroy&lt;int*&gt;' filepath='/usr/lib/gcc/x86_64-redhat-linux/4.4.7/../../../../include/c++/4.4.7/bits/stl_construct.h' line='109' column='1' visibility='default' binding='global' size-in-bits='64'>
            <!-- parameter of type 'int*' -->
            <parameter type-id='7292109c'/>
            <!-- parameter of type 'int*' -->
            <parameter type-id='7292109c'/>
            <!-- void -->
            <return type-id='48b5725f'/>
          </function-decl>
        </member-function>
        <member-function access='public' static='yes'>
          <!-- void std::_Destroy_aux<true>::__destroy<vtkMultiProcessController::vtkInternal::vtkRMICallback*>(vtkMultiProcessController::vtkInternal::vtkRMICallback*) -->
          <function-decl name='__destroy&lt;vtkMultiProcessController::vtkInternal::vtkRMICallback*&gt;' filepath='/usr/lib/gcc/x86_64-redhat-linux/4.4.7/../../../../include/c++/4.4.7/bits/stl_construct.h' line='109' column='1' visibility='default' binding='global' size-in-bits='64'>
            <!-- parameter of type 'vtkMultiProcessController::vtkInternal::vtkRMICallback*' -->
            <parameter type-id='77cb9e50'/>
            <!-- parameter of type 'vtkMultiProcessController::vtkInternal::vtkRMICallback*' -->
            <parameter type-id='77cb9e50'/>
            <!-- void -->
            <return type-id='48b5725f'/>
          </function-decl>
        </member-function>
        <member-function access='public' static='yes'>
          <!-- void std::_Destroy_aux<true>::__destroy<vtksys::_Hashtable_node<std::pair<const int, void (*)(vtkMultiProcessController*, void*)> >**>(vtksys::_Hashtable_node<std::pair<const int, void (*)(vtkMultiProcessController*, void*)> >**) -->
          <function-decl name='__destroy&lt;vtksys::_Hashtable_node&lt;std::pair&lt;const int, void (*)(vtkMultiProcessController*, void*)&gt; &gt;**&gt;' filepath='/usr/lib/gcc/x86_64-redhat-linux/4.4.7/../../../../include/c++/4.4.7/bits/stl_construct.h' line='109' column='1' visibility='default' binding='global' size-in-bits='64'>
            <!-- parameter of type 'vtksys::_Hashtable_node<std::pair<const int, void (*)(vtkMultiProcessController*, void*)> >**' -->
            <parameter type-id='238b03e1'/>
            <!-- parameter of type 'vtksys::_Hashtable_node<std::pair<const int, void (*)(vtkMultiProcessController*, void*)> >**' -->
            <parameter type-id='238b03e1'/>
            <!-- void -->
            <return type-id='48b5725f'/>
          </function-decl>
        </member-function>
        <member-function access='public' static='yes'>
          <!-- void std::_Destroy_aux<true>::__destroy<vtksys::_Hashtable_node<std::pair<const int, void*> >**>(vtksys::_Hashtable_node<std::pair<const int, void*> >**) -->
          <function-decl name='__destroy&lt;vtksys::_Hashtable_node&lt;std::pair&lt;const int, void*&gt; &gt;**&gt;' filepath='/usr/lib/gcc/x86_64-redhat-linux/4.4.7/../../../../include/c++/4.4.7/bits/stl_construct.h' line='109' column='1' visibility='default' binding='global' size-in-bits='64'>
            <!-- parameter of type 'vtksys::_Hashtable_node<std::pair<const int, void*> >**' -->
            <parameter type-id='e7879360'/>
            <!-- parameter of type 'vtksys::_Hashtable_node<std::pair<const int, void*> >**' -->
            <parameter type-id='e7879360'/>
            <!-- void -->
            <return type-id='48b5725f'/>
          </function-decl>
        </member-function>
        <member-function access='public' static='yes'>
          <!-- void std::_Destroy_aux<true>::__destroy<vtksys::_Hashtable_node<std::pair<const int, std::vector<vtkMultiProcessController::vtkInternal::vtkRMICallback, std::allocator<vtkMultiProcessController::vtkInternal::vtkRMICallback> > > >**>(vtksys::_Hashtable_node<std::pair<const int, std::vector<vtkMultiProcessController::vtkInternal::vtkRMICallback, std::allocator<vtkMultiProcessController::vtkInternal::vtkRMICallback> > > >**) -->
          <function-decl name='__destroy&lt;vtksys::_Hashtable_node&lt;std::pair&lt;const int, std::vector&lt;vtkMultiProcessController::vtkInternal::vtkRMICallback, std::allocator&lt;vtkMultiProcessController::vtkInternal::vtkRMICallback&gt; &gt; &gt; &gt;**&gt;' filepath='/usr/lib/gcc/x86_64-redhat-linux/4.4.7/../../../../include/c++/4.4.7/bits/stl_construct.h' line='109' column='1' visibility='default' binding='global' size-in-bits='64'>
            <!-- parameter of type 'vtksys::_Hashtable_node<std::pair<const int, std::vector<vtkMultiProcessController::vtkInternal::vtkRMICallback, std::allocator<vtkMultiProcessController::vtkInternal::vtkRMICallback> > > >**' -->
            <parameter type-id='266e36e2'/>
            <!-- parameter of type 'vtksys::_Hashtable_node<std::pair<const int, std::vector<vtkMultiProcessController::vtkInternal::vtkRMICallback, std::allocator<vtkMultiProcessController::vtkInternal::vtkRMICallback> > > >**' -->
            <parameter type-id='266e36e2'/>
            <!-- void -->
            <return type-id='48b5725f'/>
          </function-decl>
        </member-function>
        <member-function access='public' static='yes'>
          <!-- void std::_Destroy_aux<true>::__destroy<std::_Deque_iterator<unsigned char, unsigned char&, unsigned char*> >(std::_Deque_iterator<unsigned char, unsigned char&, unsigned char*>) -->
          <function-decl name='__destroy&lt;std::_Deque_iterator&lt;unsigned char, unsigned char&amp;, unsigned char*&gt; &gt;' filepath='/usr/lib/gcc/x86_64-redhat-linux/4.4.7/../../../../include/c++/4.4.7/bits/stl_construct.h' line='109' column='1' visibility='default' binding='global' size-in-bits='64'>
            <!-- parameter of type 'struct std::_Deque_iterator<unsigned char, unsigned char&, unsigned char*>' -->
            <parameter type-id='1978efb9'/>
            <!-- parameter of type 'struct std::_Deque_iterator<unsigned char, unsigned char&, unsigned char*>' -->
            <parameter type-id='1978efb9'/>
            <!-- void -->
            <return type-id='48b5725f'/>
          </function-decl>
        </member-function>
        <member-function access='public' static='yes'>
          <!-- void std::_Destroy_aux<true>::__destroy<char*>(char*) -->
          <function-decl name='__destroy&lt;char*&gt;' filepath='/usr/lib/gcc/x86_64-redhat-linux/4.4.7/../../../../include/c++/4.4.7/bits/stl_construct.h' line='109' column='1' visibility='default' binding='global' size-in-bits='64'>
            <!-- parameter of type 'char*' -->
            <parameter type-id='26a90f95'/>
            <!-- parameter of type 'char*' -->
            <parameter type-id='26a90f95'/>
            <!-- void -->
            <return type-id='48b5725f'/>
          </function-decl>
        </member-function>
      </class-decl>
      <!-- struct std::__uninitialized_copy<true> -->
      <class-decl name='__uninitialized_copy&lt;true&gt;' size-in-bits='8' is-struct='yes' visibility='default' filepath='/usr/lib/gcc/x86_64-redhat-linux/4.4.7/../../../../include/c++/4.4.7/bits/stl_uninitialized.h' line='87' column='1' id='11213b0f'>
        <member-function access='public' static='yes'>
          <!-- unsigned char* std::__uninitialized_copy<true>::uninitialized_copy<unsigned char*, unsigned char*>(unsigned char*, unsigned char*) -->
          <function-decl name='uninitialized_copy&lt;unsigned char*, unsigned char*&gt;' filepath='/usr/lib/gcc/x86_64-redhat-linux/4.4.7/../../../../include/c++/4.4.7/bits/stl_uninitialized.h' line='90' column='1' visibility='default' binding='global' size-in-bits='64'>
            <!-- parameter of type 'unsigned char*' -->
            <parameter type-id='cf536864'/>
            <!-- parameter of type 'unsigned char*' -->
            <parameter type-id='cf536864'/>
            <!-- parameter of type 'unsigned char*' -->
            <parameter type-id='cf536864'/>
            <!-- unsigned char* -->
            <return type-id='cf536864'/>
          </function-decl>
        </member-function>
        <member-function access='public' static='yes'>
          <!-- vtkMultiProcessController::vtkInternal::vtkRMICallback* std::__uninitialized_copy<true>::uninitialized_copy<vtkMultiProcessController::vtkInternal::vtkRMICallback*, vtkMultiProcessController::vtkInternal::vtkRMICallback*>(vtkMultiProcessController::vtkInternal::vtkRMICallback*, vtkMultiProcessController::vtkInternal::vtkRMICallback*) -->
          <function-decl name='uninitialized_copy&lt;vtkMultiProcessController::vtkInternal::vtkRMICallback*, vtkMultiProcessController::vtkInternal::vtkRMICallback*&gt;' filepath='/usr/lib/gcc/x86_64-redhat-linux/4.4.7/../../../../include/c++/4.4.7/bits/stl_uninitialized.h' line='90' column='1' visibility='default' binding='global' size-in-bits='64'>
            <!-- parameter of type 'vtkMultiProcessController::vtkInternal::vtkRMICallback*' -->
            <parameter type-id='77cb9e50'/>
            <!-- parameter of type 'vtkMultiProcessController::vtkInternal::vtkRMICallback*' -->
            <parameter type-id='77cb9e50'/>
            <!-- parameter of type 'vtkMultiProcessController::vtkInternal::vtkRMICallback*' -->
            <parameter type-id='77cb9e50'/>
            <!-- vtkMultiProcessController::vtkInternal::vtkRMICallback* -->
            <return type-id='77cb9e50'/>
          </function-decl>
        </member-function>
        <member-function access='public' static='yes'>
          <!-- vtkMultiProcessController::vtkInternal::vtkRMICallback* std::__uninitialized_copy<true>::uninitialized_copy<__gnu_cxx::__normal_iterator<const vtkMultiProcessController::vtkInternal::vtkRMICallback*, std::vector<vtkMultiProcessController::vtkInternal::vtkRMICallback, std::allocator<vtkMultiProcessController::vtkInternal::vtkRMICallback> > >, vtkMultiProcessController::vtkInternal::vtkRMICallback*>(__gnu_cxx::__normal_iterator<const vtkMultiProcessController::vtkInternal::vtkRMICallback*, std::vector<vtkMultiProcessController::vtkInternal::vtkRMICallback, std::allocator<vtkMultiProcessController::vtkInternal::vtkRMICallback> > >, vtkMultiProcessController::vtkInternal::vtkRMICallback*) -->
          <function-decl name='uninitialized_copy&lt;__gnu_cxx::__normal_iterator&lt;const vtkMultiProcessController::vtkInternal::vtkRMICallback*, std::vector&lt;vtkMultiProcessController::vtkInternal::vtkRMICallback, std::allocator&lt;vtkMultiProcessController::vtkInternal::vtkRMICallback&gt; &gt; &gt;, vtkMultiProcessController::vtkInternal::vtkRMICallback*&gt;' filepath='/usr/lib/gcc/x86_64-redhat-linux/4.4.7/../../../../include/c++/4.4.7/bits/stl_uninitialized.h' line='90' column='1' visibility='default' binding='global' size-in-bits='64'>
            <!-- parameter of type 'class __gnu_cxx::__normal_iterator<const vtkMultiProcessController::vtkInternal::vtkRMICallback*, std::vector<vtkMultiProcessController::vtkInternal::vtkRMICallback, std::allocator<vtkMultiProcessController::vtkInternal::vtkRMICallback> > >' -->
            <parameter type-id='4a570585'/>
            <!-- parameter of type 'class __gnu_cxx::__normal_iterator<const vtkMultiProcessController::vtkInternal::vtkRMICallback*, std::vector<vtkMultiProcessController::vtkInternal::vtkRMICallback, std::allocator<vtkMultiProcessController::vtkInternal::vtkRMICallback> > >' -->
            <parameter type-id='4a570585'/>
            <!-- parameter of type 'vtkMultiProcessController::vtkInternal::vtkRMICallback*' -->
            <parameter type-id='77cb9e50'/>
            <!-- vtkMultiProcessController::vtkInternal::vtkRMICallback* -->
            <return type-id='77cb9e50'/>
          </function-decl>
        </member-function>
        <member-function access='public' static='yes'>
          <!-- vtksys::_Hashtable_node<std::pair<const int, void (*)(vtkMultiProcessController*, void*)> >** std::__uninitialized_copy<true>::uninitialized_copy<vtksys::_Hashtable_node<std::pair<const int, void (*)(vtkMultiProcessController*, void*)> >**, vtksys::_Hashtable_node<std::pair<const int, void (*)(vtkMultiProcessController*, void*)> >**>(vtksys::_Hashtable_node<std::pair<const int, void (*)(vtkMultiProcessController*, void*)> >**, vtksys::_Hashtable_node<std::pair<const int, void (*)(vtkMultiProcessController*, void*)> >**) -->
          <function-decl name='uninitialized_copy&lt;vtksys::_Hashtable_node&lt;std::pair&lt;const int, void (*)(vtkMultiProcessController*, void*)&gt; &gt;**, vtksys::_Hashtable_node&lt;std::pair&lt;const int, void (*)(vtkMultiProcessController*, void*)&gt; &gt;**&gt;' filepath='/usr/lib/gcc/x86_64-redhat-linux/4.4.7/../../../../include/c++/4.4.7/bits/stl_uninitialized.h' line='90' column='1' visibility='default' binding='global' size-in-bits='64'>
            <!-- parameter of type 'vtksys::_Hashtable_node<std::pair<const int, void (*)(vtkMultiProcessController*, void*)> >**' -->
            <parameter type-id='238b03e1'/>
            <!-- parameter of type 'vtksys::_Hashtable_node<std::pair<const int, void (*)(vtkMultiProcessController*, void*)> >**' -->
            <parameter type-id='238b03e1'/>
            <!-- parameter of type 'vtksys::_Hashtable_node<std::pair<const int, void (*)(vtkMultiProcessController*, void*)> >**' -->
            <parameter type-id='238b03e1'/>
            <!-- vtksys::_Hashtable_node<std::pair<const int, void (*)(vtkMultiProcessController*, void*)> >** -->
            <return type-id='238b03e1'/>
          </function-decl>
        </member-function>
        <member-function access='public' static='yes'>
          <!-- vtksys::_Hashtable_node<std::pair<const int, void*> >** std::__uninitialized_copy<true>::uninitialized_copy<vtksys::_Hashtable_node<std::pair<const int, void*> >**, vtksys::_Hashtable_node<std::pair<const int, void*> >**>(vtksys::_Hashtable_node<std::pair<const int, void*> >**, vtksys::_Hashtable_node<std::pair<const int, void*> >**) -->
          <function-decl name='uninitialized_copy&lt;vtksys::_Hashtable_node&lt;std::pair&lt;const int, void*&gt; &gt;**, vtksys::_Hashtable_node&lt;std::pair&lt;const int, void*&gt; &gt;**&gt;' filepath='/usr/lib/gcc/x86_64-redhat-linux/4.4.7/../../../../include/c++/4.4.7/bits/stl_uninitialized.h' line='90' column='1' visibility='default' binding='global' size-in-bits='64'>
            <!-- parameter of type 'vtksys::_Hashtable_node<std::pair<const int, void*> >**' -->
            <parameter type-id='e7879360'/>
            <!-- parameter of type 'vtksys::_Hashtable_node<std::pair<const int, void*> >**' -->
            <parameter type-id='e7879360'/>
            <!-- parameter of type 'vtksys::_Hashtable_node<std::pair<const int, void*> >**' -->
            <parameter type-id='e7879360'/>
            <!-- vtksys::_Hashtable_node<std::pair<const int, void*> >** -->
            <return type-id='e7879360'/>
          </function-decl>
        </member-function>
        <member-function access='public' static='yes'>
          <!-- vtksys::_Hashtable_node<std::pair<const int, std::vector<vtkMultiProcessController::vtkInternal::vtkRMICallback, std::allocator<vtkMultiProcessController::vtkInternal::vtkRMICallback> > > >** std::__uninitialized_copy<true>::uninitialized_copy<vtksys::_Hashtable_node<std::pair<const int, std::vector<vtkMultiProcessController::vtkInternal::vtkRMICallback, std::allocator<vtkMultiProcessController::vtkInternal::vtkRMICallback> > > >**, vtksys::_Hashtable_node<std::pair<const int, std::vector<vtkMultiProcessController::vtkInternal::vtkRMICallback, std::allocator<vtkMultiProcessController::vtkInternal::vtkRMICallback> > > >**>(vtksys::_Hashtable_node<std::pair<const int, std::vector<vtkMultiProcessController::vtkInternal::vtkRMICallback, std::allocator<vtkMultiProcessController::vtkInternal::vtkRMICallback> > > >**, vtksys::_Hashtable_node<std::pair<const int, std::vector<vtkMultiProcessController::vtkInternal::vtkRMICallback, std::allocator<vtkMultiProcessController::vtkInternal::vtkRMICallback> > > >**) -->
          <function-decl name='uninitialized_copy&lt;vtksys::_Hashtable_node&lt;std::pair&lt;const int, std::vector&lt;vtkMultiProcessController::vtkInternal::vtkRMICallback, std::allocator&lt;vtkMultiProcessController::vtkInternal::vtkRMICallback&gt; &gt; &gt; &gt;**, vtksys::_Hashtable_node&lt;std::pair&lt;const int, std::vector&lt;vtkMultiProcessController::vtkInternal::vtkRMICallback, std::allocator&lt;vtkMultiProcessController::vtkInternal::vtkRMICallback&gt; &gt; &gt; &gt;**&gt;' filepath='/usr/lib/gcc/x86_64-redhat-linux/4.4.7/../../../../include/c++/4.4.7/bits/stl_uninitialized.h' line='90' column='1' visibility='default' binding='global' size-in-bits='64'>
            <!-- parameter of type 'vtksys::_Hashtable_node<std::pair<const int, std::vector<vtkMultiProcessController::vtkInternal::vtkRMICallback, std::allocator<vtkMultiProcessController::vtkInternal::vtkRMICallback> > > >**' -->
            <parameter type-id='266e36e2'/>
            <!-- parameter of type 'vtksys::_Hashtable_node<std::pair<const int, std::vector<vtkMultiProcessController::vtkInternal::vtkRMICallback, std::allocator<vtkMultiProcessController::vtkInternal::vtkRMICallback> > > >**' -->
            <parameter type-id='266e36e2'/>
            <!-- parameter of type 'vtksys::_Hashtable_node<std::pair<const int, std::vector<vtkMultiProcessController::vtkInternal::vtkRMICallback, std::allocator<vtkMultiProcessController::vtkInternal::vtkRMICallback> > > >**' -->
            <parameter type-id='266e36e2'/>
            <!-- vtksys::_Hashtable_node<std::pair<const int, std::vector<vtkMultiProcessController::vtkInternal::vtkRMICallback, std::allocator<vtkMultiProcessController::vtkInternal::vtkRMICallback> > > >** -->
            <return type-id='266e36e2'/>
          </function-decl>
        </member-function>
        <member-function access='public' static='yes'>
          <!-- std::_Deque_iterator<unsigned char, unsigned char&, unsigned char*> std::__uninitialized_copy<true>::uninitialized_copy<std::_Deque_iterator<unsigned char, const unsigned char&, const unsigned char*>, std::_Deque_iterator<unsigned char, unsigned char&, unsigned char*> >(std::_Deque_iterator<unsigned char, const unsigned char&, const unsigned char*>, std::_Deque_iterator<unsigned char, unsigned char&, unsigned char*>) -->
          <function-decl name='uninitialized_copy&lt;std::_Deque_iterator&lt;unsigned char, const unsigned char&amp;, const unsigned char*&gt;, std::_Deque_iterator&lt;unsigned char, unsigned char&amp;, unsigned char*&gt; &gt;' filepath='/usr/lib/gcc/x86_64-redhat-linux/4.4.7/../../../../include/c++/4.4.7/bits/stl_uninitialized.h' line='90' column='1' visibility='default' binding='global' size-in-bits='64'>
            <!-- parameter of type 'struct std::_Deque_iterator<unsigned char, const unsigned char&, const unsigned char*>' -->
            <parameter type-id='566a34e5'/>
            <!-- parameter of type 'struct std::_Deque_iterator<unsigned char, const unsigned char&, const unsigned char*>' -->
            <parameter type-id='566a34e5'/>
            <!-- parameter of type 'struct std::_Deque_iterator<unsigned char, unsigned char&, unsigned char*>' -->
            <parameter type-id='1978efb9'/>
            <!-- struct std::_Deque_iterator<unsigned char, unsigned char&, unsigned char*> -->
            <return type-id='1978efb9'/>
          </function-decl>
        </member-function>
        <member-function access='public' static='yes'>
          <!-- std::_Deque_iterator<unsigned char, unsigned char&, unsigned char*> std::__uninitialized_copy<true>::uninitialized_copy<std::_Deque_iterator<unsigned char, unsigned char&, unsigned char*>, std::_Deque_iterator<unsigned char, unsigned char&, unsigned char*> >(std::_Deque_iterator<unsigned char, unsigned char&, unsigned char*>, std::_Deque_iterator<unsigned char, unsigned char&, unsigned char*>) -->
          <function-decl name='uninitialized_copy&lt;std::_Deque_iterator&lt;unsigned char, unsigned char&amp;, unsigned char*&gt;, std::_Deque_iterator&lt;unsigned char, unsigned char&amp;, unsigned char*&gt; &gt;' filepath='/usr/lib/gcc/x86_64-redhat-linux/4.4.7/../../../../include/c++/4.4.7/bits/stl_uninitialized.h' line='90' column='1' visibility='default' binding='global' size-in-bits='64'>
            <!-- parameter of type 'struct std::_Deque_iterator<unsigned char, unsigned char&, unsigned char*>' -->
            <parameter type-id='1978efb9'/>
            <!-- parameter of type 'struct std::_Deque_iterator<unsigned char, unsigned char&, unsigned char*>' -->
            <parameter type-id='1978efb9'/>
            <!-- parameter of type 'struct std::_Deque_iterator<unsigned char, unsigned char&, unsigned char*>' -->
            <parameter type-id='1978efb9'/>
            <!-- struct std::_Deque_iterator<unsigned char, unsigned char&, unsigned char*> -->
            <return type-id='1978efb9'/>
          </function-decl>
        </member-function>
        <member-function access='public' static='yes'>
          <!-- char* std::__uninitialized_copy<true>::uninitialized_copy<__gnu_cxx::__normal_iterator<const char*, std::vector<char, std::allocator<char> > >, char*>(__gnu_cxx::__normal_iterator<const char*, std::vector<char, std::allocator<char> > >, char*) -->
          <function-decl name='uninitialized_copy&lt;__gnu_cxx::__normal_iterator&lt;const char*, std::vector&lt;char, std::allocator&lt;char&gt; &gt; &gt;, char*&gt;' filepath='/usr/lib/gcc/x86_64-redhat-linux/4.4.7/../../../../include/c++/4.4.7/bits/stl_uninitialized.h' line='90' column='1' visibility='default' binding='global' size-in-bits='64'>
            <!-- parameter of type 'class __gnu_cxx::__normal_iterator<const char*, std::vector<char, std::allocator<char> > >' -->
            <parameter type-id='1b475af6'/>
            <!-- parameter of type 'class __gnu_cxx::__normal_iterator<const char*, std::vector<char, std::allocator<char> > >' -->
            <parameter type-id='1b475af6'/>
            <!-- parameter of type 'char*' -->
            <parameter type-id='26a90f95'/>
            <!-- char* -->
            <return type-id='26a90f95'/>
          </function-decl>
        </member-function>
        <member-function access='public' static='yes'>
          <!-- char* std::__uninitialized_copy<true>::uninitialized_copy<char*, char*>(char*, char*) -->
          <function-decl name='uninitialized_copy&lt;char*, char*&gt;' filepath='/usr/lib/gcc/x86_64-redhat-linux/4.4.7/../../../../include/c++/4.4.7/bits/stl_uninitialized.h' line='90' column='1' visibility='default' binding='global' size-in-bits='64'>
            <!-- parameter of type 'char*' -->
            <parameter type-id='26a90f95'/>
            <!-- parameter of type 'char*' -->
            <parameter type-id='26a90f95'/>
            <!-- parameter of type 'char*' -->
            <parameter type-id='26a90f95'/>
            <!-- char* -->
            <return type-id='26a90f95'/>
          </function-decl>
        </member-function>
        <member-function access='public' static='yes'>
          <!-- int* std::__uninitialized_copy<true>::uninitialized_copy<int*, int*>(int*, int*) -->
          <function-decl name='uninitialized_copy&lt;int*, int*&gt;' filepath='/usr/lib/gcc/x86_64-redhat-linux/4.4.7/../../../../include/c++/4.4.7/bits/stl_uninitialized.h' line='90' column='1' visibility='default' binding='global' size-in-bits='64'>
            <!-- parameter of type 'int*' -->
            <parameter type-id='7292109c'/>
            <!-- parameter of type 'int*' -->
            <parameter type-id='7292109c'/>
            <!-- parameter of type 'int*' -->
            <parameter type-id='7292109c'/>
            <!-- int* -->
            <return type-id='7292109c'/>
          </function-decl>
        </member-function>
      </class-decl>
      <!-- struct std::__uninitialized_fill_n<true> -->
      <class-decl name='__uninitialized_fill_n&lt;true&gt;' size-in-bits='8' is-struct='yes' visibility='default' filepath='/usr/lib/gcc/x86_64-redhat-linux/4.4.7/../../../../include/c++/4.4.7/bits/stl_uninitialized.h' line='198' column='1' id='5f532ece'>
        <member-function access='public' static='yes'>
          <!-- void std::__uninitialized_fill_n<true>::uninitialized_fill_n<long long int*, long unsigned int, long long int>(unsigned long int, const long long int&) -->
          <function-decl name='uninitialized_fill_n&lt;long long int*, long unsigned int, long long int&gt;' filepath='/usr/lib/gcc/x86_64-redhat-linux/4.4.7/../../../../include/c++/4.4.7/bits/stl_uninitialized.h' line='201' column='1' visibility='default' binding='global' size-in-bits='64'>
            <!-- parameter of type 'long long int*' -->
            <parameter type-id='8b97c2dc'/>
            <!-- parameter of type 'unsigned long int' -->
            <parameter type-id='7359adad'/>
            <!-- parameter of type 'const long long int&' -->
            <parameter type-id='e12052cd'/>
            <!-- void -->
            <return type-id='48b5725f'/>
          </function-decl>
        </member-function>
        <member-function access='public' static='yes'>
          <!-- void std::__uninitialized_fill_n<true>::uninitialized_fill_n<unsigned char*, long unsigned int, unsigned char>(unsigned long int, const unsigned char&) -->
          <function-decl name='uninitialized_fill_n&lt;unsigned char*, long unsigned int, unsigned char&gt;' filepath='/usr/lib/gcc/x86_64-redhat-linux/4.4.7/../../../../include/c++/4.4.7/bits/stl_uninitialized.h' line='201' column='1' visibility='default' binding='global' size-in-bits='64'>
            <!-- parameter of type 'unsigned char*' -->
            <parameter type-id='cf536864'/>
            <!-- parameter of type 'unsigned long int' -->
            <parameter type-id='7359adad'/>
            <!-- parameter of type 'const unsigned char&' -->
            <parameter type-id='414f919d'/>
            <!-- void -->
            <return type-id='48b5725f'/>
          </function-decl>
        </member-function>
        <member-function access='public' static='yes'>
          <!-- void std::__uninitialized_fill_n<true>::uninitialized_fill_n<int*, long unsigned int, int>(unsigned long int, const int&) -->
          <function-decl name='uninitialized_fill_n&lt;int*, long unsigned int, int&gt;' filepath='/usr/lib/gcc/x86_64-redhat-linux/4.4.7/../../../../include/c++/4.4.7/bits/stl_uninitialized.h' line='201' column='1' visibility='default' binding='global' size-in-bits='64'>
            <!-- parameter of type 'int*' -->
            <parameter type-id='7292109c'/>
            <!-- parameter of type 'unsigned long int' -->
            <parameter type-id='7359adad'/>
            <!-- parameter of type 'const int&' -->
            <parameter type-id='6160e179'/>
            <!-- void -->
            <return type-id='48b5725f'/>
          </function-decl>
        </member-function>
        <member-function access='public' static='yes'>
          <!-- void std::__uninitialized_fill_n<true>::uninitialized_fill_n<vtksys::_Hashtable_node<std::pair<const int, void (*)(vtkMultiProcessController*, void*)> >**, long unsigned int, vtksys::_Hashtable_node<std::pair<const int, void (*)(vtkMultiProcessController*, void*)> >*>(unsigned long int, vtksys::_Hashtable_node<std::pair<const int, void (*)(vtkMultiProcessController*, void*)> >* const&) -->
          <function-decl name='uninitialized_fill_n&lt;vtksys::_Hashtable_node&lt;std::pair&lt;const int, void (*)(vtkMultiProcessController*, void*)&gt; &gt;**, long unsigned int, vtksys::_Hashtable_node&lt;std::pair&lt;const int, void (*)(vtkMultiProcessController*, void*)&gt; &gt;*&gt;' filepath='/usr/lib/gcc/x86_64-redhat-linux/4.4.7/../../../../include/c++/4.4.7/bits/stl_uninitialized.h' line='201' column='1' visibility='default' binding='global' size-in-bits='64'>
            <!-- parameter of type 'vtksys::_Hashtable_node<std::pair<const int, void (*)(vtkMultiProcessController*, void*)> >**' -->
            <parameter type-id='238b03e1'/>
            <!-- parameter of type 'unsigned long int' -->
            <parameter type-id='7359adad'/>
            <!-- parameter of type 'vtksys::_Hashtable_node<std::pair<const int, void (*)(vtkMultiProcessController*, void*)> >* const&' -->
            <parameter type-id='17a1b6d8'/>
            <!-- void -->
            <return type-id='48b5725f'/>
          </function-decl>
        </member-function>
        <member-function access='public' static='yes'>
          <!-- void std::__uninitialized_fill_n<true>::uninitialized_fill_n<vtksys::_Hashtable_node<std::pair<const int, void*> >**, long unsigned int, vtksys::_Hashtable_node<std::pair<const int, void*> >*>(unsigned long int, vtksys::_Hashtable_node<std::pair<const int, void*> >* const&) -->
          <function-decl name='uninitialized_fill_n&lt;vtksys::_Hashtable_node&lt;std::pair&lt;const int, void*&gt; &gt;**, long unsigned int, vtksys::_Hashtable_node&lt;std::pair&lt;const int, void*&gt; &gt;*&gt;' filepath='/usr/lib/gcc/x86_64-redhat-linux/4.4.7/../../../../include/c++/4.4.7/bits/stl_uninitialized.h' line='201' column='1' visibility='default' binding='global' size-in-bits='64'>
            <!-- parameter of type 'vtksys::_Hashtable_node<std::pair<const int, void*> >**' -->
            <parameter type-id='e7879360'/>
            <!-- parameter of type 'unsigned long int' -->
            <parameter type-id='7359adad'/>
            <!-- parameter of type 'vtksys::_Hashtable_node<std::pair<const int, void*> >* const&' -->
            <parameter type-id='c4755c09'/>
            <!-- void -->
            <return type-id='48b5725f'/>
          </function-decl>
        </member-function>
        <member-function access='public' static='yes'>
          <!-- void std::__uninitialized_fill_n<true>::uninitialized_fill_n<vtksys::_Hashtable_node<std::pair<const int, std::vector<vtkMultiProcessController::vtkInternal::vtkRMICallback, std::allocator<vtkMultiProcessController::vtkInternal::vtkRMICallback> > > >**, long unsigned int, vtksys::_Hashtable_node<std::pair<const int, std::vector<vtkMultiProcessController::vtkInternal::vtkRMICallback, std::allocator<vtkMultiProcessController::vtkInternal::vtkRMICallback> > > >*>(unsigned long int, vtksys::_Hashtable_node<std::pair<const int, std::vector<vtkMultiProcessController::vtkInternal::vtkRMICallback, std::allocator<vtkMultiProcessController::vtkInternal::vtkRMICallback> > > >* const&) -->
          <function-decl name='uninitialized_fill_n&lt;vtksys::_Hashtable_node&lt;std::pair&lt;const int, std::vector&lt;vtkMultiProcessController::vtkInternal::vtkRMICallback, std::allocator&lt;vtkMultiProcessController::vtkInternal::vtkRMICallback&gt; &gt; &gt; &gt;**, long unsigned int, vtksys::_Hashtable_node&lt;std::pair&lt;const int, std::vector&lt;vtkMultiProcessController::vtkInternal::vtkRMICallback, std::allocator&lt;vtkMultiProcessController::vtkInternal::vtkRMICallback&gt; &gt; &gt; &gt;*&gt;' filepath='/usr/lib/gcc/x86_64-redhat-linux/4.4.7/../../../../include/c++/4.4.7/bits/stl_uninitialized.h' line='201' column='1' visibility='default' binding='global' size-in-bits='64'>
            <!-- parameter of type 'vtksys::_Hashtable_node<std::pair<const int, std::vector<vtkMultiProcessController::vtkInternal::vtkRMICallback, std::allocator<vtkMultiProcessController::vtkInternal::vtkRMICallback> > > >**' -->
            <parameter type-id='266e36e2'/>
            <!-- parameter of type 'unsigned long int' -->
            <parameter type-id='7359adad'/>
            <!-- parameter of type 'vtksys::_Hashtable_node<std::pair<const int, std::vector<vtkMultiProcessController::vtkInternal::vtkRMICallback, std::allocator<vtkMultiProcessController::vtkInternal::vtkRMICallback> > > >* const&' -->
            <parameter type-id='b6166353'/>
            <!-- void -->
            <return type-id='48b5725f'/>
          </function-decl>
        </member-function>
      </class-decl>
      <!-- struct std::_Vector_base<long long int, std::allocator<long long int> > -->
      <class-decl name='_Vector_base&lt;long long int, std::allocator&lt;long long int&gt; &gt;' size-in-bits='192' is-struct='yes' visibility='default' filepath='/usr/lib/gcc/x86_64-redhat-linux/4.4.7/../../../../include/c++/4.4.7/bits/stl_vector.h' line='70' column='1' id='9af3c6ae'>
        <member-type access='public'>
          <!-- struct std::_Vector_base<long long int, std::allocator<long long int> >::_Vector_impl -->
          <class-decl name='_Vector_impl' size-in-bits='192' is-struct='yes' visibility='default' filepath='/usr/lib/gcc/x86_64-redhat-linux/4.4.7/../../../../include/c++/4.4.7/bits/stl_vector.h' line='75' column='1' id='c1111393'>
            <!-- class std::allocator<long long int> -->
            <base-class access='public' layout-offset-in-bits='0' type-id='6143f8c4'/>
            <data-member access='public' layout-offset-in-bits='0'>
              <!-- long long int* std::_Vector_base<long long int, std::allocator<long long int> >::_Vector_impl::_M_start -->
              <var-decl name='_M_start' type-id='8b97c2dc' visibility='default' filepath='/usr/lib/gcc/x86_64-redhat-linux/4.4.7/../../../../include/c++/4.4.7/bits/stl_vector.h' line='76' column='1'/>
            </data-member>
            <data-member access='public' layout-offset-in-bits='64'>
              <!-- long long int* std::_Vector_base<long long int, std::allocator<long long int> >::_Vector_impl::_M_finish -->
              <var-decl name='_M_finish' type-id='8b97c2dc' visibility='default' filepath='/usr/lib/gcc/x86_64-redhat-linux/4.4.7/../../../../include/c++/4.4.7/bits/stl_vector.h' line='77' column='1'/>
            </data-member>
            <data-member access='public' layout-offset-in-bits='128'>
              <!-- long long int* std::_Vector_base<long long int, std::allocator<long long int> >::_Vector_impl::_M_end_of_storage -->
              <var-decl name='_M_end_of_storage' type-id='8b97c2dc' visibility='default' filepath='/usr/lib/gcc/x86_64-redhat-linux/4.4.7/../../../../include/c++/4.4.7/bits/stl_vector.h' line='78' column='1'/>
            </data-member>
            <member-function access='public' constructor='yes'>
              <!-- std::_Vector_base<long long int, std::allocator<long long int> >::_Vector_impl::_Vector_impl() -->
              <function-decl name='_Vector_impl' filepath='/usr/lib/gcc/x86_64-redhat-linux/4.4.7/../../../../include/c++/4.4.7/bits/stl_vector.h' line='80' column='1' visibility='default' binding='global' size-in-bits='64'>
                <!-- implicit parameter of type 'std::_Vector_base<long long int, std::allocator<long long int> >::_Vector_impl*' -->
                <parameter type-id='d4c69033' is-artificial='yes'/>
                <!-- void -->
                <return type-id='48b5725f'/>
              </function-decl>
            </member-function>
            <member-function access='public' constructor='yes'>
              <!-- std::_Vector_base<long long int, std::allocator<long long int> >::_Vector_impl::_Vector_impl(const std::allocator<long long int>&) -->
              <function-decl name='_Vector_impl' filepath='/usr/lib/gcc/x86_64-redhat-linux/4.4.7/../../../../include/c++/4.4.7/bits/stl_vector.h' line='84' column='1' visibility='default' binding='global' size-in-bits='64'>
                <!-- implicit parameter of type 'std::_Vector_base<long long int, std::allocator<long long int> >::_Vector_impl*' -->
                <parameter type-id='d4c69033' is-artificial='yes'/>
                <!-- parameter of type 'const std::allocator<long long int>&' -->
                <parameter type-id='d6825ed7'/>
                <!-- void -->
                <return type-id='48b5725f'/>
              </function-decl>
            </member-function>
          </class-decl>
        </member-type>
        <data-member access='public' layout-offset-in-bits='0'>
          <!-- std::_Vector_base<long long int, std::allocator<long long int> >::_Vector_impl std::_Vector_base<long long int, std::allocator<long long int> >::_M_impl -->
          <var-decl name='_M_impl' type-id='c1111393' visibility='default' filepath='/usr/lib/gcc/x86_64-redhat-linux/4.4.7/../../../../include/c++/4.4.7/bits/stl_vector.h' line='136' column='1'/>
        </data-member>
        <member-function access='public'>
          <!-- void std::_Vector_base<long long int, std::allocator<long long int> >::_Vector_base() -->
          <function-decl name='_Vector_base' filepath='/usr/lib/gcc/x86_64-redhat-linux/4.4.7/../../../../include/c++/4.4.7/bits/stl_vector.h' line='104' column='1' visibility='default' binding='global' size-in-bits='64'>
            <!-- implicit parameter of type 'std::_Vector_base<long long int, std::allocator<long long int> >*' -->
            <parameter type-id='4095c424' is-artificial='yes'/>
            <!-- void -->
            <return type-id='48b5725f'/>
          </function-decl>
        </member-function>
        <member-function access='public'>
          <!-- void std::_Vector_base<long long int, std::allocator<long long int> >::_Vector_base(const std::allocator<long long int>&) -->
          <function-decl name='_Vector_base' filepath='/usr/lib/gcc/x86_64-redhat-linux/4.4.7/../../../../include/c++/4.4.7/bits/stl_vector.h' line='107' column='1' visibility='default' binding='global' size-in-bits='64'>
            <!-- implicit parameter of type 'std::_Vector_base<long long int, std::allocator<long long int> >*' -->
            <parameter type-id='4095c424' is-artificial='yes'/>
            <!-- parameter of type 'const std::allocator<long long int>&' -->
            <parameter type-id='d6825ed7'/>
            <!-- void -->
            <return type-id='48b5725f'/>
          </function-decl>
        </member-function>
        <member-function access='public'>
          <!-- void std::_Vector_base<long long int, std::allocator<long long int> >::_Vector_base(unsigned long int, const std::allocator<long long int>&) -->
          <function-decl name='_Vector_base' filepath='/usr/lib/gcc/x86_64-redhat-linux/4.4.7/../../../../include/c++/4.4.7/bits/stl_vector.h' line='110' column='1' visibility='default' binding='global' size-in-bits='64'>
            <!-- implicit parameter of type 'std::_Vector_base<long long int, std::allocator<long long int> >*' -->
            <parameter type-id='4095c424' is-artificial='yes'/>
            <!-- parameter of type 'unsigned long int' -->
            <parameter type-id='7359adad'/>
            <!-- parameter of type 'const std::allocator<long long int>&' -->
            <parameter type-id='d6825ed7'/>
            <!-- void -->
            <return type-id='48b5725f'/>
          </function-decl>
        </member-function>
        <member-function access='public' destructor='yes'>
          <!-- std::_Vector_base<long long int, std::allocator<long long int> >::~_Vector_base(int) -->
          <function-decl name='~_Vector_base' filepath='/usr/lib/gcc/x86_64-redhat-linux/4.4.7/../../../../include/c++/4.4.7/bits/stl_vector.h' line='131' column='1' visibility='default' binding='global' size-in-bits='64'>
            <!-- implicit parameter of type 'std::_Vector_base<long long int, std::allocator<long long int> >*' -->
            <parameter type-id='4095c424' is-artificial='yes'/>
            <!-- artificial parameter of type 'int' -->
            <parameter type-id='95e97e5e' is-artificial='yes'/>
            <!-- void -->
            <return type-id='48b5725f'/>
          </function-decl>
        </member-function>
        <member-function access='public'>
          <!-- std::allocator<long long int>& std::_Vector_base<long long int, std::allocator<long long int> >::_M_get_Tp_allocator() -->
          <function-decl name='_M_get_Tp_allocator' mangled-name='_ZNSt12_Vector_baseIxSaIxEE19_M_get_Tp_allocatorEv' filepath='/usr/lib/gcc/x86_64-redhat-linux/4.4.7/../../../../include/c++/4.4.7/bits/stl_vector.h' line='93' column='1' visibility='default' binding='global' size-in-bits='64'>
            <!-- implicit parameter of type 'std::_Vector_base<long long int, std::allocator<long long int> >*' -->
            <parameter type-id='4095c424' is-artificial='yes'/>
            <!-- std::allocator<long long int>& -->
            <return type-id='d6acf13e'/>
          </function-decl>
        </member-function>
        <member-function access='public'>
          <!-- long long int* std::_Vector_base<long long int, std::allocator<long long int> >::_M_allocate(unsigned long int) -->
          <function-decl name='_M_allocate' mangled-name='_ZNSt12_Vector_baseIxSaIxEE11_M_allocateEm' filepath='/usr/lib/gcc/x86_64-redhat-linux/4.4.7/../../../../include/c++/4.4.7/bits/stl_vector.h' line='139' column='1' visibility='default' binding='global' size-in-bits='64'>
            <!-- implicit parameter of type 'std::_Vector_base<long long int, std::allocator<long long int> >*' -->
            <parameter type-id='4095c424' is-artificial='yes'/>
            <!-- parameter of type 'unsigned long int' -->
            <parameter type-id='7359adad'/>
            <!-- long long int* -->
            <return type-id='8b97c2dc'/>
          </function-decl>
        </member-function>
        <member-function access='public'>
          <!-- void std::_Vector_base<long long int, std::allocator<long long int> >::_M_deallocate(long long int*, unsigned long int) -->
          <function-decl name='_M_deallocate' mangled-name='_ZNSt12_Vector_baseIxSaIxEE13_M_deallocateEPxm' filepath='/usr/lib/gcc/x86_64-redhat-linux/4.4.7/../../../../include/c++/4.4.7/bits/stl_vector.h' line='143' column='1' visibility='default' binding='global' size-in-bits='64'>
            <!-- implicit parameter of type 'std::_Vector_base<long long int, std::allocator<long long int> >*' -->
            <parameter type-id='4095c424' is-artificial='yes'/>
            <!-- parameter of type 'long long int*' -->
            <parameter type-id='8b97c2dc'/>
            <!-- parameter of type 'unsigned long int' -->
            <parameter type-id='7359adad'/>
            <!-- void -->
            <return type-id='48b5725f'/>
          </function-decl>
        </member-function>
      </class-decl>
      <!-- struct std::_Vector_base<unsigned char, std::allocator<unsigned char> > -->
      <class-decl name='_Vector_base&lt;unsigned char, std::allocator&lt;unsigned char&gt; &gt;' size-in-bits='192' is-struct='yes' visibility='default' filepath='/usr/lib/gcc/x86_64-redhat-linux/4.4.7/../../../../include/c++/4.4.7/bits/stl_vector.h' line='70' column='1' id='6d9922f6'>
        <member-type access='public'>
          <!-- struct std::_Vector_base<unsigned char, std::allocator<unsigned char> >::_Vector_impl -->
          <class-decl name='_Vector_impl' size-in-bits='192' is-struct='yes' visibility='default' filepath='/usr/lib/gcc/x86_64-redhat-linux/4.4.7/../../../../include/c++/4.4.7/bits/stl_vector.h' line='75' column='1' id='d026921b'>
            <!-- class std::allocator<unsigned char> -->
            <base-class access='public' layout-offset-in-bits='0' type-id='97154bcc'/>
            <data-member access='public' layout-offset-in-bits='0'>
              <!-- unsigned char* std::_Vector_base<unsigned char, std::allocator<unsigned char> >::_Vector_impl::_M_start -->
              <var-decl name='_M_start' type-id='cf536864' visibility='default' filepath='/usr/lib/gcc/x86_64-redhat-linux/4.4.7/../../../../include/c++/4.4.7/bits/stl_vector.h' line='76' column='1'/>
            </data-member>
            <data-member access='public' layout-offset-in-bits='64'>
              <!-- unsigned char* std::_Vector_base<unsigned char, std::allocator<unsigned char> >::_Vector_impl::_M_finish -->
              <var-decl name='_M_finish' type-id='cf536864' visibility='default' filepath='/usr/lib/gcc/x86_64-redhat-linux/4.4.7/../../../../include/c++/4.4.7/bits/stl_vector.h' line='77' column='1'/>
            </data-member>
            <data-member access='public' layout-offset-in-bits='128'>
              <!-- unsigned char* std::_Vector_base<unsigned char, std::allocator<unsigned char> >::_Vector_impl::_M_end_of_storage -->
              <var-decl name='_M_end_of_storage' type-id='cf536864' visibility='default' filepath='/usr/lib/gcc/x86_64-redhat-linux/4.4.7/../../../../include/c++/4.4.7/bits/stl_vector.h' line='78' column='1'/>
            </data-member>
            <member-function access='public' constructor='yes'>
              <!-- std::_Vector_base<unsigned char, std::allocator<unsigned char> >::_Vector_impl::_Vector_impl() -->
              <function-decl name='_Vector_impl' filepath='/usr/lib/gcc/x86_64-redhat-linux/4.4.7/../../../../include/c++/4.4.7/bits/stl_vector.h' line='80' column='1' visibility='default' binding='global' size-in-bits='64'>
                <!-- implicit parameter of type 'std::_Vector_base<unsigned char, std::allocator<unsigned char> >::_Vector_impl*' -->
                <parameter type-id='37b67ebb' is-artificial='yes'/>
                <!-- void -->
                <return type-id='48b5725f'/>
              </function-decl>
            </member-function>
            <member-function access='public' constructor='yes'>
              <!-- std::_Vector_base<unsigned char, std::allocator<unsigned char> >::_Vector_impl::_Vector_impl(const std::allocator<unsigned char>&) -->
              <function-decl name='_Vector_impl' filepath='/usr/lib/gcc/x86_64-redhat-linux/4.4.7/../../../../include/c++/4.4.7/bits/stl_vector.h' line='84' column='1' visibility='default' binding='global' size-in-bits='64'>
                <!-- implicit parameter of type 'std::_Vector_base<unsigned char, std::allocator<unsigned char> >::_Vector_impl*' -->
                <parameter type-id='37b67ebb' is-artificial='yes'/>
                <!-- parameter of type 'const std::allocator<unsigned char>&' -->
                <parameter type-id='b9fd90cb'/>
                <!-- void -->
                <return type-id='48b5725f'/>
              </function-decl>
            </member-function>
          </class-decl>
        </member-type>
        <data-member access='public' layout-offset-in-bits='0'>
          <!-- std::_Vector_base<unsigned char, std::allocator<unsigned char> >::_Vector_impl std::_Vector_base<unsigned char, std::allocator<unsigned char> >::_M_impl -->
          <var-decl name='_M_impl' type-id='d026921b' visibility='default' filepath='/usr/lib/gcc/x86_64-redhat-linux/4.4.7/../../../../include/c++/4.4.7/bits/stl_vector.h' line='136' column='1'/>
        </data-member>
        <member-function access='public'>
          <!-- void std::_Vector_base<unsigned char, std::allocator<unsigned char> >::_Vector_base() -->
          <function-decl name='_Vector_base' filepath='/usr/lib/gcc/x86_64-redhat-linux/4.4.7/../../../../include/c++/4.4.7/bits/stl_vector.h' line='104' column='1' visibility='default' binding='global' size-in-bits='64'>
            <!-- implicit parameter of type 'std::_Vector_base<unsigned char, std::allocator<unsigned char> >*' -->
            <parameter type-id='72b2d84c' is-artificial='yes'/>
            <!-- void -->
            <return type-id='48b5725f'/>
          </function-decl>
        </member-function>
        <member-function access='public'>
          <!-- void std::_Vector_base<unsigned char, std::allocator<unsigned char> >::_Vector_base(const std::allocator<unsigned char>&) -->
          <function-decl name='_Vector_base' filepath='/usr/lib/gcc/x86_64-redhat-linux/4.4.7/../../../../include/c++/4.4.7/bits/stl_vector.h' line='107' column='1' visibility='default' binding='global' size-in-bits='64'>
            <!-- implicit parameter of type 'std::_Vector_base<unsigned char, std::allocator<unsigned char> >*' -->
            <parameter type-id='72b2d84c' is-artificial='yes'/>
            <!-- parameter of type 'const std::allocator<unsigned char>&' -->
            <parameter type-id='b9fd90cb'/>
            <!-- void -->
            <return type-id='48b5725f'/>
          </function-decl>
        </member-function>
        <member-function access='public'>
          <!-- void std::_Vector_base<unsigned char, std::allocator<unsigned char> >::_Vector_base(unsigned long int, const std::allocator<unsigned char>&) -->
          <function-decl name='_Vector_base' filepath='/usr/lib/gcc/x86_64-redhat-linux/4.4.7/../../../../include/c++/4.4.7/bits/stl_vector.h' line='110' column='1' visibility='default' binding='global' size-in-bits='64'>
            <!-- implicit parameter of type 'std::_Vector_base<unsigned char, std::allocator<unsigned char> >*' -->
            <parameter type-id='72b2d84c' is-artificial='yes'/>
            <!-- parameter of type 'unsigned long int' -->
            <parameter type-id='7359adad'/>
            <!-- parameter of type 'const std::allocator<unsigned char>&' -->
            <parameter type-id='b9fd90cb'/>
            <!-- void -->
            <return type-id='48b5725f'/>
          </function-decl>
        </member-function>
        <member-function access='public' destructor='yes'>
          <!-- std::_Vector_base<unsigned char, std::allocator<unsigned char> >::~_Vector_base(int) -->
          <function-decl name='~_Vector_base' filepath='/usr/lib/gcc/x86_64-redhat-linux/4.4.7/../../../../include/c++/4.4.7/bits/stl_vector.h' line='131' column='1' visibility='default' binding='global' size-in-bits='64'>
            <!-- implicit parameter of type 'std::_Vector_base<unsigned char, std::allocator<unsigned char> >*' -->
            <parameter type-id='72b2d84c' is-artificial='yes'/>
            <!-- artificial parameter of type 'int' -->
            <parameter type-id='95e97e5e' is-artificial='yes'/>
            <!-- void -->
            <return type-id='48b5725f'/>
          </function-decl>
        </member-function>
        <member-function access='public'>
          <!-- std::allocator<unsigned char>& std::_Vector_base<unsigned char, std::allocator<unsigned char> >::_M_get_Tp_allocator() -->
          <function-decl name='_M_get_Tp_allocator' mangled-name='_ZNSt12_Vector_baseIhSaIhEE19_M_get_Tp_allocatorEv' filepath='/usr/lib/gcc/x86_64-redhat-linux/4.4.7/../../../../include/c++/4.4.7/bits/stl_vector.h' line='93' column='1' visibility='default' binding='global' size-in-bits='64'>
            <!-- implicit parameter of type 'std::_Vector_base<unsigned char, std::allocator<unsigned char> >*' -->
            <parameter type-id='72b2d84c' is-artificial='yes'/>
            <!-- std::allocator<unsigned char>& -->
            <return type-id='a6807896'/>
          </function-decl>
        </member-function>
        <member-function access='public'>
          <!-- const std::allocator<unsigned char>& std::_Vector_base<unsigned char, std::allocator<unsigned char> >::_M_get_Tp_allocator() -->
          <function-decl name='_M_get_Tp_allocator' mangled-name='_ZNKSt12_Vector_baseIhSaIhEE19_M_get_Tp_allocatorEv' filepath='/usr/lib/gcc/x86_64-redhat-linux/4.4.7/../../../../include/c++/4.4.7/bits/stl_vector.h' line='97' column='1' visibility='default' binding='global' size-in-bits='64'>
            <!-- implicit parameter of type 'const std::_Vector_base<unsigned char, std::allocator<unsigned char> >*' -->
            <parameter type-id='312d3f6f' is-artificial='yes'/>
            <!-- const std::allocator<unsigned char>& -->
            <return type-id='b9fd90cb'/>
          </function-decl>
        </member-function>
        <member-function access='public'>
          <!-- unsigned char* std::_Vector_base<unsigned char, std::allocator<unsigned char> >::_M_allocate(unsigned long int) -->
          <function-decl name='_M_allocate' mangled-name='_ZNSt12_Vector_baseIhSaIhEE11_M_allocateEm' filepath='/usr/lib/gcc/x86_64-redhat-linux/4.4.7/../../../../include/c++/4.4.7/bits/stl_vector.h' line='139' column='1' visibility='default' binding='global' size-in-bits='64'>
            <!-- implicit parameter of type 'std::_Vector_base<unsigned char, std::allocator<unsigned char> >*' -->
            <parameter type-id='72b2d84c' is-artificial='yes'/>
            <!-- parameter of type 'unsigned long int' -->
            <parameter type-id='7359adad'/>
            <!-- unsigned char* -->
            <return type-id='cf536864'/>
          </function-decl>
        </member-function>
        <member-function access='public'>
          <!-- void std::_Vector_base<unsigned char, std::allocator<unsigned char> >::_M_deallocate(unsigned char*, unsigned long int) -->
          <function-decl name='_M_deallocate' mangled-name='_ZNSt12_Vector_baseIhSaIhEE13_M_deallocateEPhm' filepath='/usr/lib/gcc/x86_64-redhat-linux/4.4.7/../../../../include/c++/4.4.7/bits/stl_vector.h' line='143' column='1' visibility='default' binding='global' size-in-bits='64'>
            <!-- implicit parameter of type 'std::_Vector_base<unsigned char, std::allocator<unsigned char> >*' -->
            <parameter type-id='72b2d84c' is-artificial='yes'/>
            <!-- parameter of type 'unsigned char*' -->
            <parameter type-id='cf536864'/>
            <!-- parameter of type 'unsigned long int' -->
            <parameter type-id='7359adad'/>
            <!-- void -->
            <return type-id='48b5725f'/>
          </function-decl>
        </member-function>
      </class-decl>
      <!-- class std::vector<long long int, std::allocator<long long int> > -->
      <class-decl name='vector&lt;long long int, std::allocator&lt;long long int&gt; &gt;' size-in-bits='192' visibility='default' filepath='/usr/lib/gcc/x86_64-redhat-linux/4.4.7/../../../../include/c++/4.4.7/bits/stl_vector.h' line='171' column='1' id='b076a8c1'>
        <!-- struct std::_Vector_base<long long int, std::allocator<long long int> > -->
        <base-class access='protected' layout-offset-in-bits='0' type-id='9af3c6ae'/>
        <member-function access='private'>
          <!-- void std::vector<long long int, std::allocator<long long int> >::vector() -->
          <function-decl name='vector' filepath='/usr/lib/gcc/x86_64-redhat-linux/4.4.7/../../../../include/c++/4.4.7/bits/stl_vector.h' line='207' column='1' visibility='default' binding='global' size-in-bits='64'>
            <!-- implicit parameter of type 'std::vector<long long int, std::allocator<long long int> >*' -->
            <parameter type-id='c9f8e049' is-artificial='yes'/>
            <!-- void -->
            <return type-id='48b5725f'/>
          </function-decl>
        </member-function>
        <member-function access='private'>
          <!-- void std::vector<long long int, std::allocator<long long int> >::vector(const std::allocator<long long int>&) -->
          <function-decl name='vector' filepath='/usr/lib/gcc/x86_64-redhat-linux/4.4.7/../../../../include/c++/4.4.7/bits/stl_vector.h' line='215' column='1' visibility='default' binding='global' size-in-bits='64'>
            <!-- implicit parameter of type 'std::vector<long long int, std::allocator<long long int> >*' -->
            <parameter type-id='c9f8e049' is-artificial='yes'/>
            <!-- parameter of type 'const std::allocator<long long int>&' -->
            <parameter type-id='d6825ed7'/>
            <!-- void -->
            <return type-id='48b5725f'/>
          </function-decl>
        </member-function>
        <member-function access='private'>
          <!-- void std::vector<long long int, std::allocator<long long int> >::vector(unsigned long int, const long long int&, const std::allocator<long long int>&) -->
          <function-decl name='vector' filepath='/usr/lib/gcc/x86_64-redhat-linux/4.4.7/../../../../include/c++/4.4.7/bits/stl_vector.h' line='227' column='1' visibility='default' binding='global' size-in-bits='64'>
            <!-- implicit parameter of type 'std::vector<long long int, std::allocator<long long int> >*' -->
            <parameter type-id='c9f8e049' is-artificial='yes'/>
            <!-- parameter of type 'unsigned long int' -->
            <parameter type-id='7359adad'/>
            <!-- parameter of type 'const long long int&' -->
            <parameter type-id='e12052cd'/>
            <!-- parameter of type 'const std::allocator<long long int>&' -->
            <parameter type-id='d6825ed7'/>
            <!-- void -->
            <return type-id='48b5725f'/>
          </function-decl>
        </member-function>
        <member-function access='private'>
          <!-- void std::vector<long long int, std::allocator<long long int> >::vector(const std::vector<long long int, std::allocator<long long int> >&) -->
          <function-decl name='vector' filepath='/usr/lib/gcc/x86_64-redhat-linux/4.4.7/../../../../include/c++/4.4.7/bits/stl_vector.h' line='241' column='1' visibility='default' binding='global' size-in-bits='64'>
            <!-- implicit parameter of type 'std::vector<long long int, std::allocator<long long int> >*' -->
            <parameter type-id='c9f8e049' is-artificial='yes'/>
            <!-- parameter of type 'const std::vector<long long int, std::allocator<long long int> >&' -->
            <parameter type-id='e114ccf2'/>
            <!-- void -->
            <return type-id='48b5725f'/>
          </function-decl>
        </member-function>
        <member-function access='private' destructor='yes'>
          <!-- std::vector<long long int, std::allocator<long long int> >::~vector(int) -->
          <function-decl name='~vector' filepath='/usr/lib/gcc/x86_64-redhat-linux/4.4.7/../../../../include/c++/4.4.7/bits/stl_vector.h' line='312' column='1' visibility='default' binding='global' size-in-bits='64'>
            <!-- implicit parameter of type 'std::vector<long long int, std::allocator<long long int> >*' -->
            <parameter type-id='c9f8e049' is-artificial='yes'/>
            <!-- artificial parameter of type 'int' -->
            <parameter type-id='95e97e5e' is-artificial='yes'/>
            <!-- void -->
            <return type-id='48b5725f'/>
          </function-decl>
        </member-function>
        <member-function access='protected'>
          <!-- void std::vector<long long int, std::allocator<long long int> >::_M_fill_initialize(unsigned long int, const long long int&) -->
          <function-decl name='_M_fill_initialize' mangled-name='_ZNSt6vectorIxSaIxEE18_M_fill_initializeEmRKx' filepath='/usr/lib/gcc/x86_64-redhat-linux/4.4.7/../../../../include/c++/4.4.7/bits/stl_vector.h' line='1033' column='1' visibility='default' binding='global' size-in-bits='64'>
            <!-- implicit parameter of type 'std::vector<long long int, std::allocator<long long int> >*' -->
            <parameter type-id='c9f8e049' is-artificial='yes'/>
            <!-- parameter of type 'unsigned long int' -->
            <parameter type-id='7359adad'/>
            <!-- parameter of type 'const long long int&' -->
            <parameter type-id='e12052cd'/>
            <!-- void -->
            <return type-id='48b5725f'/>
          </function-decl>
        </member-function>
        <member-function access='private'>
          <!-- size_t std::vector<long long int, std::allocator<long long int> >::size() -->
          <function-decl name='size' mangled-name='_ZNKSt6vectorIxSaIxEE4sizeEv' filepath='/usr/lib/gcc/x86_64-redhat-linux/4.4.7/../../../../include/c++/4.4.7/bits/stl_vector.h' line='532' column='1' visibility='default' binding='global' size-in-bits='64'>
            <!-- implicit parameter of type 'const std::vector<long long int, std::allocator<long long int> >*' -->
            <parameter type-id='e514d33e' is-artificial='yes'/>
            <!-- typedef size_t -->
            <return type-id='b59d7dce'/>
          </function-decl>
        </member-function>
        <member-function access='protected'>
          <!-- void std::vector<long long int, std::allocator<long long int> >::_M_range_check(unsigned long int) -->
          <function-decl name='_M_range_check' mangled-name='_ZNKSt6vectorIxSaIxEE14_M_range_checkEm' filepath='/usr/lib/gcc/x86_64-redhat-linux/4.4.7/../../../../include/c++/4.4.7/bits/stl_vector.h' line='631' column='1' visibility='default' binding='global' size-in-bits='64'>
            <!-- implicit parameter of type 'const std::vector<long long int, std::allocator<long long int> >*' -->
            <parameter type-id='e514d33e' is-artificial='yes'/>
            <!-- parameter of type 'unsigned long int' -->
            <parameter type-id='7359adad'/>
            <!-- void -->
            <return type-id='48b5725f'/>
          </function-decl>
        </member-function>
        <member-function access='private'>
          <!-- long long int& std::vector<long long int, std::allocator<long long int> >::operator[](unsigned long int) -->
          <function-decl name='operator[]' mangled-name='_ZNSt6vectorIxSaIxEEixEm' filepath='/usr/lib/gcc/x86_64-redhat-linux/4.4.7/../../../../include/c++/4.4.7/bits/stl_vector.h' line='610' column='1' visibility='default' binding='global' size-in-bits='64'>
            <!-- implicit parameter of type 'std::vector<long long int, std::allocator<long long int> >*' -->
            <parameter type-id='c9f8e049' is-artificial='yes'/>
            <!-- parameter of type 'unsigned long int' -->
            <parameter type-id='7359adad'/>
            <!-- long long int& -->
            <return type-id='8f97c928'/>
          </function-decl>
        </member-function>
        <member-function access='private'>
          <!-- long long int& std::vector<long long int, std::allocator<long long int> >::at(unsigned long int) -->
          <function-decl name='at' mangled-name='_ZNSt6vectorIxSaIxEE2atEm' filepath='/usr/lib/gcc/x86_64-redhat-linux/4.4.7/../../../../include/c++/4.4.7/bits/stl_vector.h' line='650' column='1' visibility='default' binding='global' size-in-bits='64'>
            <!-- implicit parameter of type 'std::vector<long long int, std::allocator<long long int> >*' -->
            <parameter type-id='c9f8e049' is-artificial='yes'/>
            <!-- parameter of type 'unsigned long int' -->
            <parameter type-id='7359adad'/>
            <!-- long long int& -->
            <return type-id='8f97c928'/>
          </function-decl>
        </member-function>
      </class-decl>
      <!-- class std::vector<unsigned char, std::allocator<unsigned char> > -->
      <class-decl name='vector&lt;unsigned char, std::allocator&lt;unsigned char&gt; &gt;' size-in-bits='192' visibility='default' filepath='/usr/lib/gcc/x86_64-redhat-linux/4.4.7/../../../../include/c++/4.4.7/bits/stl_vector.h' line='171' column='1' id='31951281'>
        <!-- struct std::_Vector_base<unsigned char, std::allocator<unsigned char> > -->
        <base-class access='protected' layout-offset-in-bits='0' type-id='6d9922f6'/>
        <member-function access='private'>
          <!-- void std::vector<unsigned char, std::allocator<unsigned char> >::vector() -->
          <function-decl name='vector' filepath='/usr/lib/gcc/x86_64-redhat-linux/4.4.7/../../../../include/c++/4.4.7/bits/stl_vector.h' line='207' column='1' visibility='default' binding='global' size-in-bits='64'>
            <!-- implicit parameter of type 'std::vector<unsigned char, std::allocator<unsigned char> >*' -->
            <parameter type-id='6912a3c9' is-artificial='yes'/>
            <!-- void -->
            <return type-id='48b5725f'/>
          </function-decl>
        </member-function>
        <member-function access='private'>
          <!-- void std::vector<unsigned char, std::allocator<unsigned char> >::vector(const std::allocator<unsigned char>&) -->
          <function-decl name='vector' filepath='/usr/lib/gcc/x86_64-redhat-linux/4.4.7/../../../../include/c++/4.4.7/bits/stl_vector.h' line='215' column='1' visibility='default' binding='global' size-in-bits='64'>
            <!-- implicit parameter of type 'std::vector<unsigned char, std::allocator<unsigned char> >*' -->
            <parameter type-id='6912a3c9' is-artificial='yes'/>
            <!-- parameter of type 'const std::allocator<unsigned char>&' -->
            <parameter type-id='b9fd90cb'/>
            <!-- void -->
            <return type-id='48b5725f'/>
          </function-decl>
        </member-function>
        <member-function access='private'>
          <!-- void std::vector<unsigned char, std::allocator<unsigned char> >::vector(unsigned long int, const unsigned char&, const std::allocator<unsigned char>&) -->
          <function-decl name='vector' filepath='/usr/lib/gcc/x86_64-redhat-linux/4.4.7/../../../../include/c++/4.4.7/bits/stl_vector.h' line='227' column='1' visibility='default' binding='global' size-in-bits='64'>
            <!-- implicit parameter of type 'std::vector<unsigned char, std::allocator<unsigned char> >*' -->
            <parameter type-id='6912a3c9' is-artificial='yes'/>
            <!-- parameter of type 'unsigned long int' -->
            <parameter type-id='7359adad'/>
            <!-- parameter of type 'const unsigned char&' -->
            <parameter type-id='414f919d'/>
            <!-- parameter of type 'const std::allocator<unsigned char>&' -->
            <parameter type-id='b9fd90cb'/>
            <!-- void -->
            <return type-id='48b5725f'/>
          </function-decl>
        </member-function>
        <member-function access='private'>
          <!-- void std::vector<unsigned char, std::allocator<unsigned char> >::vector(const std::vector<unsigned char, std::allocator<unsigned char> >&) -->
          <function-decl name='vector' filepath='/usr/lib/gcc/x86_64-redhat-linux/4.4.7/../../../../include/c++/4.4.7/bits/stl_vector.h' line='241' column='1' visibility='default' binding='global' size-in-bits='64'>
            <!-- implicit parameter of type 'std::vector<unsigned char, std::allocator<unsigned char> >*' -->
            <parameter type-id='6912a3c9' is-artificial='yes'/>
            <!-- parameter of type 'const std::vector<unsigned char, std::allocator<unsigned char> >&' -->
            <parameter type-id='2acaabc2'/>
            <!-- void -->
            <return type-id='48b5725f'/>
          </function-decl>
        </member-function>
        <member-function access='private' destructor='yes'>
          <!-- std::vector<unsigned char, std::allocator<unsigned char> >::~vector(int) -->
          <function-decl name='~vector' filepath='/usr/lib/gcc/x86_64-redhat-linux/4.4.7/../../../../include/c++/4.4.7/bits/stl_vector.h' line='312' column='1' visibility='default' binding='global' size-in-bits='64'>
            <!-- implicit parameter of type 'std::vector<unsigned char, std::allocator<unsigned char> >*' -->
            <parameter type-id='6912a3c9' is-artificial='yes'/>
            <!-- artificial parameter of type 'int' -->
            <parameter type-id='95e97e5e' is-artificial='yes'/>
            <!-- void -->
            <return type-id='48b5725f'/>
          </function-decl>
        </member-function>
        <member-function access='private'>
          <!-- size_t std::vector<unsigned char, std::allocator<unsigned char> >::max_size() -->
          <function-decl name='max_size' mangled-name='_ZNKSt6vectorIhSaIhEE8max_sizeEv' filepath='/usr/lib/gcc/x86_64-redhat-linux/4.4.7/../../../../include/c++/4.4.7/bits/stl_vector.h' line='537' column='1' visibility='default' binding='global' size-in-bits='64'>
            <!-- implicit parameter of type 'const std::vector<unsigned char, std::allocator<unsigned char> >*' -->
            <parameter type-id='2ecab20e' is-artificial='yes'/>
            <!-- typedef size_t -->
            <return type-id='b59d7dce'/>
          </function-decl>
        </member-function>
        <member-function access='private'>
          <!-- size_t std::vector<unsigned char, std::allocator<unsigned char> >::size() -->
          <function-decl name='size' mangled-name='_ZNKSt6vectorIhSaIhEE4sizeEv' filepath='/usr/lib/gcc/x86_64-redhat-linux/4.4.7/../../../../include/c++/4.4.7/bits/stl_vector.h' line='532' column='1' visibility='default' binding='global' size-in-bits='64'>
            <!-- implicit parameter of type 'const std::vector<unsigned char, std::allocator<unsigned char> >*' -->
            <parameter type-id='2ecab20e' is-artificial='yes'/>
            <!-- typedef size_t -->
            <return type-id='b59d7dce'/>
          </function-decl>
        </member-function>
        <member-function access='private'>
          <!-- __gnu_cxx::__normal_iterator<unsigned char*, std::vector<unsigned char, std::allocator<unsigned char> > > std::vector<unsigned char, std::allocator<unsigned char> >::end() -->
          <function-decl name='end' mangled-name='_ZNSt6vectorIhSaIhEE3endEv' filepath='/usr/lib/gcc/x86_64-redhat-linux/4.4.7/../../../../include/c++/4.4.7/bits/stl_vector.h' line='443' column='1' visibility='default' binding='global' size-in-bits='64'>
            <!-- implicit parameter of type 'std::vector<unsigned char, std::allocator<unsigned char> >*' -->
            <parameter type-id='6912a3c9' is-artificial='yes'/>
            <!-- class __gnu_cxx::__normal_iterator<unsigned char*, std::vector<unsigned char, std::allocator<unsigned char> > > -->
            <return type-id='c6d16ee0'/>
          </function-decl>
        </member-function>
        <member-function access='protected'>
          <!-- size_t std::vector<unsigned char, std::allocator<unsigned char> >::_M_check_len(unsigned long int, const char*) -->
          <function-decl name='_M_check_len' mangled-name='_ZNKSt6vectorIhSaIhEE12_M_check_lenEmPKc' filepath='/usr/lib/gcc/x86_64-redhat-linux/4.4.7/../../../../include/c++/4.4.7/bits/stl_vector.h' line='1134' column='1' visibility='default' binding='global' size-in-bits='64'>
            <!-- implicit parameter of type 'const std::vector<unsigned char, std::allocator<unsigned char> >*' -->
            <parameter type-id='2ecab20e' is-artificial='yes'/>
            <!-- parameter of type 'unsigned long int' -->
            <parameter type-id='7359adad'/>
            <!-- parameter of type 'const char*' -->
            <parameter type-id='80f4b756'/>
            <!-- typedef size_t -->
            <return type-id='b59d7dce'/>
          </function-decl>
        </member-function>
        <member-function access='private'>
          <!-- __gnu_cxx::__normal_iterator<unsigned char*, std::vector<unsigned char, std::allocator<unsigned char> > > std::vector<unsigned char, std::allocator<unsigned char> >::begin() -->
          <function-decl name='begin' mangled-name='_ZNSt6vectorIhSaIhEE5beginEv' filepath='/usr/lib/gcc/x86_64-redhat-linux/4.4.7/../../../../include/c++/4.4.7/bits/stl_vector.h' line='425' column='1' visibility='default' binding='global' size-in-bits='64'>
            <!-- implicit parameter of type 'std::vector<unsigned char, std::allocator<unsigned char> >*' -->
            <parameter type-id='6912a3c9' is-artificial='yes'/>
            <!-- class __gnu_cxx::__normal_iterator<unsigned char*, std::vector<unsigned char, std::allocator<unsigned char> > > -->
            <return type-id='c6d16ee0'/>
          </function-decl>
        </member-function>
        <member-function access='protected'>
          <!-- void std::vector<unsigned char, std::allocator<unsigned char> >::_M_erase_at_end(unsigned char*) -->
          <function-decl name='_M_erase_at_end' mangled-name='_ZNSt6vectorIhSaIhEE15_M_erase_at_endEPh' filepath='/usr/lib/gcc/x86_64-redhat-linux/4.4.7/../../../../include/c++/4.4.7/bits/stl_vector.h' line='1148' column='1' visibility='default' binding='global' size-in-bits='64'>
            <!-- implicit parameter of type 'std::vector<unsigned char, std::allocator<unsigned char> >*' -->
            <parameter type-id='6912a3c9' is-artificial='yes'/>
            <!-- parameter of type 'unsigned char*' -->
            <parameter type-id='cf536864'/>
            <!-- void -->
            <return type-id='48b5725f'/>
          </function-decl>
        </member-function>
        <member-function access='private'>
          <!-- void std::vector<unsigned char, std::allocator<unsigned char> >::insert(__gnu_cxx::__normal_iterator<unsigned char*, std::vector<unsigned char, std::allocator<unsigned char> > >, unsigned long int, const unsigned char&) -->
          <function-decl name='insert' mangled-name='_ZNSt6vectorIhSaIhEE6insertEN9__gnu_cxx17__normal_iteratorIPhS1_EEmRKh' filepath='/usr/lib/gcc/x86_64-redhat-linux/4.4.7/../../../../include/c++/4.4.7/bits/stl_vector.h' line='850' column='1' visibility='default' binding='global' size-in-bits='64'>
            <!-- implicit parameter of type 'std::vector<unsigned char, std::allocator<unsigned char> >*' -->
            <parameter type-id='6912a3c9' is-artificial='yes'/>
            <!-- parameter of type 'class __gnu_cxx::__normal_iterator<unsigned char*, std::vector<unsigned char, std::allocator<unsigned char> > >' -->
            <parameter type-id='c6d16ee0'/>
            <!-- parameter of type 'unsigned long int' -->
            <parameter type-id='7359adad'/>
            <!-- parameter of type 'const unsigned char&' -->
            <parameter type-id='414f919d'/>
            <!-- void -->
            <return type-id='48b5725f'/>
          </function-decl>
        </member-function>
        <member-function access='private'>
          <!-- void std::vector<unsigned char, std::allocator<unsigned char> >::resize(unsigned long int, unsigned char) -->
          <function-decl name='resize' mangled-name='_ZNSt6vectorIhSaIhEE6resizeEmh' filepath='/usr/lib/gcc/x86_64-redhat-linux/4.4.7/../../../../include/c++/4.4.7/bits/stl_vector.h' line='552' column='1' visibility='default' binding='global' size-in-bits='64'>
            <!-- implicit parameter of type 'std::vector<unsigned char, std::allocator<unsigned char> >*' -->
            <parameter type-id='6912a3c9' is-artificial='yes'/>
            <!-- parameter of type 'unsigned long int' -->
            <parameter type-id='7359adad'/>
            <!-- parameter of type 'unsigned char' -->
            <parameter type-id='002ac4a6'/>
            <!-- void -->
            <return type-id='48b5725f'/>
          </function-decl>
        </member-function>
        <member-function access='private'>
          <!-- unsigned char& std::vector<unsigned char, std::allocator<unsigned char> >::operator[](unsigned long int) -->
          <function-decl name='operator[]' mangled-name='_ZNSt6vectorIhSaIhEEixEm' filepath='/usr/lib/gcc/x86_64-redhat-linux/4.4.7/../../../../include/c++/4.4.7/bits/stl_vector.h' line='610' column='1' visibility='default' binding='global' size-in-bits='64'>
            <!-- implicit parameter of type 'std::vector<unsigned char, std::allocator<unsigned char> >*' -->
            <parameter type-id='6912a3c9' is-artificial='yes'/>
            <!-- parameter of type 'unsigned long int' -->
            <parameter type-id='7359adad'/>
            <!-- unsigned char& -->
            <return type-id='c3535580'/>
          </function-decl>
        </member-function>
        <member-function access='protected'>
          <!-- void std::vector<unsigned char, std::allocator<unsigned char> >::_M_fill_insert(__gnu_cxx::__normal_iterator<unsigned char*, std::vector<unsigned char, std::allocator<unsigned char> > >, unsigned long int, const unsigned char&) -->
          <function-decl name='_M_fill_insert' mangled-name='_ZNSt6vectorIhSaIhEE14_M_fill_insertEN9__gnu_cxx17__normal_iteratorIPhS1_EEmRKh' filepath='/usr/lib/gcc/x86_64-redhat-linux/4.4.7/../../../../include/c++/4.4.7/bits/vector.tcc' line='372' column='1' visibility='default' binding='global' size-in-bits='64' elf-symbol-id='_ZNSt6vectorIhSaIhEE14_M_fill_insertEN9__gnu_cxx17__normal_iteratorIPhS1_EEmRKh'>
            <!-- implicit parameter of type 'std::vector<unsigned char, std::allocator<unsigned char> >*' -->
            <parameter type-id='6912a3c9' is-artificial='yes'/>
            <!-- parameter of type 'class __gnu_cxx::__normal_iterator<unsigned char*, std::vector<unsigned char, std::allocator<unsigned char> > >' -->
            <parameter type-id='c6d16ee0'/>
            <!-- parameter of type 'unsigned long int' -->
            <parameter type-id='7359adad'/>
            <!-- parameter of type 'const unsigned char&' -->
            <parameter type-id='414f919d'/>
            <!-- void -->
            <return type-id='48b5725f'/>
          </function-decl>
        </member-function>
        <member-function access='private'>
          <!-- __gnu_cxx::__normal_iterator<const unsigned char*, std::vector<unsigned char, std::allocator<unsigned char> > > std::vector<unsigned char, std::allocator<unsigned char> >::begin() -->
          <function-decl name='begin' mangled-name='_ZNKSt6vectorIhSaIhEE5beginEv' filepath='/usr/lib/gcc/x86_64-redhat-linux/4.4.7/../../../../include/c++/4.4.7/bits/stl_vector.h' line='434' column='1' visibility='default' binding='global' size-in-bits='64'>
            <!-- implicit parameter of type 'const std::vector<unsigned char, std::allocator<unsigned char> >*' -->
            <parameter type-id='2ecab20e' is-artificial='yes'/>
            <!-- class __gnu_cxx::__normal_iterator<const unsigned char*, std::vector<unsigned char, std::allocator<unsigned char> > > -->
            <return type-id='375a6f79'/>
          </function-decl>
        </member-function>
        <member-function access='private'>
          <!-- void std::vector<unsigned char, std::allocator<unsigned char> >::clear() -->
          <function-decl name='clear' mangled-name='_ZNSt6vectorIhSaIhEE5clearEv' filepath='/usr/lib/gcc/x86_64-redhat-linux/4.4.7/../../../../include/c++/4.4.7/bits/stl_vector.h' line='950' column='1' visibility='default' binding='global' size-in-bits='64'>
            <!-- implicit parameter of type 'std::vector<unsigned char, std::allocator<unsigned char> >*' -->
            <parameter type-id='6912a3c9' is-artificial='yes'/>
            <!-- void -->
            <return type-id='48b5725f'/>
          </function-decl>
        </member-function>
        <member-function access='private'>
          <!-- void std::vector<unsigned char, std::allocator<unsigned char> >::push_back(const unsigned char&) -->
          <function-decl name='push_back' mangled-name='_ZNSt6vectorIhSaIhEE9push_backERKh' filepath='/usr/lib/gcc/x86_64-redhat-linux/4.4.7/../../../../include/c++/4.4.7/bits/stl_vector.h' line='733' column='1' visibility='default' binding='global' size-in-bits='64'>
            <!-- implicit parameter of type 'std::vector<unsigned char, std::allocator<unsigned char> >*' -->
            <parameter type-id='6912a3c9' is-artificial='yes'/>
            <!-- parameter of type 'const unsigned char&' -->
            <parameter type-id='414f919d'/>
            <!-- void -->
            <return type-id='48b5725f'/>
          </function-decl>
        </member-function>
        <member-function access='private'>
          <!-- const unsigned char& std::vector<unsigned char, std::allocator<unsigned char> >::front() -->
          <function-decl name='front' mangled-name='_ZNKSt6vectorIhSaIhEE5frontEv' filepath='/usr/lib/gcc/x86_64-redhat-linux/4.4.7/../../../../include/c++/4.4.7/bits/stl_vector.h' line='687' column='1' visibility='default' binding='global' size-in-bits='64'>
            <!-- implicit parameter of type 'const std::vector<unsigned char, std::allocator<unsigned char> >*' -->
            <parameter type-id='2ecab20e' is-artificial='yes'/>
            <!-- const unsigned char& -->
            <return type-id='414f919d'/>
          </function-decl>
        </member-function>
        <member-function access='private'>
          <!-- __gnu_cxx::__normal_iterator<const unsigned char*, std::vector<unsigned char, std::allocator<unsigned char> > > std::vector<unsigned char, std::allocator<unsigned char> >::end() -->
          <function-decl name='end' mangled-name='_ZNKSt6vectorIhSaIhEE3endEv' filepath='/usr/lib/gcc/x86_64-redhat-linux/4.4.7/../../../../include/c++/4.4.7/bits/stl_vector.h' line='452' column='1' visibility='default' binding='global' size-in-bits='64'>
            <!-- implicit parameter of type 'const std::vector<unsigned char, std::allocator<unsigned char> >*' -->
            <parameter type-id='2ecab20e' is-artificial='yes'/>
            <!-- class __gnu_cxx::__normal_iterator<const unsigned char*, std::vector<unsigned char, std::allocator<unsigned char> > > -->
            <return type-id='375a6f79'/>
          </function-decl>
        </member-function>
        <member-function access='protected'>
          <!-- void std::vector<unsigned char, std::allocator<unsigned char> >::_M_insert_aux(__gnu_cxx::__normal_iterator<unsigned char*, std::vector<unsigned char, std::allocator<unsigned char> > >, const unsigned char&) -->
          <function-decl name='_M_insert_aux' mangled-name='_ZNSt6vectorIhSaIhEE13_M_insert_auxEN9__gnu_cxx17__normal_iteratorIPhS1_EERKh' filepath='/usr/lib/gcc/x86_64-redhat-linux/4.4.7/../../../../include/c++/4.4.7/bits/vector.tcc' line='295' column='1' visibility='default' binding='global' size-in-bits='64' elf-symbol-id='_ZNSt6vectorIhSaIhEE13_M_insert_auxEN9__gnu_cxx17__normal_iteratorIPhS1_EERKh'>
            <!-- implicit parameter of type 'std::vector<unsigned char, std::allocator<unsigned char> >*' -->
            <parameter type-id='6912a3c9' is-artificial='yes'/>
            <!-- parameter of type 'class __gnu_cxx::__normal_iterator<unsigned char*, std::vector<unsigned char, std::allocator<unsigned char> > >' -->
            <parameter type-id='c6d16ee0'/>
            <!-- parameter of type 'const unsigned char&' -->
            <parameter type-id='414f919d'/>
            <!-- void -->
            <return type-id='48b5725f'/>
          </function-decl>
        </member-function>
      </class-decl>
      <!-- struct std::allocator<char> -->
      <class-decl name='allocator&lt;char&gt;' size-in-bits='8' is-struct='yes' visibility='default' filepath='/usr/lib/gcc/x86_64-redhat-linux/4.4.7/../../../../include/c++/4.4.7/bits/stringfwd.h' line='45' column='1' id='eb166b35'>
        <!-- class __gnu_cxx::new_allocator<char> -->
        <base-class access='public' layout-offset-in-bits='0' type-id='ae3b5d4b'/>
        <member-function access='public'>
          <!-- void std::allocator<char>::allocator() -->
          <function-decl name='allocator' filepath='/usr/lib/gcc/x86_64-redhat-linux/4.4.7/../../../../include/c++/4.4.7/bits/allocator.h' line='101' column='1' visibility='default' binding='global' size-in-bits='64'>
            <!-- implicit parameter of type 'std::allocator<char>*' -->
            <parameter type-id='4acb8155' is-artificial='yes'/>
            <!-- void -->
            <return type-id='48b5725f'/>
          </function-decl>
        </member-function>
        <member-function access='public'>
          <!-- void std::allocator<char>::allocator(const std::allocator<char>&) -->
          <function-decl name='allocator' filepath='/usr/lib/gcc/x86_64-redhat-linux/4.4.7/../../../../include/c++/4.4.7/bits/allocator.h' line='103' column='1' visibility='default' binding='global' size-in-bits='64'>
            <!-- implicit parameter of type 'std::allocator<char>*' -->
            <parameter type-id='4acb8155' is-artificial='yes'/>
            <!-- parameter of type 'const std::allocator<char>&' -->
            <parameter type-id='d6d4f37a'/>
            <!-- void -->
            <return type-id='48b5725f'/>
          </function-decl>
        </member-function>
        <member-function access='public' destructor='yes'>
          <!-- std::allocator<char>::~allocator(int) -->
          <function-decl name='~allocator' filepath='/usr/lib/gcc/x86_64-redhat-linux/4.4.7/../../../../include/c++/4.4.7/bits/allocator.h' line='109' column='1' visibility='default' binding='global' size-in-bits='64'>
            <!-- implicit parameter of type 'std::allocator<char>*' -->
            <parameter type-id='4acb8155' is-artificial='yes'/>
            <!-- artificial parameter of type 'int' -->
            <parameter type-id='95e97e5e' is-artificial='yes'/>
            <!-- void -->
            <return type-id='48b5725f'/>
          </function-decl>
        </member-function>
      </class-decl>
      <!-- struct std::basic_string<char, std::char_traits<char>, std::allocator<char> > -->
      <class-decl name='basic_string&lt;char, std::char_traits&lt;char&gt;, std::allocator&lt;char&gt; &gt;' size-in-bits='64' is-struct='yes' visibility='default' filepath='/usr/lib/gcc/x86_64-redhat-linux/4.4.7/../../../../include/c++/4.4.7/bits/stringfwd.h' line='52' column='1' id='c2931f67'>
        <member-type access='private'>
          <!-- struct std::basic_string<char, std::char_traits<char>, std::allocator<char> >::_Rep_base -->
          <class-decl name='_Rep_base' size-in-bits='192' is-struct='yes' visibility='default' filepath='/usr/lib/gcc/x86_64-redhat-linux/4.4.7/../../../../include/c++/4.4.7/bits/basic_string.h' line='141' column='1' id='6c007811'>
            <data-member access='public' layout-offset-in-bits='0'>
              <!-- size_t std::basic_string<char, std::char_traits<char>, std::allocator<char> >::_Rep_base::_M_length -->
              <var-decl name='_M_length' type-id='b59d7dce' visibility='default' filepath='/usr/lib/gcc/x86_64-redhat-linux/4.4.7/../../../../include/c++/4.4.7/bits/basic_string.h' line='142' column='1'/>
            </data-member>
            <data-member access='public' layout-offset-in-bits='64'>
              <!-- size_t std::basic_string<char, std::char_traits<char>, std::allocator<char> >::_Rep_base::_M_capacity -->
              <var-decl name='_M_capacity' type-id='b59d7dce' visibility='default' filepath='/usr/lib/gcc/x86_64-redhat-linux/4.4.7/../../../../include/c++/4.4.7/bits/basic_string.h' line='143' column='1'/>
            </data-member>
            <data-member access='public' layout-offset-in-bits='128'>
              <!-- _Atomic_word std::basic_string<char, std::char_traits<char>, std::allocator<char> >::_Rep_base::_M_refcount -->
              <var-decl name='_M_refcount' type-id='e9464a99' visibility='default' filepath='/usr/lib/gcc/x86_64-redhat-linux/4.4.7/../../../../include/c++/4.4.7/bits/basic_string.h' line='144' column='1'/>
            </data-member>
          </class-decl>
        </member-type>
        <member-type access='private'>
          <!-- struct std::basic_string<char, std::char_traits<char>, std::allocator<char> >::_Rep -->
          <class-decl name='_Rep' size-in-bits='192' is-struct='yes' visibility='default' filepath='/usr/lib/gcc/x86_64-redhat-linux/4.4.7/../../../../include/c++/4.4.7/bits/basic_string.h' line='148' column='1' id='34601093'>
            <!-- struct std::basic_string<char, std::char_traits<char>, std::allocator<char> >::_Rep_base -->
            <base-class access='public' layout-offset-in-bits='0' type-id='6c007811'/>
            <data-member access='public' static='yes'>
              <!-- static const size_t std::basic_string<char, std::char_traits<char>, std::allocator<char> >::_Rep::_S_max_size -->
              <var-decl name='_S_max_size' type-id='d0fa5dde' visibility='default' filepath='/usr/lib/gcc/x86_64-redhat-linux/4.4.7/../../../../include/c++/4.4.7/bits/basic_string.tcc' line='51' column='1'/>
            </data-member>
            <data-member access='public' static='yes'>
              <!-- static const char std::basic_string<char, std::char_traits<char>, std::allocator<char> >::_Rep::_S_terminal -->
              <var-decl name='_S_terminal' type-id='9b45d938' visibility='default' filepath='/usr/lib/gcc/x86_64-redhat-linux/4.4.7/../../../../include/c++/4.4.7/bits/basic_string.tcc' line='56' column='1'/>
            </data-member>
            <data-member access='public' static='yes'>
              <!-- static size_t std::basic_string<char, std::char_traits<char>, std::allocator<char> >::_Rep::_S_empty_rep_storage[4] -->
              <var-decl name='_S_empty_rep_storage' type-id='314f9837' visibility='default' filepath='/usr/lib/gcc/x86_64-redhat-linux/4.4.7/../../../../include/c++/4.4.7/bits/basic_string.tcc' line='68' column='1'/>
            </data-member>
            <member-function access='public' static='yes'>
              <!-- std::basic_string<char, std::char_traits<char>, std::allocator<char> >::_Rep& std::basic_string<char, std::char_traits<char>, std::allocator<char> >::_Rep::_S_empty_rep() -->
              <function-decl name='_S_empty_rep' mangled-name='_ZNSs4_Rep12_S_empty_repEv' filepath='/usr/lib/gcc/x86_64-redhat-linux/4.4.7/../../../../include/c++/4.4.7/bits/basic_string.h' line='173' column='1' visibility='default' binding='global' size-in-bits='64'>
                <!-- std::basic_string<char, std::char_traits<char>, std::allocator<char> >::_Rep& -->
                <return type-id='6f1c93e7'/>
              </function-decl>
            </member-function>
            <member-function access='public'>
              <!-- void std::basic_string<char, std::char_traits<char>, std::allocator<char> >::_Rep::_M_set_sharable() -->
              <function-decl name='_M_set_sharable' mangled-name='_ZNSs4_Rep15_M_set_sharableEv' filepath='/usr/lib/gcc/x86_64-redhat-linux/4.4.7/../../../../include/c++/4.4.7/bits/basic_string.h' line='195' column='1' visibility='default' binding='global' size-in-bits='64'>
                <!-- implicit parameter of type 'std::basic_string<char, std::char_traits<char>, std::allocator<char> >::_Rep*' -->
                <parameter type-id='631c8103' is-artificial='yes'/>
                <!-- void -->
                <return type-id='48b5725f'/>
              </function-decl>
            </member-function>
            <member-function access='public'>
              <!-- char* std::basic_string<char, std::char_traits<char>, std::allocator<char> >::_Rep::_M_refdata() -->
              <function-decl name='_M_refdata' mangled-name='_ZNSs4_Rep10_M_refdataEv' filepath='/usr/lib/gcc/x86_64-redhat-linux/4.4.7/../../../../include/c++/4.4.7/bits/basic_string.h' line='214' column='1' visibility='default' binding='global' size-in-bits='64'>
                <!-- implicit parameter of type 'std::basic_string<char, std::char_traits<char>, std::allocator<char> >::_Rep*' -->
                <parameter type-id='631c8103' is-artificial='yes'/>
                <!-- char* -->
                <return type-id='26a90f95'/>
              </function-decl>
            </member-function>
            <member-function access='public'>
              <!-- bool std::basic_string<char, std::char_traits<char>, std::allocator<char> >::_Rep::_M_is_shared() -->
              <function-decl name='_M_is_shared' mangled-name='_ZNKSs4_Rep12_M_is_sharedEv' filepath='/usr/lib/gcc/x86_64-redhat-linux/4.4.7/../../../../include/c++/4.4.7/bits/basic_string.h' line='187' column='1' visibility='default' binding='global' size-in-bits='64'>
                <!-- implicit parameter of type 'const std::basic_string<char, std::char_traits<char>, std::allocator<char> >::_Rep*' -->
                <parameter type-id='7fdfe2ec' is-artificial='yes'/>
                <!-- bool -->
                <return type-id='c894953d'/>
              </function-decl>
            </member-function>
            <member-function access='public'>
              <!-- void std::basic_string<char, std::char_traits<char>, std::allocator<char> >::_Rep::_M_set_length_and_sharable(unsigned long int) -->
              <function-decl name='_M_set_length_and_sharable' mangled-name='_ZNSs4_Rep26_M_set_length_and_sharableEm' filepath='/usr/lib/gcc/x86_64-redhat-linux/4.4.7/../../../../include/c++/4.4.7/bits/basic_string.h' line='199' column='1' visibility='default' binding='global' size-in-bits='64'>
                <!-- implicit parameter of type 'std::basic_string<char, std::char_traits<char>, std::allocator<char> >::_Rep*' -->
                <parameter type-id='631c8103' is-artificial='yes'/>
                <!-- parameter of type 'unsigned long int' -->
                <parameter type-id='7359adad'/>
                <!-- void -->
                <return type-id='48b5725f'/>
              </function-decl>
            </member-function>
            <member-function access='public'>
              <!-- void std::basic_string<char, std::char_traits<char>, std::allocator<char> >::_Rep::_M_dispose(const std::allocator<char>&) -->
              <function-decl name='_M_dispose' mangled-name='_ZNSs4_Rep10_M_disposeERKSaIcE' filepath='/usr/lib/gcc/x86_64-redhat-linux/4.4.7/../../../../include/c++/4.4.7/bits/basic_string.h' line='229' column='1' visibility='default' binding='global' size-in-bits='64'>
                <!-- implicit parameter of type 'std::basic_string<char, std::char_traits<char>, std::allocator<char> >::_Rep*' -->
                <parameter type-id='631c8103' is-artificial='yes'/>
                <!-- parameter of type 'const std::allocator<char>&' -->
                <parameter type-id='d6d4f37a'/>
                <!-- void -->
                <return type-id='48b5725f'/>
              </function-decl>
            </member-function>
          </class-decl>
        </member-type>
        <member-type access='private'>
          <!-- struct std::basic_string<char, std::char_traits<char>, std::allocator<char> >::_Alloc_hider -->
          <class-decl name='_Alloc_hider' size-in-bits='64' is-struct='yes' visibility='default' filepath='/usr/lib/gcc/x86_64-redhat-linux/4.4.7/../../../../include/c++/4.4.7/bits/basic_string.h' line='258' column='1' id='bab0e33c'>
            <!-- struct std::allocator<char> -->
            <base-class access='public' layout-offset-in-bits='0' type-id='eb166b35'/>
            <data-member access='public' layout-offset-in-bits='0'>
              <!-- char* std::basic_string<char, std::char_traits<char>, std::allocator<char> >::_Alloc_hider::_M_p -->
              <var-decl name='_M_p' type-id='26a90f95' visibility='default' filepath='/usr/lib/gcc/x86_64-redhat-linux/4.4.7/../../../../include/c++/4.4.7/bits/basic_string.h' line='262' column='1'/>
            </data-member>
            <member-function access='public' constructor='yes'>
              <!-- std::basic_string<char, std::char_traits<char>, std::allocator<char> >::_Alloc_hider::_Alloc_hider(char*, const std::allocator<char>&) -->
              <function-decl name='_Alloc_hider' filepath='/usr/lib/gcc/x86_64-redhat-linux/4.4.7/../../../../include/c++/4.4.7/bits/basic_string.h' line='259' column='1' visibility='default' binding='global' size-in-bits='64'>
                <!-- implicit parameter of type 'std::basic_string<char, std::char_traits<char>, std::allocator<char> >::_Alloc_hider*' -->
                <parameter type-id='daf943aa' is-artificial='yes'/>
                <!-- parameter of type 'char*' -->
                <parameter type-id='26a90f95'/>
                <!-- parameter of type 'const std::allocator<char>&' -->
                <parameter type-id='d6d4f37a'/>
                <!-- void -->
                <return type-id='48b5725f'/>
              </function-decl>
            </member-function>
          </class-decl>
        </member-type>
        <data-member access='public' static='yes'>
          <!-- static const size_t std::basic_string<char, std::char_traits<char>, std::allocator<char> >::npos -->
          <var-decl name='npos' type-id='d0fa5dde' visibility='default' filepath='/usr/lib/gcc/x86_64-redhat-linux/4.4.7/../../../../include/c++/4.4.7/bits/basic_string.h' line='270' column='1'/>
        </data-member>
        <data-member access='private' layout-offset-in-bits='0'>
          <!-- std::basic_string<char, std::char_traits<char>, std::allocator<char> >::_Alloc_hider std::basic_string<char, std::char_traits<char>, std::allocator<char> >::_M_dataplus -->
          <var-decl name='_M_dataplus' type-id='bab0e33c' visibility='default' filepath='/usr/lib/gcc/x86_64-redhat-linux/4.4.7/../../../../include/c++/4.4.7/bits/basic_string.h' line='274' column='1'/>
        </data-member>
        <member-function access='public'>
          <!-- void std::basic_string<char, std::char_traits<char>, std::allocator<char> >::basic_string() -->
          <function-decl name='basic_string' filepath='/usr/lib/gcc/x86_64-redhat-linux/4.4.7/../../../../include/c++/4.4.7/bits/basic_string.h' line='2144' column='1' visibility='default' binding='global' size-in-bits='64'>
            <!-- implicit parameter of type 'std::basic_string<char, std::char_traits<char>, std::allocator<char> >*' -->
            <parameter type-id='16934a6f' is-artificial='yes'/>
            <!-- void -->
            <return type-id='48b5725f'/>
          </function-decl>
        </member-function>
        <member-function access='public'>
          <!-- void std::basic_string<char, std::char_traits<char>, std::allocator<char> >::basic_string(const std::allocator<char>&) -->
          <function-decl name='basic_string' filepath='/usr/lib/gcc/x86_64-redhat-linux/4.4.7/../../../../include/c++/4.4.7/bits/basic_string.tcc' line='178' column='1' visibility='default' binding='global' size-in-bits='64'>
            <!-- implicit parameter of type 'std::basic_string<char, std::char_traits<char>, std::allocator<char> >*' -->
            <parameter type-id='16934a6f' is-artificial='yes'/>
            <!-- parameter of type 'const std::allocator<char>&' -->
            <parameter type-id='d6d4f37a'/>
            <!-- void -->
            <return type-id='48b5725f'/>
          </function-decl>
        </member-function>
        <member-function access='public'>
          <!-- void std::basic_string<char, std::char_traits<char>, std::allocator<char> >::basic_string(const std::basic_string<char, std::char_traits<char>, std::allocator<char> >&) -->
          <function-decl name='basic_string' filepath='/usr/lib/gcc/x86_64-redhat-linux/4.4.7/../../../../include/c++/4.4.7/bits/basic_string.tcc' line='170' column='1' visibility='default' binding='global' size-in-bits='64'>
            <!-- implicit parameter of type 'std::basic_string<char, std::char_traits<char>, std::allocator<char> >*' -->
            <parameter type-id='16934a6f' is-artificial='yes'/>
            <!-- parameter of type 'const std::basic_string<char, std::char_traits<char>, std::allocator<char> >&' -->
            <parameter type-id='0d8dd23c'/>
            <!-- void -->
            <return type-id='48b5725f'/>
          </function-decl>
        </member-function>
        <member-function access='public'>
          <!-- void std::basic_string<char, std::char_traits<char>, std::allocator<char> >::basic_string(const std::basic_string<char, std::char_traits<char>, std::allocator<char> >&, unsigned long int, unsigned long int) -->
          <function-decl name='basic_string' filepath='/usr/lib/gcc/x86_64-redhat-linux/4.4.7/../../../../include/c++/4.4.7/bits/basic_string.tcc' line='184' column='1' visibility='default' binding='global' size-in-bits='64'>
            <!-- implicit parameter of type 'std::basic_string<char, std::char_traits<char>, std::allocator<char> >*' -->
            <parameter type-id='16934a6f' is-artificial='yes'/>
            <!-- parameter of type 'const std::basic_string<char, std::char_traits<char>, std::allocator<char> >&' -->
            <parameter type-id='0d8dd23c'/>
            <!-- parameter of type 'unsigned long int' -->
            <parameter type-id='7359adad'/>
            <!-- parameter of type 'unsigned long int' -->
            <parameter type-id='7359adad'/>
            <!-- void -->
            <return type-id='48b5725f'/>
          </function-decl>
        </member-function>
        <member-function access='public'>
          <!-- void std::basic_string<char, std::char_traits<char>, std::allocator<char> >::basic_string(const std::basic_string<char, std::char_traits<char>, std::allocator<char> >&, unsigned long int, unsigned long int, const std::allocator<char>&) -->
          <function-decl name='basic_string' filepath='/usr/lib/gcc/x86_64-redhat-linux/4.4.7/../../../../include/c++/4.4.7/bits/basic_string.tcc' line='194' column='1' visibility='default' binding='global' size-in-bits='64'>
            <!-- implicit parameter of type 'std::basic_string<char, std::char_traits<char>, std::allocator<char> >*' -->
            <parameter type-id='16934a6f' is-artificial='yes'/>
            <!-- parameter of type 'const std::basic_string<char, std::char_traits<char>, std::allocator<char> >&' -->
            <parameter type-id='0d8dd23c'/>
            <!-- parameter of type 'unsigned long int' -->
            <parameter type-id='7359adad'/>
            <!-- parameter of type 'unsigned long int' -->
            <parameter type-id='7359adad'/>
            <!-- parameter of type 'const std::allocator<char>&' -->
            <parameter type-id='d6d4f37a'/>
            <!-- void -->
            <return type-id='48b5725f'/>
          </function-decl>
        </member-function>
        <member-function access='public'>
          <!-- void std::basic_string<char, std::char_traits<char>, std::allocator<char> >::basic_string(const char*, unsigned long int, const std::allocator<char>&) -->
          <function-decl name='basic_string' filepath='/usr/lib/gcc/x86_64-redhat-linux/4.4.7/../../../../include/c++/4.4.7/bits/basic_string.tcc' line='206' column='1' visibility='default' binding='global' size-in-bits='64'>
            <!-- implicit parameter of type 'std::basic_string<char, std::char_traits<char>, std::allocator<char> >*' -->
            <parameter type-id='16934a6f' is-artificial='yes'/>
            <!-- parameter of type 'const char*' -->
            <parameter type-id='80f4b756'/>
            <!-- parameter of type 'unsigned long int' -->
            <parameter type-id='7359adad'/>
            <!-- parameter of type 'const std::allocator<char>&' -->
            <parameter type-id='d6d4f37a'/>
            <!-- void -->
            <return type-id='48b5725f'/>
          </function-decl>
        </member-function>
        <member-function access='public'>
          <!-- void std::basic_string<char, std::char_traits<char>, std::allocator<char> >::basic_string(const char*, const std::allocator<char>&) -->
          <function-decl name='basic_string' filepath='/usr/lib/gcc/x86_64-redhat-linux/4.4.7/../../../../include/c++/4.4.7/bits/basic_string.tcc' line='213' column='1' visibility='default' binding='global' size-in-bits='64'>
            <!-- implicit parameter of type 'std::basic_string<char, std::char_traits<char>, std::allocator<char> >*' -->
            <parameter type-id='16934a6f' is-artificial='yes'/>
            <!-- parameter of type 'const char*' -->
            <parameter type-id='80f4b756'/>
            <!-- parameter of type 'const std::allocator<char>&' -->
            <parameter type-id='d6d4f37a'/>
            <!-- void -->
            <return type-id='48b5725f'/>
          </function-decl>
        </member-function>
        <member-function access='public'>
          <!-- void std::basic_string<char, std::char_traits<char>, std::allocator<char> >::basic_string(unsigned long int, char, const std::allocator<char>&) -->
          <function-decl name='basic_string' filepath='/usr/lib/gcc/x86_64-redhat-linux/4.4.7/../../../../include/c++/4.4.7/bits/basic_string.tcc' line='220' column='1' visibility='default' binding='global' size-in-bits='64'>
            <!-- implicit parameter of type 'std::basic_string<char, std::char_traits<char>, std::allocator<char> >*' -->
            <parameter type-id='16934a6f' is-artificial='yes'/>
            <!-- parameter of type 'unsigned long int' -->
            <parameter type-id='7359adad'/>
            <!-- parameter of type 'char' -->
            <parameter type-id='a84c031d'/>
            <!-- parameter of type 'const std::allocator<char>&' -->
            <parameter type-id='d6d4f37a'/>
            <!-- void -->
            <return type-id='48b5725f'/>
          </function-decl>
        </member-function>
        <member-function access='public' destructor='yes'>
          <!-- std::basic_string<char, std::char_traits<char>, std::allocator<char> >::~basic_string(int) -->
          <function-decl name='~basic_string' filepath='/usr/lib/gcc/x86_64-redhat-linux/4.4.7/../../../../include/c++/4.4.7/bits/basic_string.h' line='502' column='1' visibility='default' binding='global' size-in-bits='64'>
            <!-- implicit parameter of type 'std::basic_string<char, std::char_traits<char>, std::allocator<char> >*' -->
            <parameter type-id='16934a6f' is-artificial='yes'/>
            <!-- artificial parameter of type 'int' -->
            <parameter type-id='95e97e5e' is-artificial='yes'/>
            <!-- void -->
            <return type-id='48b5725f'/>
          </function-decl>
        </member-function>
        <member-function access='private'>
          <!-- char* std::basic_string<char, std::char_traits<char>, std::allocator<char> >::_M_data() -->
          <function-decl name='_M_data' mangled-name='_ZNKSs7_M_dataEv' filepath='/usr/lib/gcc/x86_64-redhat-linux/4.4.7/../../../../include/c++/4.4.7/bits/basic_string.h' line='277' column='1' visibility='default' binding='global' size-in-bits='64'>
            <!-- implicit parameter of type 'const std::basic_string<char, std::char_traits<char>, std::allocator<char> >*' -->
            <parameter type-id='118dd888' is-artificial='yes'/>
            <!-- char* -->
            <return type-id='26a90f95'/>
          </function-decl>
        </member-function>
        <member-function access='private'>
          <!-- std::basic_string<char, std::char_traits<char>, std::allocator<char> >::_Rep* std::basic_string<char, std::char_traits<char>, std::allocator<char> >::_M_rep() -->
          <function-decl name='_M_rep' mangled-name='_ZNKSs6_M_repEv' filepath='/usr/lib/gcc/x86_64-redhat-linux/4.4.7/../../../../include/c++/4.4.7/bits/basic_string.h' line='285' column='1' visibility='default' binding='global' size-in-bits='64'>
            <!-- implicit parameter of type 'const std::basic_string<char, std::char_traits<char>, std::allocator<char> >*' -->
            <parameter type-id='118dd888' is-artificial='yes'/>
            <!-- std::basic_string<char, std::char_traits<char>, std::allocator<char> >::_Rep* -->
            <return type-id='631c8103'/>
          </function-decl>
        </member-function>
        <member-function access='public'>
          <!-- size_t std::basic_string<char, std::char_traits<char>, std::allocator<char> >::size() -->
          <function-decl name='size' mangled-name='_ZNKSs4sizeEv' filepath='/usr/lib/gcc/x86_64-redhat-linux/4.4.7/../../../../include/c++/4.4.7/bits/basic_string.h' line='628' column='1' visibility='default' binding='global' size-in-bits='64'>
            <!-- implicit parameter of type 'const std::basic_string<char, std::char_traits<char>, std::allocator<char> >*' -->
            <parameter type-id='118dd888' is-artificial='yes'/>
            <!-- typedef size_t -->
            <return type-id='b59d7dce'/>
          </function-decl>
        </member-function>
        <member-function access='public'>
          <!-- const char& std::basic_string<char, std::char_traits<char>, std::allocator<char> >::operator[](unsigned long int) -->
          <function-decl name='operator[]' mangled-name='_ZNKSsixEm' filepath='/usr/lib/gcc/x86_64-redhat-linux/4.4.7/../../../../include/c++/4.4.7/bits/basic_string.h' line='723' column='1' visibility='default' binding='global' size-in-bits='64'>
            <!-- implicit parameter of type 'const std::basic_string<char, std::char_traits<char>, std::allocator<char> >*' -->
            <parameter type-id='118dd888' is-artificial='yes'/>
            <!-- parameter of type 'unsigned long int' -->
            <parameter type-id='7359adad'/>
            <!-- const char& -->
            <return type-id='8cf4ca3a'/>
          </function-decl>
        </member-function>
        <member-function access='public'>
          <!-- size_t std::basic_string<char, std::char_traits<char>, std::allocator<char> >::capacity() -->
          <function-decl name='capacity' mangled-name='_ZNKSs8capacityEv' filepath='/usr/lib/gcc/x86_64-redhat-linux/4.4.7/../../../../include/c++/4.4.7/bits/basic_string.h' line='674' column='1' visibility='default' binding='global' size-in-bits='64'>
            <!-- implicit parameter of type 'const std::basic_string<char, std::char_traits<char>, std::allocator<char> >*' -->
            <parameter type-id='118dd888' is-artificial='yes'/>
            <!-- typedef size_t -->
            <return type-id='b59d7dce'/>
          </function-decl>
        </member-function>
        <member-function access='public'>
          <!-- std::basic_string<char, std::char_traits<char>, std::allocator<char> >& std::basic_string<char, std::char_traits<char>, std::allocator<char> >::operator=(const char*) -->
          <function-decl name='operator=' mangled-name='_ZNSsaSEPKc' filepath='/usr/lib/gcc/x86_64-redhat-linux/4.4.7/../../../../include/c++/4.4.7/bits/basic_string.h' line='518' column='1' visibility='default' binding='global' size-in-bits='64'>
            <!-- implicit parameter of type 'std::basic_string<char, std::char_traits<char>, std::allocator<char> >*' -->
            <parameter type-id='16934a6f' is-artificial='yes'/>
            <!-- parameter of type 'const char*' -->
            <parameter type-id='80f4b756'/>
            <!-- std::basic_string<char, std::char_traits<char>, std::allocator<char> >& -->
            <return type-id='1a9350bb'/>
          </function-decl>
        </member-function>
        <member-function access='public'>
          <!-- std::basic_string<char, std::char_traits<char>, std::allocator<char> >& std::basic_string<char, std::char_traits<char>, std::allocator<char> >::operator+=(char) -->
          <function-decl name='operator+=' mangled-name='_ZNSspLEc' filepath='/usr/lib/gcc/x86_64-redhat-linux/4.4.7/../../../../include/c++/4.4.7/bits/basic_string.h' line='813' column='1' visibility='default' binding='global' size-in-bits='64'>
            <!-- implicit parameter of type 'std::basic_string<char, std::char_traits<char>, std::allocator<char> >*' -->
            <parameter type-id='16934a6f' is-artificial='yes'/>
            <!-- parameter of type 'char' -->
            <parameter type-id='a84c031d'/>
            <!-- std::basic_string<char, std::char_traits<char>, std::allocator<char> >& -->
            <return type-id='1a9350bb'/>
          </function-decl>
        </member-function>
        <member-function access='public'>
          <!-- std::basic_string<char, std::char_traits<char>, std::allocator<char> >& std::basic_string<char, std::char_traits<char>, std::allocator<char> >::assign(const char*) -->
          <function-decl name='assign' mangled-name='_ZNSs6assignEPKc' filepath='/usr/lib/gcc/x86_64-redhat-linux/4.4.7/../../../../include/c++/4.4.7/bits/basic_string.h' line='972' column='1' visibility='default' binding='global' size-in-bits='64'>
            <!-- implicit parameter of type 'std::basic_string<char, std::char_traits<char>, std::allocator<char> >*' -->
            <parameter type-id='16934a6f' is-artificial='yes'/>
            <!-- parameter of type 'const char*' -->
            <parameter type-id='80f4b756'/>
            <!-- std::basic_string<char, std::char_traits<char>, std::allocator<char> >& -->
            <return type-id='1a9350bb'/>
          </function-decl>
        </member-function>
        <member-function access='public'>
          <!-- void std::basic_string<char, std::char_traits<char>, std::allocator<char> >::push_back(char) -->
          <function-decl name='push_back' mangled-name='_ZNSs9push_backEc' filepath='/usr/lib/gcc/x86_64-redhat-linux/4.4.7/../../../../include/c++/4.4.7/bits/basic_string.h' line='914' column='1' visibility='default' binding='global' size-in-bits='64'>
            <!-- implicit parameter of type 'std::basic_string<char, std::char_traits<char>, std::allocator<char> >*' -->
            <parameter type-id='16934a6f' is-artificial='yes'/>
            <!-- parameter of type 'char' -->
            <parameter type-id='a84c031d'/>
            <!-- void -->
            <return type-id='48b5725f'/>
          </function-decl>
        </member-function>
        <member-function access='public'>
          <!-- const char* std::basic_string<char, std::char_traits<char>, std::allocator<char> >::c_str() -->
          <function-decl name='c_str' mangled-name='_ZNKSs5c_strEv' filepath='/usr/lib/gcc/x86_64-redhat-linux/4.4.7/../../../../include/c++/4.4.7/bits/basic_string.h' line='1612' column='1' visibility='default' binding='global' size-in-bits='64'>
            <!-- implicit parameter of type 'const std::basic_string<char, std::char_traits<char>, std::allocator<char> >*' -->
            <parameter type-id='118dd888' is-artificial='yes'/>
            <!-- const char* -->
            <return type-id='80f4b756'/>
          </function-decl>
        </member-function>
        <member-function access='private' static='yes'>
          <!-- std::basic_string<char, std::char_traits<char>, std::allocator<char> >::_Rep& std::basic_string<char, std::char_traits<char>, std::allocator<char> >::_S_empty_rep() -->
          <function-decl name='_S_empty_rep' mangled-name='_ZNSs12_S_empty_repEv' filepath='/usr/lib/gcc/x86_64-redhat-linux/4.4.7/../../../../include/c++/4.4.7/bits/basic_string.h' line='411' column='1' visibility='default' binding='global' size-in-bits='64'>
            <!-- std::basic_string<char, std::char_traits<char>, std::allocator<char> >::_Rep& -->
            <return type-id='6f1c93e7'/>
          </function-decl>
        </member-function>
        <member-function access='public'>
          <!-- std::basic_string<char, std::char_traits<char>, std::allocator<char> >& std::basic_string<char, std::char_traits<char>, std::allocator<char> >::operator=(const std::basic_string<char, std::char_traits<char>, std::allocator<char> >&) -->
          <function-decl name='operator=' mangled-name='_ZNSsaSERKSs' filepath='/usr/lib/gcc/x86_64-redhat-linux/4.4.7/../../../../include/c++/4.4.7/bits/basic_string.h' line='510' column='1' visibility='default' binding='global' size-in-bits='64'>
            <!-- implicit parameter of type 'std::basic_string<char, std::char_traits<char>, std::allocator<char> >*' -->
            <parameter type-id='16934a6f' is-artificial='yes'/>
            <!-- parameter of type 'const std::basic_string<char, std::char_traits<char>, std::allocator<char> >&' -->
            <parameter type-id='0d8dd23c'/>
            <!-- std::basic_string<char, std::char_traits<char>, std::allocator<char> >& -->
            <return type-id='1a9350bb'/>
          </function-decl>
        </member-function>
        <member-function access='public'>
          <!-- std::allocator<char> std::basic_string<char, std::char_traits<char>, std::allocator<char> >::get_allocator() -->
          <function-decl name='get_allocator' mangled-name='_ZNKSs13get_allocatorEv' filepath='/usr/lib/gcc/x86_64-redhat-linux/4.4.7/../../../../include/c++/4.4.7/bits/basic_string.h' line='1629' column='1' visibility='default' binding='global' size-in-bits='64'>
            <!-- implicit parameter of type 'const std::basic_string<char, std::char_traits<char>, std::allocator<char> >*' -->
            <parameter type-id='118dd888' is-artificial='yes'/>
            <!-- struct std::allocator<char> -->
            <return type-id='eb166b35'/>
          </function-decl>
        </member-function>
      </class-decl>
      <!-- typedef std::basic_string<char, std::char_traits<char>, std::allocator<char> > std::string -->
      <typedef-decl name='string' type-id='c2931f67' filepath='/usr/lib/gcc/x86_64-redhat-linux/4.4.7/../../../../include/c++/4.4.7/bits/stringfwd.h' line='56' column='1' id='4a30a7f0'/>
      <!-- struct std::_Resetiosflags -->
      <class-decl name='_Resetiosflags' size-in-bits='32' is-struct='yes' visibility='default' filepath='/usr/lib/gcc/x86_64-redhat-linux/4.4.7/../../../../include/c++/4.4.7/iomanip' line='49' column='1' id='5e852372'>
        <member-type access='public'>
          <!-- typedef std::_Ios_Fmtflags std::_Resetiosflags::fmtflags -->
          <typedef-decl name='fmtflags' type-id='deb7653e' filepath='/usr/lib/gcc/x86_64-redhat-linux/4.4.7/../../../../include/c++/4.4.7/bits/ios_base.h' line='263' column='1' id='08d452fb'/>
        </member-type>
        <data-member access='public' layout-offset-in-bits='0'>
          <!-- std::_Resetiosflags::fmtflags std::_Resetiosflags::_M_mask -->
          <var-decl name='_M_mask' type-id='08d452fb' visibility='default' filepath='/usr/lib/gcc/x86_64-redhat-linux/4.4.7/../../../../include/c++/4.4.7/iomanip' line='49' column='1'/>
        </data-member>
      </class-decl>
      <!-- struct std::_Setprecision -->
      <class-decl name='_Setprecision' size-in-bits='32' is-struct='yes' visibility='default' filepath='/usr/lib/gcc/x86_64-redhat-linux/4.4.7/../../../../include/c++/4.4.7/iomanip' line='194' column='1' id='947bb203'>
        <data-member access='public' layout-offset-in-bits='0'>
          <!-- int std::_Setprecision::_M_n -->
          <var-decl name='_M_n' type-id='95e97e5e' visibility='default' filepath='/usr/lib/gcc/x86_64-redhat-linux/4.4.7/../../../../include/c++/4.4.7/iomanip' line='194' column='1'/>
        </data-member>
      </class-decl>
      <!-- struct std::_Setw -->
      <class-decl name='_Setw' size-in-bits='32' is-struct='yes' visibility='default' filepath='/usr/lib/gcc/x86_64-redhat-linux/4.4.7/../../../../include/c++/4.4.7/iomanip' line='228' column='1' id='982cf8d2'>
        <data-member access='public' layout-offset-in-bits='0'>
          <!-- int std::_Setw::_M_n -->
          <var-decl name='_M_n' type-id='95e97e5e' visibility='default' filepath='/usr/lib/gcc/x86_64-redhat-linux/4.4.7/../../../../include/c++/4.4.7/iomanip' line='228' column='1'/>
        </data-member>
      </class-decl>
      <!-- typedef std::basic_ostream<char, std::char_traits<char> > std::ostream -->
      <typedef-decl name='ostream' type-id='774b367d' filepath='/usr/lib/gcc/x86_64-redhat-linux/4.4.7/../../../../include/c++/4.4.7/iosfwd' line='130' column='1' id='a8e08226'/>
      <!-- class std::__basic_file<char> -->
      <class-decl name='__basic_file&lt;char&gt;' size-in-bits='128' visibility='default' filepath='/usr/lib/gcc/x86_64-redhat-linux/4.4.7/../../../../include/c++/4.4.7/x86_64-redhat-linux/bits/basic_file.h' line='53' column='1' id='03cd47eb'>
        <member-type access='private'>
          <!-- typedef std::_Ios_Openmode std::__basic_file<char>::openmode -->
          <typedef-decl name='openmode' type-id='be001bcf' filepath='/usr/lib/gcc/x86_64-redhat-linux/4.4.7/../../../../include/c++/4.4.7/bits/ios_base.h' line='369' column='1' id='b545deb7'/>
        </member-type>
        <member-type access='private'>
          <!-- typedef std::_Ios_Seekdir std::__basic_file<char>::seekdir -->
          <typedef-decl name='seekdir' type-id='3c72183b' filepath='/usr/lib/gcc/x86_64-redhat-linux/4.4.7/../../../../include/c++/4.4.7/bits/ios_base.h' line='401' column='1' id='df669193'/>
        </member-type>
        <data-member access='private' layout-offset-in-bits='0'>
          <!-- std::__c_file* std::__basic_file<char>::_M_cfile -->
          <var-decl name='_M_cfile' type-id='c2cec1de' visibility='default' filepath='/usr/lib/gcc/x86_64-redhat-linux/4.4.7/../../../../include/c++/4.4.7/x86_64-redhat-linux/bits/basic_file.h' line='55' column='1'/>
        </data-member>
        <data-member access='private' layout-offset-in-bits='64'>
          <!-- bool std::__basic_file<char>::_M_cfile_created -->
          <var-decl name='_M_cfile_created' type-id='c894953d' visibility='default' filepath='/usr/lib/gcc/x86_64-redhat-linux/4.4.7/../../../../include/c++/4.4.7/x86_64-redhat-linux/bits/basic_file.h' line='58' column='1'/>
        </data-member>
        <member-function access='private'>
          <!-- void std::__basic_file<char>::__basic_file(std::__c_lock*) -->
          <function-decl name='__basic_file' filepath='/usr/lib/gcc/x86_64-redhat-linux/4.4.7/../../../../include/c++/4.4.7/x86_64-redhat-linux/bits/basic_file.h' line='61' column='1' visibility='default' binding='global' size-in-bits='64'>
            <!-- implicit parameter of type 'std::__basic_file<char>*' -->
            <parameter type-id='7bd659ab' is-artificial='yes'/>
            <!-- parameter of type 'std::__c_lock*' -->
            <parameter type-id='c0f1dfa1'/>
            <!-- void -->
            <return type-id='48b5725f'/>
          </function-decl>
        </member-function>
        <member-function access='private' destructor='yes'>
          <!-- std::__basic_file<char>::~__basic_file(int) -->
          <function-decl name='~__basic_file' filepath='/usr/lib/gcc/x86_64-redhat-linux/4.4.7/../../../../include/c++/4.4.7/x86_64-redhat-linux/bits/basic_file.h' line='84' column='1' visibility='default' binding='global' size-in-bits='64'>
            <!-- implicit parameter of type 'std::__basic_file<char>*' -->
            <parameter type-id='7bd659ab' is-artificial='yes'/>
            <!-- artificial parameter of type 'int' -->
            <parameter type-id='95e97e5e' is-artificial='yes'/>
            <!-- void -->
            <return type-id='48b5725f'/>
          </function-decl>
        </member-function>
      </class-decl>
      <!-- typedef __gthread_mutex_t std::__c_lock -->
      <typedef-decl name='__c_lock' type-id='d3b6e0d0' filepath='/usr/lib/gcc/x86_64-redhat-linux/4.4.7/../../../../include/c++/4.4.7/x86_64-redhat-linux/bits/c++io.h' line='42' column='1' id='024271f2'/>
      <!-- typedef FILE std::__c_file -->
      <typedef-decl name='__c_file' type-id='aa12d1ba' filepath='/usr/lib/gcc/x86_64-redhat-linux/4.4.7/../../../../include/c++/4.4.7/x86_64-redhat-linux/bits/c++io.h' line='45' column='1' id='82984273'/>
      <!-- struct std::basic_ios<char, std::char_traits<char> > -->
      <class-decl name='basic_ios&lt;char, std::char_traits&lt;char&gt; &gt;' is-struct='yes' visibility='default' is-declaration-only='yes' id='f13e525d'>
        <member-type access='public'>
          <!-- typedef std::_Ios_Iostate std::basic_ios<char, std::char_traits<char> >::iostate -->
          <typedef-decl name='iostate' type-id='3eae72a5' filepath='/usr/lib/gcc/x86_64-redhat-linux/4.4.7/../../../../include/c++/4.4.7/bits/ios_base.h' line='338' column='1' id='2dca02ab'/>
        </member-type>
        <member-function access='public'>
          <!-- std::basic_ios<char, std::char_traits<char> >::iostate std::basic_ios<char, std::char_traits<char> >::rdstate() -->
          <function-decl name='rdstate' mangled-name='_ZNKSt9basic_iosIcSt11char_traitsIcEE7rdstateEv' filepath='/usr/lib/gcc/x86_64-redhat-linux/4.4.7/../../../../include/c++/4.4.7/bits/basic_ios.h' line='127' column='1' visibility='default' binding='global' size-in-bits='64'>
            <!-- implicit parameter of type 'const std::basic_ios<char, std::char_traits<char> >*' -->
            <parameter type-id='a0273db8' is-artificial='yes'/>
            <!-- typedef std::basic_ios<char, std::char_traits<char> >::iostate -->
            <return type-id='2dca02ab'/>
          </function-decl>
        </member-function>
        <member-function access='public'>
          <!-- char std::basic_ios<char, std::char_traits<char> >::widen(char) -->
          <function-decl name='widen' mangled-name='_ZNKSt9basic_iosIcSt11char_traitsIcEE5widenEc' filepath='/usr/lib/gcc/x86_64-redhat-linux/4.4.7/../../../../include/c++/4.4.7/bits/basic_ios.h' line='439' column='1' visibility='default' binding='global' size-in-bits='64'>
            <!-- implicit parameter of type 'const std::basic_ios<char, std::char_traits<char> >*' -->
            <parameter type-id='a0273db8' is-artificial='yes'/>
            <!-- parameter of type 'char' -->
            <parameter type-id='a84c031d'/>
            <!-- char -->
            <return type-id='a84c031d'/>
          </function-decl>
        </member-function>
        <member-function access='public'>
          <!-- void std::basic_ios<char, std::char_traits<char> >::setstate(std::_Ios_Iostate) -->
          <function-decl name='setstate' mangled-name='_ZNSt9basic_iosIcSt11char_traitsIcEE8setstateESt12_Ios_Iostate' filepath='/usr/lib/gcc/x86_64-redhat-linux/4.4.7/../../../../include/c++/4.4.7/bits/basic_ios.h' line='147' column='1' visibility='default' binding='global' size-in-bits='64'>
            <!-- implicit parameter of type 'std::basic_ios<char, std::char_traits<char> >*' -->
            <parameter type-id='45fd5b9d' is-artificial='yes'/>
            <!-- parameter of type 'enum std::_Ios_Iostate' -->
            <parameter type-id='3eae72a5'/>
            <!-- void -->
            <return type-id='48b5725f'/>
          </function-decl>
        </member-function>
        <member-function access='protected'>
          <!-- void std::basic_ios<char, std::char_traits<char> >::basic_ios() -->
          <function-decl name='basic_ios' filepath='/usr/lib/gcc/x86_64-redhat-linux/4.4.7/../../../../include/c++/4.4.7/bits/basic_ios.h' line='450' column='1' visibility='default' binding='global' size-in-bits='64'>
            <!-- implicit parameter of type 'std::basic_ios<char, std::char_traits<char> >*' -->
            <parameter type-id='45fd5b9d' is-artificial='yes'/>
            <!-- void -->
            <return type-id='48b5725f'/>
          </function-decl>
        </member-function>
        <member-function access='public'>
          <!-- bool std::basic_ios<char, std::char_traits<char> >::fail() -->
          <function-decl name='fail' mangled-name='_ZNKSt9basic_iosIcSt11char_traitsIcEE4failEv' filepath='/usr/lib/gcc/x86_64-redhat-linux/4.4.7/../../../../include/c++/4.4.7/bits/basic_ios.h' line='191' column='1' visibility='default' binding='global' size-in-bits='64'>
            <!-- implicit parameter of type 'const std::basic_ios<char, std::char_traits<char> >*' -->
            <parameter type-id='a0273db8' is-artificial='yes'/>
            <!-- bool -->
            <return type-id='c894953d'/>
          </function-decl>
        </member-function>
        <member-function access='public'>
          <!-- bool std::basic_ios<char, std::char_traits<char> >::operator!() -->
          <function-decl name='operator!' mangled-name='_ZNKSt9basic_iosIcSt11char_traitsIcEEntEv' filepath='/usr/lib/gcc/x86_64-redhat-linux/4.4.7/../../../../include/c++/4.4.7/bits/basic_ios.h' line='115' column='1' visibility='default' binding='global' size-in-bits='64'>
            <!-- implicit parameter of type 'const std::basic_ios<char, std::char_traits<char> >*' -->
            <parameter type-id='a0273db8' is-artificial='yes'/>
            <!-- bool -->
            <return type-id='c894953d'/>
          </function-decl>
        </member-function>
      </class-decl>
      <!-- struct std::basic_ostream<char, std::char_traits<char> > -->
      <class-decl name='basic_ostream&lt;char, std::char_traits&lt;char&gt; &gt;' is-struct='yes' visibility='default' is-declaration-only='yes' id='774b367d'>
        <member-function access='public'>
          <!-- std::basic_ostream<char, std::char_traits<char> >& std::basic_ostream<char, std::char_traits<char> >::operator<<(std::basic_ostream<char, std::char_traits<char> >& (std::basic_ostream<char, std::char_traits<char> >&)*) -->
          <function-decl name='operator&lt;&lt;' mangled-name='_ZNSolsEPFRSoS_E' filepath='/usr/lib/gcc/x86_64-redhat-linux/4.4.7/../../../../include/c++/4.4.7/ostream' line='108' column='1' visibility='default' binding='global' size-in-bits='64'>
            <!-- implicit parameter of type 'std::basic_ostream<char, std::char_traits<char> >*' -->
            <parameter type-id='65cde55d' is-artificial='yes'/>
            <!-- parameter of type 'std::basic_ostream<char, std::char_traits<char> >& (std::basic_ostream<char, std::char_traits<char> >&)*' -->
            <parameter type-id='b3ef42b2'/>
            <!-- std::basic_ostream<char, std::char_traits<char> >& -->
            <return type-id='59cdd279'/>
          </function-decl>
        </member-function>
        <member-function access='public'>
          <!-- std::basic_ostream<char, std::char_traits<char> >& std::basic_ostream<char, std::char_traits<char> >::operator<<(long long int) -->
          <function-decl name='operator&lt;&lt;' mangled-name='_ZNSolsEx' filepath='/usr/lib/gcc/x86_64-redhat-linux/4.4.7/../../../../include/c++/4.4.7/ostream' line='200' column='1' visibility='default' binding='global' size-in-bits='64'>
            <!-- implicit parameter of type 'std::basic_ostream<char, std::char_traits<char> >*' -->
            <parameter type-id='65cde55d' is-artificial='yes'/>
            <!-- parameter of type 'long long int' -->
            <parameter type-id='1eb56b1e'/>
            <!-- std::basic_ostream<char, std::char_traits<char> >& -->
            <return type-id='59cdd279'/>
          </function-decl>
        </member-function>
        <member-function access='public'>
          <!-- std::basic_ostream<char, std::char_traits<char> >& std::basic_ostream<char, std::char_traits<char> >::operator<<(void*) -->
          <function-decl name='operator&lt;&lt;' mangled-name='_ZNSolsEPKv' filepath='/usr/lib/gcc/x86_64-redhat-linux/4.4.7/../../../../include/c++/4.4.7/ostream' line='225' column='1' visibility='default' binding='global' size-in-bits='64'>
            <!-- implicit parameter of type 'std::basic_ostream<char, std::char_traits<char> >*' -->
            <parameter type-id='65cde55d' is-artificial='yes'/>
            <!-- parameter of type 'void*' -->
            <parameter type-id='eaa32e2f'/>
            <!-- std::basic_ostream<char, std::char_traits<char> >& -->
            <return type-id='59cdd279'/>
          </function-decl>
        </member-function>
        <member-function access='protected'>
          <!-- void std::basic_ostream<char, std::char_traits<char> >::basic_ostream(int, void**) -->
          <function-decl name='basic_ostream' filepath='/usr/lib/gcc/x86_64-redhat-linux/4.4.7/../../../../include/c++/4.4.7/ostream' line='361' column='1' visibility='default' binding='global' size-in-bits='64'>
            <!-- implicit parameter of type 'std::basic_ostream<char, std::char_traits<char> >*' -->
            <parameter type-id='65cde55d' is-artificial='yes'/>
            <!-- artificial parameter of type 'int' -->
            <parameter type-id='95e97e5e' is-artificial='yes'/>
            <!-- artificial parameter of type 'void**' -->
            <parameter type-id='63e171df' is-artificial='yes'/>
            <!-- void -->
            <return type-id='48b5725f'/>
          </function-decl>
        </member-function>
        <member-function access='public'>
          <!-- std::basic_ostream<char, std::char_traits<char> >& std::basic_ostream<char, std::char_traits<char> >::operator<<(unsigned short int) -->
          <function-decl name='operator&lt;&lt;' mangled-name='_ZNSolsEt' filepath='/usr/lib/gcc/x86_64-redhat-linux/4.4.7/../../../../include/c++/4.4.7/ostream' line='180' column='1' visibility='default' binding='global' size-in-bits='64'>
            <!-- implicit parameter of type 'std::basic_ostream<char, std::char_traits<char> >*' -->
            <parameter type-id='65cde55d' is-artificial='yes'/>
            <!-- parameter of type 'unsigned short int' -->
            <parameter type-id='8efea9e5'/>
            <!-- std::basic_ostream<char, std::char_traits<char> >& -->
            <return type-id='59cdd279'/>
          </function-decl>
        </member-function>
        <member-function access='public'>
          <!-- std::basic_ostream<char, std::char_traits<char> >& std::basic_ostream<char, std::char_traits<char> >::operator<<(unsigned int) -->
          <function-decl name='operator&lt;&lt;' mangled-name='_ZNSolsEj' filepath='/usr/lib/gcc/x86_64-redhat-linux/4.4.7/../../../../include/c++/4.4.7/ostream' line='191' column='1' visibility='default' binding='global' size-in-bits='64'>
            <!-- implicit parameter of type 'std::basic_ostream<char, std::char_traits<char> >*' -->
            <parameter type-id='65cde55d' is-artificial='yes'/>
            <!-- parameter of type 'unsigned int' -->
            <parameter type-id='f0981eeb'/>
            <!-- std::basic_ostream<char, std::char_traits<char> >& -->
            <return type-id='59cdd279'/>
          </function-decl>
        </member-function>
        <member-function access='public'>
          <!-- std::basic_ostream<char, std::char_traits<char> >& std::basic_ostream<char, std::char_traits<char> >::operator<<(long long unsigned int) -->
          <function-decl name='operator&lt;&lt;' mangled-name='_ZNSolsEy' filepath='/usr/lib/gcc/x86_64-redhat-linux/4.4.7/../../../../include/c++/4.4.7/ostream' line='204' column='1' visibility='default' binding='global' size-in-bits='64'>
            <!-- implicit parameter of type 'std::basic_ostream<char, std::char_traits<char> >*' -->
            <parameter type-id='65cde55d' is-artificial='yes'/>
            <!-- parameter of type 'long long unsigned int' -->
            <parameter type-id='3a47d82b'/>
            <!-- std::basic_ostream<char, std::char_traits<char> >& -->
            <return type-id='59cdd279'/>
          </function-decl>
        </member-function>
        <member-function access='public'>
          <!-- std::basic_ostream<char, std::char_traits<char> >& std::basic_ostream<char, std::char_traits<char> >::operator<<(float) -->
          <function-decl name='operator&lt;&lt;' mangled-name='_ZNSolsEf' filepath='/usr/lib/gcc/x86_64-redhat-linux/4.4.7/../../../../include/c++/4.4.7/ostream' line='213' column='1' visibility='default' binding='global' size-in-bits='64'>
            <!-- implicit parameter of type 'std::basic_ostream<char, std::char_traits<char> >*' -->
            <parameter type-id='65cde55d' is-artificial='yes'/>
            <!-- parameter of type 'float' -->
            <parameter type-id='a6c45d85'/>
            <!-- std::basic_ostream<char, std::char_traits<char> >& -->
            <return type-id='59cdd279'/>
          </function-decl>
        </member-function>
        <member-function access='public'>
          <!-- std::basic_ostream<char, std::char_traits<char> >& std::basic_ostream<char, std::char_traits<char> >::operator<<(double) -->
          <function-decl name='operator&lt;&lt;' mangled-name='_ZNSolsEd' filepath='/usr/lib/gcc/x86_64-redhat-linux/4.4.7/../../../../include/c++/4.4.7/ostream' line='209' column='1' visibility='default' binding='global' size-in-bits='64'>
            <!-- implicit parameter of type 'std::basic_ostream<char, std::char_traits<char> >*' -->
            <parameter type-id='65cde55d' is-artificial='yes'/>
            <!-- parameter of type 'double' -->
            <parameter type-id='a0eb0f08'/>
            <!-- std::basic_ostream<char, std::char_traits<char> >& -->
            <return type-id='59cdd279'/>
          </function-decl>
        </member-function>
        <member-function access='public' destructor='yes' vtable-offset='-1'>
          <!-- std::basic_ostream<char, std::char_traits<char> >::~basic_ostream(int, void**) -->
          <function-decl name='~basic_ostream' filepath='/usr/lib/gcc/x86_64-redhat-linux/4.4.7/../../../../include/c++/4.4.7/ostream' line='91' column='1' visibility='default' binding='global' size-in-bits='64'>
            <!-- implicit parameter of type 'std::basic_ostream<char, std::char_traits<char> >*' -->
            <parameter type-id='65cde55d' is-artificial='yes'/>
            <!-- artificial parameter of type 'int' -->
            <parameter type-id='95e97e5e' is-artificial='yes'/>
            <!-- artificial parameter of type 'void**' -->
            <parameter type-id='63e171df' is-artificial='yes'/>
            <!-- void -->
            <return type-id='48b5725f'/>
          </function-decl>
        </member-function>
      </class-decl>
      <!-- class std::ctype<char> -->
      <class-decl name='ctype&lt;char&gt;' visibility='default' is-declaration-only='yes' id='164a43cd'>
        <member-type access='private'>
          <!-- typedef char std::ctype<char>::char_type -->
          <typedef-decl name='char_type' type-id='a84c031d' filepath='/usr/lib/gcc/x86_64-redhat-linux/4.4.7/../../../../include/c++/4.4.7/bits/locale_facets.h' line='679' column='1' id='663d8c55'/>
        </member-type>
        <member-function access='private'>
          <!-- std::ctype<char>::char_type std::ctype<char>::widen(char) -->
          <function-decl name='widen' mangled-name='_ZNKSt5ctypeIcE5widenEc' filepath='/usr/lib/gcc/x86_64-redhat-linux/4.4.7/../../../../include/c++/4.4.7/bits/locale_facets.h' line='865' column='1' visibility='default' binding='global' size-in-bits='64'>
            <!-- implicit parameter of type 'const std::ctype<char>*' -->
            <parameter type-id='728149d6' is-artificial='yes'/>
            <!-- parameter of type 'char' -->
            <parameter type-id='a84c031d'/>
            <!-- typedef std::ctype<char>::char_type -->
            <return type-id='663d8c55'/>
          </function-decl>
        </member-function>
      </class-decl>
      <!-- class std::ios_base -->
      <class-decl name='ios_base' visibility='default' is-declaration-only='yes' id='1a0bf4cd'>
        <member-type access='private'>
          <!-- class std::ios_base::Init -->
          <class-decl name='Init' size-in-bits='8' visibility='default' filepath='/usr/lib/gcc/x86_64-redhat-linux/4.4.7/../../../../include/c++/4.4.7/bits/ios_base.h' line='538' column='1' id='e225edbb'>
            <data-member access='private' static='yes'>
              <!-- static _Atomic_word std::ios_base::Init::_S_refcount -->
              <var-decl name='_S_refcount' type-id='e9464a99' visibility='default' filepath='/usr/lib/gcc/x86_64-redhat-linux/4.4.7/../../../../include/c++/4.4.7/bits/ios_base.h' line='545' column='1'/>
            </data-member>
            <data-member access='private' static='yes'>
              <!-- static bool std::ios_base::Init::_S_synced_with_stdio -->
              <var-decl name='_S_synced_with_stdio' type-id='c894953d' visibility='default' filepath='/usr/lib/gcc/x86_64-redhat-linux/4.4.7/../../../../include/c++/4.4.7/bits/ios_base.h' line='546' column='1'/>
            </data-member>
            <member-function access='private' constructor='yes'>
              <!-- std::ios_base::Init::Init() -->
              <function-decl name='Init' filepath='/usr/lib/gcc/x86_64-redhat-linux/4.4.7/../../../../include/c++/4.4.7/bits/ios_base.h' line='541' column='1' visibility='default' binding='global' size-in-bits='64'>
                <!-- implicit parameter of type 'std::ios_base::Init*' -->
                <parameter type-id='9565452b' is-artificial='yes'/>
                <!-- void -->
                <return type-id='48b5725f'/>
              </function-decl>
            </member-function>
            <member-function access='private' destructor='yes'>
              <!-- std::ios_base::Init::~Init(int) -->
              <function-decl name='~Init' filepath='/usr/lib/gcc/x86_64-redhat-linux/4.4.7/../../../../include/c++/4.4.7/bits/ios_base.h' line='542' column='1' visibility='default' binding='global' size-in-bits='64'>
                <!-- implicit parameter of type 'std::ios_base::Init*' -->
                <parameter type-id='9565452b' is-artificial='yes'/>
                <!-- artificial parameter of type 'int' -->
                <parameter type-id='95e97e5e' is-artificial='yes'/>
                <!-- void -->
                <return type-id='48b5725f'/>
              </function-decl>
            </member-function>
          </class-decl>
        </member-type>
        <data-member access='private' static='yes'>
          <!-- static const std::_Resetiosflags::fmtflags std::ios_base::boolalpha -->
          <var-decl name='boolalpha' type-id='571489ab' visibility='default' filepath='/usr/lib/gcc/x86_64-redhat-linux/4.4.7/../../../../include/c++/4.4.7/bits/ios_base.h' line='266' column='1'/>
        </data-member>
        <data-member access='private' static='yes'>
          <!-- static const std::_Resetiosflags::fmtflags std::ios_base::dec -->
          <var-decl name='dec' type-id='571489ab' visibility='default' filepath='/usr/lib/gcc/x86_64-redhat-linux/4.4.7/../../../../include/c++/4.4.7/bits/ios_base.h' line='269' column='1'/>
        </data-member>
        <data-member access='private' static='yes'>
          <!-- static const std::_Resetiosflags::fmtflags std::ios_base::fixed -->
          <var-decl name='fixed' type-id='571489ab' visibility='default' filepath='/usr/lib/gcc/x86_64-redhat-linux/4.4.7/../../../../include/c++/4.4.7/bits/ios_base.h' line='272' column='1'/>
        </data-member>
        <data-member access='private' static='yes'>
          <!-- static const std::_Resetiosflags::fmtflags std::ios_base::hex -->
          <var-decl name='hex' type-id='571489ab' visibility='default' filepath='/usr/lib/gcc/x86_64-redhat-linux/4.4.7/../../../../include/c++/4.4.7/bits/ios_base.h' line='275' column='1'/>
        </data-member>
        <data-member access='private' static='yes'>
          <!-- static const std::_Resetiosflags::fmtflags std::ios_base::internal -->
          <var-decl name='internal' type-id='571489ab' visibility='default' filepath='/usr/lib/gcc/x86_64-redhat-linux/4.4.7/../../../../include/c++/4.4.7/bits/ios_base.h' line='280' column='1'/>
        </data-member>
        <data-member access='private' static='yes'>
          <!-- static const std::_Resetiosflags::fmtflags std::ios_base::left -->
          <var-decl name='left' type-id='571489ab' visibility='default' filepath='/usr/lib/gcc/x86_64-redhat-linux/4.4.7/../../../../include/c++/4.4.7/bits/ios_base.h' line='284' column='1'/>
        </data-member>
        <data-member access='private' static='yes'>
          <!-- static const std::_Resetiosflags::fmtflags std::ios_base::oct -->
          <var-decl name='oct' type-id='571489ab' visibility='default' filepath='/usr/lib/gcc/x86_64-redhat-linux/4.4.7/../../../../include/c++/4.4.7/bits/ios_base.h' line='287' column='1'/>
        </data-member>
        <data-member access='private' static='yes'>
          <!-- static const std::_Resetiosflags::fmtflags std::ios_base::right -->
          <var-decl name='right' type-id='571489ab' visibility='default' filepath='/usr/lib/gcc/x86_64-redhat-linux/4.4.7/../../../../include/c++/4.4.7/bits/ios_base.h' line='291' column='1'/>
        </data-member>
        <data-member access='private' static='yes'>
          <!-- static const std::_Resetiosflags::fmtflags std::ios_base::scientific -->
          <var-decl name='scientific' type-id='571489ab' visibility='default' filepath='/usr/lib/gcc/x86_64-redhat-linux/4.4.7/../../../../include/c++/4.4.7/bits/ios_base.h' line='294' column='1'/>
        </data-member>
        <data-member access='private' static='yes'>
          <!-- static const std::_Resetiosflags::fmtflags std::ios_base::showbase -->
          <var-decl name='showbase' type-id='571489ab' visibility='default' filepath='/usr/lib/gcc/x86_64-redhat-linux/4.4.7/../../../../include/c++/4.4.7/bits/ios_base.h' line='298' column='1'/>
        </data-member>
        <data-member access='private' static='yes'>
          <!-- static const std::_Resetiosflags::fmtflags std::ios_base::showpoint -->
          <var-decl name='showpoint' type-id='571489ab' visibility='default' filepath='/usr/lib/gcc/x86_64-redhat-linux/4.4.7/../../../../include/c++/4.4.7/bits/ios_base.h' line='302' column='1'/>
        </data-member>
        <data-member access='private' static='yes'>
          <!-- static const std::_Resetiosflags::fmtflags std::ios_base::showpos -->
          <var-decl name='showpos' type-id='571489ab' visibility='default' filepath='/usr/lib/gcc/x86_64-redhat-linux/4.4.7/../../../../include/c++/4.4.7/bits/ios_base.h' line='305' column='1'/>
        </data-member>
        <data-member access='private' static='yes'>
          <!-- static const std::_Resetiosflags::fmtflags std::ios_base::skipws -->
          <var-decl name='skipws' type-id='571489ab' visibility='default' filepath='/usr/lib/gcc/x86_64-redhat-linux/4.4.7/../../../../include/c++/4.4.7/bits/ios_base.h' line='308' column='1'/>
        </data-member>
        <data-member access='private' static='yes'>
          <!-- static const std::_Resetiosflags::fmtflags std::ios_base::unitbuf -->
          <var-decl name='unitbuf' type-id='571489ab' visibility='default' filepath='/usr/lib/gcc/x86_64-redhat-linux/4.4.7/../../../../include/c++/4.4.7/bits/ios_base.h' line='311' column='1'/>
        </data-member>
        <data-member access='private' static='yes'>
          <!-- static const std::_Resetiosflags::fmtflags std::ios_base::uppercase -->
          <var-decl name='uppercase' type-id='571489ab' visibility='default' filepath='/usr/lib/gcc/x86_64-redhat-linux/4.4.7/../../../../include/c++/4.4.7/bits/ios_base.h' line='315' column='1'/>
        </data-member>
        <data-member access='private' static='yes'>
          <!-- static const std::_Resetiosflags::fmtflags std::ios_base::adjustfield -->
          <var-decl name='adjustfield' type-id='571489ab' visibility='default' filepath='/usr/lib/gcc/x86_64-redhat-linux/4.4.7/../../../../include/c++/4.4.7/bits/ios_base.h' line='318' column='1'/>
        </data-member>
        <data-member access='private' static='yes'>
          <!-- static const std::_Resetiosflags::fmtflags std::ios_base::basefield -->
          <var-decl name='basefield' type-id='571489ab' visibility='default' filepath='/usr/lib/gcc/x86_64-redhat-linux/4.4.7/../../../../include/c++/4.4.7/bits/ios_base.h' line='321' column='1'/>
        </data-member>
        <data-member access='private' static='yes'>
          <!-- static const std::_Resetiosflags::fmtflags std::ios_base::floatfield -->
          <var-decl name='floatfield' type-id='571489ab' visibility='default' filepath='/usr/lib/gcc/x86_64-redhat-linux/4.4.7/../../../../include/c++/4.4.7/bits/ios_base.h' line='324' column='1'/>
        </data-member>
        <data-member access='private' static='yes'>
          <!-- static const std::basic_ios<char, std::char_traits<char> >::iostate std::ios_base::badbit -->
          <var-decl name='badbit' type-id='f2e7f6fb' visibility='default' filepath='/usr/lib/gcc/x86_64-redhat-linux/4.4.7/../../../../include/c++/4.4.7/bits/ios_base.h' line='342' column='1'/>
        </data-member>
        <data-member access='private' static='yes'>
          <!-- static const std::basic_ios<char, std::char_traits<char> >::iostate std::ios_base::eofbit -->
          <var-decl name='eofbit' type-id='f2e7f6fb' visibility='default' filepath='/usr/lib/gcc/x86_64-redhat-linux/4.4.7/../../../../include/c++/4.4.7/bits/ios_base.h' line='345' column='1'/>
        </data-member>
        <data-member access='private' static='yes'>
          <!-- static const std::basic_ios<char, std::char_traits<char> >::iostate std::ios_base::failbit -->
          <var-decl name='failbit' type-id='f2e7f6fb' visibility='default' filepath='/usr/lib/gcc/x86_64-redhat-linux/4.4.7/../../../../include/c++/4.4.7/bits/ios_base.h' line='350' column='1'/>
        </data-member>
        <data-member access='private' static='yes'>
          <!-- static const std::basic_ios<char, std::char_traits<char> >::iostate std::ios_base::goodbit -->
          <var-decl name='goodbit' type-id='f2e7f6fb' visibility='default' filepath='/usr/lib/gcc/x86_64-redhat-linux/4.4.7/../../../../include/c++/4.4.7/bits/ios_base.h' line='353' column='1'/>
        </data-member>
        <data-member access='private' static='yes'>
          <!-- static const std::__basic_file<char>::openmode std::ios_base::ate -->
          <var-decl name='ate' type-id='141f5be7' visibility='default' filepath='/usr/lib/gcc/x86_64-redhat-linux/4.4.7/../../../../include/c++/4.4.7/bits/ios_base.h' line='375' column='1'/>
        </data-member>
        <data-member access='private' static='yes'>
          <!-- static const std::__basic_file<char>::openmode std::ios_base::in -->
          <var-decl name='in' type-id='141f5be7' visibility='default' filepath='/usr/lib/gcc/x86_64-redhat-linux/4.4.7/../../../../include/c++/4.4.7/bits/ios_base.h' line='383' column='1'/>
        </data-member>
        <data-member access='private' static='yes'>
          <!-- static const std::__basic_file<char>::openmode std::ios_base::out -->
          <var-decl name='out' type-id='141f5be7' visibility='default' filepath='/usr/lib/gcc/x86_64-redhat-linux/4.4.7/../../../../include/c++/4.4.7/bits/ios_base.h' line='386' column='1'/>
        </data-member>
        <data-member access='private' static='yes'>
          <!-- static const std::__basic_file<char>::openmode std::ios_base::trunc -->
          <var-decl name='trunc' type-id='141f5be7' visibility='default' filepath='/usr/lib/gcc/x86_64-redhat-linux/4.4.7/../../../../include/c++/4.4.7/bits/ios_base.h' line='389' column='1'/>
        </data-member>
        <data-member access='private' static='yes'>
          <!-- static const std::__basic_file<char>::seekdir std::ios_base::beg -->
          <var-decl name='beg' type-id='f5bda603' visibility='default' filepath='/usr/lib/gcc/x86_64-redhat-linux/4.4.7/../../../../include/c++/4.4.7/bits/ios_base.h' line='404' column='1'/>
        </data-member>
        <data-member access='private' static='yes'>
          <!-- static const std::__basic_file<char>::seekdir std::ios_base::cur -->
          <var-decl name='cur' type-id='f5bda603' visibility='default' filepath='/usr/lib/gcc/x86_64-redhat-linux/4.4.7/../../../../include/c++/4.4.7/bits/ios_base.h' line='407' column='1'/>
        </data-member>
        <data-member access='private' static='yes'>
          <!-- static const std::__basic_file<char>::seekdir std::ios_base::end -->
          <var-decl name='end' type-id='f5bda603' visibility='default' filepath='/usr/lib/gcc/x86_64-redhat-linux/4.4.7/../../../../include/c++/4.4.7/bits/ios_base.h' line='410' column='1'/>
        </data-member>
      </class-decl>
      <!-- class std::reverse_iterator<__gnu_cxx::__normal_iterator<char*, std::basic_string<char, std::char_traits<char>, std::allocator<char> > > > -->
      <class-decl name='reverse_iterator&lt;__gnu_cxx::__normal_iterator&lt;char*, std::basic_string&lt;char, std::char_traits&lt;char&gt;, std::allocator&lt;char&gt; &gt; &gt; &gt;' visibility='default' is-declaration-only='yes' id='20ab28bd'/>
      <!-- class std::reverse_iterator<__gnu_cxx::__normal_iterator<const char*, std::basic_string<char, std::char_traits<char>, std::allocator<char> > > > -->
      <class-decl name='reverse_iterator&lt;__gnu_cxx::__normal_iterator&lt;const char*, std::basic_string&lt;char, std::char_traits&lt;char&gt;, std::allocator&lt;char&gt; &gt; &gt; &gt;' visibility='default' is-declaration-only='yes' id='dda1c57e'/>
      <!-- class std::reverse_iterator<__gnu_cxx::__normal_iterator<const long long int*, std::vector<long long int, std::allocator<long long int> > > > -->
      <class-decl name='reverse_iterator&lt;__gnu_cxx::__normal_iterator&lt;const long long int*, std::vector&lt;long long int, std::allocator&lt;long long int&gt; &gt; &gt; &gt;' visibility='default' is-declaration-only='yes' id='73b36b9f'/>
      <!-- class std::reverse_iterator<__gnu_cxx::__normal_iterator<const unsigned char*, std::vector<unsigned char, std::allocator<unsigned char> > > > -->
      <class-decl name='reverse_iterator&lt;__gnu_cxx::__normal_iterator&lt;const unsigned char*, std::vector&lt;unsigned char, std::allocator&lt;unsigned char&gt; &gt; &gt; &gt;' visibility='default' is-declaration-only='yes' id='cfc1309b'/>
      <!-- class std::reverse_iterator<__gnu_cxx::__normal_iterator<long long int*, std::vector<long long int, std::allocator<long long int> > > > -->
      <class-decl name='reverse_iterator&lt;__gnu_cxx::__normal_iterator&lt;long long int*, std::vector&lt;long long int, std::allocator&lt;long long int&gt; &gt; &gt; &gt;' visibility='default' is-declaration-only='yes' id='56480092'/>
      <!-- class std::reverse_iterator<__gnu_cxx::__normal_iterator<unsigned char*, std::vector<unsigned char, std::allocator<unsigned char> > > > -->
      <class-decl name='reverse_iterator&lt;__gnu_cxx::__normal_iterator&lt;unsigned char*, std::vector&lt;unsigned char, std::allocator&lt;unsigned char&gt; &gt; &gt; &gt;' visibility='default' is-declaration-only='yes' id='2454cd5e'/>
      <!-- const std::ctype<char>& std::__check_facet<std::ctype<char> >(const std::ctype<char>*) -->
      <function-decl name='__check_facet&lt;std::ctype&lt;char&gt; &gt;' filepath='/usr/lib/gcc/x86_64-redhat-linux/4.4.7/../../../../include/c++/4.4.7/bits/basic_ios.h' line='46' column='1' visibility='default' binding='global' size-in-bits='64'>
        <!-- parameter of type 'const std::ctype<char>*' -->
        <parameter type-id='728149d6'/>
        <!-- const std::ctype<char>& -->
        <return type-id='7e815cba'/>
      </function-decl>
      <!-- std::_Ios_Iostate std::operator|(std::_Ios_Iostate, std::_Ios_Iostate) -->
      <function-decl name='operator|' filepath='/usr/lib/gcc/x86_64-redhat-linux/4.4.7/../../../../include/c++/4.4.7/bits/ios_base.h' line='166' column='1' visibility='default' binding='global' size-in-bits='64'>
        <!-- parameter of type 'enum std::_Ios_Iostate' -->
        <parameter type-id='3eae72a5'/>
        <!-- parameter of type 'enum std::_Ios_Iostate' -->
        <parameter type-id='3eae72a5'/>
        <!-- enum std::_Ios_Iostate -->
        <return type-id='3eae72a5'/>
      </function-decl>
      <!-- const size_t& std::max<size_t>(const size_t&, const size_t&) -->
      <function-decl name='max&lt;size_t&gt;' filepath='/usr/lib/gcc/x86_64-redhat-linux/4.4.7/../../../../include/c++/4.4.7/bits/stl_algobase.h' line='209' column='1' visibility='default' binding='global' size-in-bits='64'>
        <!-- parameter of type 'const size_t&' -->
        <parameter type-id='f221ed68'/>
        <!-- parameter of type 'const size_t&' -->
        <parameter type-id='f221ed68'/>
        <!-- const size_t& -->
        <return type-id='f221ed68'/>
      </function-decl>
      <!-- std::_Bit_type* std::__copy_move_a<false, const vtkCommunicator::ReduceVoidArray::VTK_TT*, std::_Bit_type*>(const std::__miter_base<const vtkCommunicator::ReduceVoidArray::VTK_TT*, false>::VTK_TT*, const std::__miter_base<const vtkCommunicator::ReduceVoidArray::VTK_TT*, false>::VTK_TT*, std::_Bit_type*) -->
      <function-decl name='__copy_move_a&lt;false, const vtkCommunicator::ReduceVoidArray::VTK_TT*, std::_Bit_type*&gt;' filepath='/usr/lib/gcc/x86_64-redhat-linux/4.4.7/../../../../include/c++/4.4.7/bits/stl_algobase.h' line='386' column='1' visibility='default' binding='global' size-in-bits='64'>
        <!-- parameter of type 'const std::__miter_base<const vtkCommunicator::ReduceVoidArray::VTK_TT*, false>::VTK_TT*' -->
        <parameter type-id='6970fa21'/>
        <!-- parameter of type 'const std::__miter_base<const vtkCommunicator::ReduceVoidArray::VTK_TT*, false>::VTK_TT*' -->
        <parameter type-id='6970fa21'/>
        <!-- parameter of type 'std::_Bit_type*' -->
        <parameter type-id='3113c6cb'/>
        <!-- std::_Bit_type* -->
        <return type-id='3113c6cb'/>
      </function-decl>
      <!-- std::__miter_base<const vtkCommunicator::ReduceVoidArray::VTK_TT*, false>::VTK_TT* std::__copy_move_a<false, const vtkCommunicator::ReduceVoidArray::VTK_TT*, vtkCommunicator::ReduceVoidArray::VTK_TT*>(const std::__miter_base<const vtkCommunicator::ReduceVoidArray::VTK_TT*, false>::VTK_TT*, const std::__miter_base<const vtkCommunicator::ReduceVoidArray::VTK_TT*, false>::VTK_TT*, std::__miter_base<const vtkCommunicator::ReduceVoidArray::VTK_TT*, false>::VTK_TT*) -->
      <function-decl name='__copy_move_a&lt;false, const vtkCommunicator::ReduceVoidArray::VTK_TT*, vtkCommunicator::ReduceVoidArray::VTK_TT*&gt;' filepath='/usr/lib/gcc/x86_64-redhat-linux/4.4.7/../../../../include/c++/4.4.7/bits/stl_algobase.h' line='386' column='1' visibility='default' binding='global' size-in-bits='64'>
        <!-- parameter of type 'const std::__miter_base<const vtkCommunicator::ReduceVoidArray::VTK_TT*, false>::VTK_TT*' -->
        <parameter type-id='6970fa21'/>
        <!-- parameter of type 'const std::__miter_base<const vtkCommunicator::ReduceVoidArray::VTK_TT*, false>::VTK_TT*' -->
        <parameter type-id='6970fa21'/>
        <!-- parameter of type 'std::__miter_base<const vtkCommunicator::ReduceVoidArray::VTK_TT*, false>::VTK_TT*' -->
        <parameter type-id='24885fd4'/>
        <!-- std::__miter_base<const vtkCommunicator::ReduceVoidArray::VTK_TT*, false>::VTK_TT* -->
        <return type-id='24885fd4'/>
      </function-decl>
      <!-- std::__miter_base<const vtkCommunicator::ReduceVoidArray::VTK_TT*, false>::VTK_TT* std::__copy_move_a<false, vtkCommunicator::ReduceVoidArray::VTK_TT*, vtkCommunicator::ReduceVoidArray::VTK_TT*>(std::__miter_base<const vtkCommunicator::ReduceVoidArray::VTK_TT*, false>::VTK_TT*, std::__miter_base<const vtkCommunicator::ReduceVoidArray::VTK_TT*, false>::VTK_TT*, std::__miter_base<const vtkCommunicator::ReduceVoidArray::VTK_TT*, false>::VTK_TT*) -->
      <function-decl name='__copy_move_a&lt;false, vtkCommunicator::ReduceVoidArray::VTK_TT*, vtkCommunicator::ReduceVoidArray::VTK_TT*&gt;' filepath='/usr/lib/gcc/x86_64-redhat-linux/4.4.7/../../../../include/c++/4.4.7/bits/stl_algobase.h' line='386' column='1' visibility='default' binding='global' size-in-bits='64'>
        <!-- parameter of type 'std::__miter_base<const vtkCommunicator::ReduceVoidArray::VTK_TT*, false>::VTK_TT*' -->
        <parameter type-id='24885fd4'/>
        <!-- parameter of type 'std::__miter_base<const vtkCommunicator::ReduceVoidArray::VTK_TT*, false>::VTK_TT*' -->
        <parameter type-id='24885fd4'/>
        <!-- parameter of type 'std::__miter_base<const vtkCommunicator::ReduceVoidArray::VTK_TT*, false>::VTK_TT*' -->
        <parameter type-id='24885fd4'/>
        <!-- std::__miter_base<const vtkCommunicator::ReduceVoidArray::VTK_TT*, false>::VTK_TT* -->
        <return type-id='24885fd4'/>
      </function-decl>
      <!-- std::__miter_base<const vtkCommunicator::ReduceVoidArray::VTK_TT*, false>::VTK_TT* std::__copy_move_a2<false, const vtkCommunicator::ReduceVoidArray::VTK_TT*, vtkCommunicator::ReduceVoidArray::VTK_TT*>(const std::__miter_base<const vtkCommunicator::ReduceVoidArray::VTK_TT*, false>::VTK_TT*, const std::__miter_base<const vtkCommunicator::ReduceVoidArray::VTK_TT*, false>::VTK_TT*, std::__miter_base<const vtkCommunicator::ReduceVoidArray::VTK_TT*, false>::VTK_TT*) -->
      <function-decl name='__copy_move_a2&lt;false, const vtkCommunicator::ReduceVoidArray::VTK_TT*, vtkCommunicator::ReduceVoidArray::VTK_TT*&gt;' filepath='/usr/lib/gcc/x86_64-redhat-linux/4.4.7/../../../../include/c++/4.4.7/bits/stl_algobase.h' line='431' column='1' visibility='default' binding='global' size-in-bits='64'>
        <!-- parameter of type 'const std::__miter_base<const vtkCommunicator::ReduceVoidArray::VTK_TT*, false>::VTK_TT*' -->
        <parameter type-id='6970fa21'/>
        <!-- parameter of type 'const std::__miter_base<const vtkCommunicator::ReduceVoidArray::VTK_TT*, false>::VTK_TT*' -->
        <parameter type-id='6970fa21'/>
        <!-- parameter of type 'std::__miter_base<const vtkCommunicator::ReduceVoidArray::VTK_TT*, false>::VTK_TT*' -->
        <parameter type-id='24885fd4'/>
        <!-- std::__miter_base<const vtkCommunicator::ReduceVoidArray::VTK_TT*, false>::VTK_TT* -->
        <return type-id='24885fd4'/>
      </function-decl>
      <!-- unsigned char* std::__copy_move_a2<false, unsigned char*, unsigned char*>(unsigned char*, unsigned char*, unsigned char*) -->
      <function-decl name='__copy_move_a2&lt;false, unsigned char*, unsigned char*&gt;' filepath='/usr/lib/gcc/x86_64-redhat-linux/4.4.7/../../../../include/c++/4.4.7/bits/stl_algobase.h' line='431' column='1' visibility='default' binding='global' size-in-bits='64'>
        <!-- parameter of type 'unsigned char*' -->
        <parameter type-id='cf536864'/>
        <!-- parameter of type 'unsigned char*' -->
        <parameter type-id='cf536864'/>
        <!-- parameter of type 'unsigned char*' -->
        <parameter type-id='cf536864'/>
        <!-- unsigned char* -->
        <return type-id='cf536864'/>
      </function-decl>
      <!-- std::__miter_base<const vtkCommunicator::ReduceVoidArray::VTK_TT*, false>::VTK_TT* std::copy<const vtkCommunicator::ReduceVoidArray::VTK_TT*, vtkCommunicator::ReduceVoidArray::VTK_TT*>(const std::__miter_base<const vtkCommunicator::ReduceVoidArray::VTK_TT*, false>::VTK_TT*, const std::__miter_base<const vtkCommunicator::ReduceVoidArray::VTK_TT*, false>::VTK_TT*, std::__miter_base<const vtkCommunicator::ReduceVoidArray::VTK_TT*, false>::VTK_TT*) -->
      <function-decl name='copy&lt;const vtkCommunicator::ReduceVoidArray::VTK_TT*, vtkCommunicator::ReduceVoidArray::VTK_TT*&gt;' mangled-name='_ZSt4copyIPKxPxET0_T_S4_S3_' filepath='/usr/lib/gcc/x86_64-redhat-linux/4.4.7/../../../../include/c++/4.4.7/bits/stl_algobase.h' line='458' column='1' visibility='default' binding='global' size-in-bits='64' elf-symbol-id='_ZSt4copyIPKxPxET0_T_S4_S3_'>
        <!-- parameter of type 'const std::__miter_base<const vtkCommunicator::ReduceVoidArray::VTK_TT*, false>::VTK_TT*' -->
        <parameter type-id='6970fa21'/>
        <!-- parameter of type 'const std::__miter_base<const vtkCommunicator::ReduceVoidArray::VTK_TT*, false>::VTK_TT*' -->
        <parameter type-id='6970fa21'/>
        <!-- parameter of type 'std::__miter_base<const vtkCommunicator::ReduceVoidArray::VTK_TT*, false>::VTK_TT*' -->
        <parameter type-id='24885fd4'/>
        <!-- std::__miter_base<const vtkCommunicator::ReduceVoidArray::VTK_TT*, false>::VTK_TT* -->
        <return type-id='24885fd4'/>
      </function-decl>
      <!-- unsigned char* std::copy<unsigned char*, unsigned char*>(unsigned char*, unsigned char*, unsigned char*) -->
      <function-decl name='copy&lt;unsigned char*, unsigned char*&gt;' filepath='/usr/lib/gcc/x86_64-redhat-linux/4.4.7/../../../../include/c++/4.4.7/bits/stl_algobase.h' line='458' column='1' visibility='default' binding='global' size-in-bits='64'>
        <!-- parameter of type 'unsigned char*' -->
        <parameter type-id='cf536864'/>
        <!-- parameter of type 'unsigned char*' -->
        <parameter type-id='cf536864'/>
        <!-- parameter of type 'unsigned char*' -->
        <parameter type-id='cf536864'/>
        <!-- unsigned char* -->
        <return type-id='cf536864'/>
      </function-decl>
      <!-- std::__miter_base<const vtkCommunicator::ReduceVoidArray::VTK_TT*, false>::VTK_TT* std::__copy_move_backward_a<false, vtkCommunicator::ReduceVoidArray::VTK_TT*, vtkCommunicator::ReduceVoidArray::VTK_TT*>(std::__miter_base<const vtkCommunicator::ReduceVoidArray::VTK_TT*, false>::VTK_TT*, std::__miter_base<const vtkCommunicator::ReduceVoidArray::VTK_TT*, false>::VTK_TT*, std::__miter_base<const vtkCommunicator::ReduceVoidArray::VTK_TT*, false>::VTK_TT*) -->
      <function-decl name='__copy_move_backward_a&lt;false, vtkCommunicator::ReduceVoidArray::VTK_TT*, vtkCommunicator::ReduceVoidArray::VTK_TT*&gt;' filepath='/usr/lib/gcc/x86_64-redhat-linux/4.4.7/../../../../include/c++/4.4.7/bits/stl_algobase.h' line='582' column='1' visibility='default' binding='global' size-in-bits='64'>
        <!-- parameter of type 'std::__miter_base<const vtkCommunicator::ReduceVoidArray::VTK_TT*, false>::VTK_TT*' -->
        <parameter type-id='24885fd4'/>
        <!-- parameter of type 'std::__miter_base<const vtkCommunicator::ReduceVoidArray::VTK_TT*, false>::VTK_TT*' -->
        <parameter type-id='24885fd4'/>
        <!-- parameter of type 'std::__miter_base<const vtkCommunicator::ReduceVoidArray::VTK_TT*, false>::VTK_TT*' -->
        <parameter type-id='24885fd4'/>
        <!-- std::__miter_base<const vtkCommunicator::ReduceVoidArray::VTK_TT*, false>::VTK_TT* -->
        <return type-id='24885fd4'/>
      </function-decl>
      <!-- unsigned char* std::__copy_move_backward_a2<false, unsigned char*, unsigned char*>(unsigned char*, unsigned char*, unsigned char*) -->
      <function-decl name='__copy_move_backward_a2&lt;false, unsigned char*, unsigned char*&gt;' filepath='/usr/lib/gcc/x86_64-redhat-linux/4.4.7/../../../../include/c++/4.4.7/bits/stl_algobase.h' line='600' column='1' visibility='default' binding='global' size-in-bits='64'>
        <!-- parameter of type 'unsigned char*' -->
        <parameter type-id='cf536864'/>
        <!-- parameter of type 'unsigned char*' -->
        <parameter type-id='cf536864'/>
        <!-- parameter of type 'unsigned char*' -->
        <parameter type-id='cf536864'/>
        <!-- unsigned char* -->
        <return type-id='cf536864'/>
      </function-decl>
      <!-- unsigned char* std::copy_backward<unsigned char*, unsigned char*>(unsigned char*, unsigned char*, unsigned char*) -->
      <function-decl name='copy_backward&lt;unsigned char*, unsigned char*&gt;' filepath='/usr/lib/gcc/x86_64-redhat-linux/4.4.7/../../../../include/c++/4.4.7/bits/stl_algobase.h' line='628' column='1' visibility='default' binding='global' size-in-bits='64'>
        <!-- parameter of type 'unsigned char*' -->
        <parameter type-id='cf536864'/>
        <!-- parameter of type 'unsigned char*' -->
        <parameter type-id='cf536864'/>
        <!-- parameter of type 'unsigned char*' -->
        <parameter type-id='cf536864'/>
        <!-- unsigned char* -->
        <return type-id='cf536864'/>
      </function-decl>
      <!-- void std::__fill_a<vtkCommunicator::ReduceVoidArray::VTK_TT>(std::__miter_base<const vtkCommunicator::ReduceVoidArray::VTK_TT*, false>::VTK_TT*, std::__miter_base<const vtkCommunicator::ReduceVoidArray::VTK_TT*, false>::VTK_TT*, const std::__miter_base<const vtkCommunicator::ReduceVoidArray::VTK_TT*, false>::VTK_TT&) -->
      <function-decl name='__fill_a&lt;vtkCommunicator::ReduceVoidArray::VTK_TT&gt;' filepath='/usr/lib/gcc/x86_64-redhat-linux/4.4.7/../../../../include/c++/4.4.7/bits/stl_algobase.h' line='709' column='1' visibility='default' binding='global' size-in-bits='64'>
        <!-- parameter of type 'std::__miter_base<const vtkCommunicator::ReduceVoidArray::VTK_TT*, false>::VTK_TT*' -->
        <parameter type-id='24885fd4'/>
        <!-- parameter of type 'std::__miter_base<const vtkCommunicator::ReduceVoidArray::VTK_TT*, false>::VTK_TT*' -->
        <parameter type-id='24885fd4'/>
        <!-- parameter of type 'const std::__miter_base<const vtkCommunicator::ReduceVoidArray::VTK_TT*, false>::VTK_TT&' -->
        <parameter type-id='6570f3d5'/>
        <!-- void -->
        <return type-id='48b5725f'/>
      </function-decl>
      <!-- void std::fill<unsigned char*, unsigned char>(unsigned char*, unsigned char*, const unsigned char&) -->
      <function-decl name='fill&lt;unsigned char*, unsigned char&gt;' filepath='/usr/lib/gcc/x86_64-redhat-linux/4.4.7/../../../../include/c++/4.4.7/bits/stl_algobase.h' line='730' column='1' visibility='default' binding='global' size-in-bits='64'>
        <!-- parameter of type 'unsigned char*' -->
        <parameter type-id='cf536864'/>
        <!-- parameter of type 'unsigned char*' -->
        <parameter type-id='cf536864'/>
        <!-- parameter of type 'const unsigned char&' -->
        <parameter type-id='414f919d'/>
        <!-- void -->
        <return type-id='48b5725f'/>
      </function-decl>
      <!-- std::__miter_base<const vtkCommunicator::ReduceVoidArray::VTK_TT*, false>::VTK_TT* std::__fill_n_a<vtkCommunicator::ReduceVoidArray::VTK_TT*, long unsigned int, long long int>(std::__miter_base<const vtkCommunicator::ReduceVoidArray::VTK_TT*, false>::VTK_TT*, unsigned long int, const long long int&) -->
      <function-decl name='__fill_n_a&lt;vtkCommunicator::ReduceVoidArray::VTK_TT*, long unsigned int, long long int&gt;' filepath='/usr/lib/gcc/x86_64-redhat-linux/4.4.7/../../../../include/c++/4.4.7/bits/stl_algobase.h' line='754' column='1' visibility='default' binding='global' size-in-bits='64'>
        <!-- parameter of type 'std::__miter_base<const vtkCommunicator::ReduceVoidArray::VTK_TT*, false>::VTK_TT*' -->
        <parameter type-id='24885fd4'/>
        <!-- parameter of type 'unsigned long int' -->
        <parameter type-id='7359adad'/>
        <!-- parameter of type 'const long long int&' -->
        <parameter type-id='e12052cd'/>
        <!-- std::__miter_base<const vtkCommunicator::ReduceVoidArray::VTK_TT*, false>::VTK_TT* -->
        <return type-id='24885fd4'/>
      </function-decl>
      <!-- std::__miter_base<const vtkCommunicator::ReduceVoidArray::VTK_TT*, false>::VTK_TT* std::__fill_n_a<long unsigned int, vtkCommunicator::ReduceVoidArray::VTK_TT>(std::__miter_base<const vtkCommunicator::ReduceVoidArray::VTK_TT*, false>::VTK_TT*, unsigned long int, const std::__miter_base<const vtkCommunicator::ReduceVoidArray::VTK_TT*, false>::VTK_TT&) -->
      <function-decl name='__fill_n_a&lt;long unsigned int, vtkCommunicator::ReduceVoidArray::VTK_TT&gt;' filepath='/usr/lib/gcc/x86_64-redhat-linux/4.4.7/../../../../include/c++/4.4.7/bits/stl_algobase.h' line='765' column='1' visibility='default' binding='global' size-in-bits='64'>
        <!-- parameter of type 'std::__miter_base<const vtkCommunicator::ReduceVoidArray::VTK_TT*, false>::VTK_TT*' -->
        <parameter type-id='24885fd4'/>
        <!-- parameter of type 'unsigned long int' -->
        <parameter type-id='7359adad'/>
        <!-- parameter of type 'const std::__miter_base<const vtkCommunicator::ReduceVoidArray::VTK_TT*, false>::VTK_TT&' -->
        <parameter type-id='6570f3d5'/>
        <!-- std::__miter_base<const vtkCommunicator::ReduceVoidArray::VTK_TT*, false>::VTK_TT* -->
        <return type-id='24885fd4'/>
      </function-decl>
      <!-- long long int* std::fill_n<long long int*, long unsigned int, long long int>(long long int*, unsigned long int, const long long int&) -->
      <function-decl name='fill_n&lt;long long int*, long unsigned int, long long int&gt;' filepath='/usr/lib/gcc/x86_64-redhat-linux/4.4.7/../../../../include/c++/4.4.7/bits/stl_algobase.h' line='785' column='1' visibility='default' binding='global' size-in-bits='64'>
        <!-- parameter of type 'long long int*' -->
        <parameter type-id='8b97c2dc'/>
        <!-- parameter of type 'unsigned long int' -->
        <parameter type-id='7359adad'/>
        <!-- parameter of type 'const long long int&' -->
        <parameter type-id='e12052cd'/>
        <!-- long long int* -->
        <return type-id='8b97c2dc'/>
      </function-decl>
      <!-- unsigned char* std::fill_n<unsigned char*, long unsigned int, unsigned char>(unsigned char*, unsigned long int, const unsigned char&) -->
      <function-decl name='fill_n&lt;unsigned char*, long unsigned int, unsigned char&gt;' filepath='/usr/lib/gcc/x86_64-redhat-linux/4.4.7/../../../../include/c++/4.4.7/bits/stl_algobase.h' line='785' column='1' visibility='default' binding='global' size-in-bits='64'>
        <!-- parameter of type 'unsigned char*' -->
        <parameter type-id='cf536864'/>
        <!-- parameter of type 'unsigned long int' -->
        <parameter type-id='7359adad'/>
        <!-- parameter of type 'const unsigned char&' -->
        <parameter type-id='414f919d'/>
        <!-- unsigned char* -->
        <return type-id='cf536864'/>
      </function-decl>
      <!-- void std::_Destroy<long long int*>(long long int*, long long int*) -->
      <function-decl name='_Destroy&lt;long long int*&gt;' filepath='/usr/lib/gcc/x86_64-redhat-linux/4.4.7/../../../../include/c++/4.4.7/bits/stl_construct.h' line='119' column='1' visibility='default' binding='global' size-in-bits='64'>
        <!-- parameter of type 'long long int*' -->
        <parameter type-id='8b97c2dc'/>
        <!-- parameter of type 'long long int*' -->
        <parameter type-id='8b97c2dc'/>
        <!-- void -->
        <return type-id='48b5725f'/>
      </function-decl>
      <!-- void std::_Destroy<unsigned char*>(unsigned char*, unsigned char*) -->
      <function-decl name='_Destroy&lt;unsigned char*&gt;' filepath='/usr/lib/gcc/x86_64-redhat-linux/4.4.7/../../../../include/c++/4.4.7/bits/stl_construct.h' line='119' column='1' visibility='default' binding='global' size-in-bits='64'>
        <!-- parameter of type 'unsigned char*' -->
        <parameter type-id='cf536864'/>
        <!-- parameter of type 'unsigned char*' -->
        <parameter type-id='cf536864'/>
        <!-- void -->
        <return type-id='48b5725f'/>
      </function-decl>
      <!-- void std::_Destroy<long long int*, long long int>(long long int*, long long int*, std::allocator<long long int>&) -->
      <function-decl name='_Destroy&lt;long long int*, long long int&gt;' filepath='/usr/lib/gcc/x86_64-redhat-linux/4.4.7/../../../../include/c++/4.4.7/bits/stl_construct.h' line='146' column='1' visibility='default' binding='global' size-in-bits='64'>
        <!-- parameter of type 'long long int*' -->
        <parameter type-id='8b97c2dc'/>
        <!-- parameter of type 'long long int*' -->
        <parameter type-id='8b97c2dc'/>
        <!-- parameter of type 'std::allocator<long long int>&' -->
        <parameter type-id='d6acf13e'/>
        <!-- void -->
        <return type-id='48b5725f'/>
      </function-decl>
      <!-- void std::_Destroy<unsigned char*, unsigned char>(unsigned char*, unsigned char*, std::allocator<unsigned char>&) -->
      <function-decl name='_Destroy&lt;unsigned char*, unsigned char&gt;' filepath='/usr/lib/gcc/x86_64-redhat-linux/4.4.7/../../../../include/c++/4.4.7/bits/stl_construct.h' line='146' column='1' visibility='default' binding='global' size-in-bits='64'>
        <!-- parameter of type 'unsigned char*' -->
        <parameter type-id='cf536864'/>
        <!-- parameter of type 'unsigned char*' -->
        <parameter type-id='cf536864'/>
        <!-- parameter of type 'std::allocator<unsigned char>&' -->
        <parameter type-id='a6807896'/>
        <!-- void -->
        <return type-id='48b5725f'/>
      </function-decl>
      <!-- unsigned char* std::uninitialized_copy<unsigned char*, unsigned char*>(unsigned char*, unsigned char*, unsigned char*) -->
      <function-decl name='uninitialized_copy&lt;unsigned char*, unsigned char*&gt;' filepath='/usr/lib/gcc/x86_64-redhat-linux/4.4.7/../../../../include/c++/4.4.7/bits/stl_uninitialized.h' line='106' column='1' visibility='default' binding='global' size-in-bits='64'>
        <!-- parameter of type 'unsigned char*' -->
        <parameter type-id='cf536864'/>
        <!-- parameter of type 'unsigned char*' -->
        <parameter type-id='cf536864'/>
        <!-- parameter of type 'unsigned char*' -->
        <parameter type-id='cf536864'/>
        <!-- unsigned char* -->
        <return type-id='cf536864'/>
      </function-decl>
      <!-- void std::uninitialized_fill_n<long long int*, long unsigned int, long long int>(long long int*, unsigned long int, const long long int&) -->
      <function-decl name='uninitialized_fill_n&lt;long long int*, long unsigned int, long long int&gt;' filepath='/usr/lib/gcc/x86_64-redhat-linux/4.4.7/../../../../include/c++/4.4.7/bits/stl_uninitialized.h' line='217' column='1' visibility='default' binding='global' size-in-bits='64'>
        <!-- parameter of type 'long long int*' -->
        <parameter type-id='8b97c2dc'/>
        <!-- parameter of type 'unsigned long int' -->
        <parameter type-id='7359adad'/>
        <!-- parameter of type 'const long long int&' -->
        <parameter type-id='e12052cd'/>
        <!-- void -->
        <return type-id='48b5725f'/>
      </function-decl>
      <!-- void std::uninitialized_fill_n<unsigned char*, long unsigned int, unsigned char>(unsigned char*, unsigned long int, const unsigned char&) -->
      <function-decl name='uninitialized_fill_n&lt;unsigned char*, long unsigned int, unsigned char&gt;' filepath='/usr/lib/gcc/x86_64-redhat-linux/4.4.7/../../../../include/c++/4.4.7/bits/stl_uninitialized.h' line='217' column='1' visibility='default' binding='global' size-in-bits='64'>
        <!-- parameter of type 'unsigned char*' -->
        <parameter type-id='cf536864'/>
        <!-- parameter of type 'unsigned long int' -->
        <parameter type-id='7359adad'/>
        <!-- parameter of type 'const unsigned char&' -->
        <parameter type-id='414f919d'/>
        <!-- void -->
        <return type-id='48b5725f'/>
      </function-decl>
      <!-- unsigned char* std::__uninitialized_copy_a<unsigned char*, unsigned char*, unsigned char>(unsigned char*, unsigned char*, unsigned char*, std::allocator<unsigned char>&) -->
      <function-decl name='__uninitialized_copy_a&lt;unsigned char*, unsigned char*, unsigned char&gt;' filepath='/usr/lib/gcc/x86_64-redhat-linux/4.4.7/../../../../include/c++/4.4.7/bits/stl_uninitialized.h' line='254' column='1' visibility='default' binding='global' size-in-bits='64'>
        <!-- parameter of type 'unsigned char*' -->
        <parameter type-id='cf536864'/>
        <!-- parameter of type 'unsigned char*' -->
        <parameter type-id='cf536864'/>
        <!-- parameter of type 'unsigned char*' -->
        <parameter type-id='cf536864'/>
        <!-- parameter of type 'std::allocator<unsigned char>&' -->
        <parameter type-id='a6807896'/>
        <!-- unsigned char* -->
        <return type-id='cf536864'/>
      </function-decl>
      <!-- unsigned char* std::__uninitialized_move_a<unsigned char*, unsigned char*, std::allocator<unsigned char> >(unsigned char*, unsigned char*, unsigned char*, std::allocator<unsigned char>&) -->
      <function-decl name='__uninitialized_move_a&lt;unsigned char*, unsigned char*, std::allocator&lt;unsigned char&gt; &gt;' filepath='/usr/lib/gcc/x86_64-redhat-linux/4.4.7/../../../../include/c++/4.4.7/bits/stl_uninitialized.h' line='261' column='1' visibility='default' binding='global' size-in-bits='64'>
        <!-- parameter of type 'unsigned char*' -->
        <parameter type-id='cf536864'/>
        <!-- parameter of type 'unsigned char*' -->
        <parameter type-id='cf536864'/>
        <!-- parameter of type 'unsigned char*' -->
        <parameter type-id='cf536864'/>
        <!-- parameter of type 'std::allocator<unsigned char>&' -->
        <parameter type-id='a6807896'/>
        <!-- unsigned char* -->
        <return type-id='cf536864'/>
      </function-decl>
      <!-- void std::__uninitialized_fill_n_a<long long int*, long unsigned int, long long int, long long int>(long long int*, unsigned long int, const long long int&, std::allocator<long long int>&) -->
      <function-decl name='__uninitialized_fill_n_a&lt;long long int*, long unsigned int, long long int, long long int&gt;' filepath='/usr/lib/gcc/x86_64-redhat-linux/4.4.7/../../../../include/c++/4.4.7/bits/stl_uninitialized.h' line='315' column='1' visibility='default' binding='global' size-in-bits='64'>
        <!-- parameter of type 'long long int*' -->
        <parameter type-id='8b97c2dc'/>
        <!-- parameter of type 'unsigned long int' -->
        <parameter type-id='7359adad'/>
        <!-- parameter of type 'const long long int&' -->
        <parameter type-id='e12052cd'/>
        <!-- parameter of type 'std::allocator<long long int>&' -->
        <parameter type-id='d6acf13e'/>
        <!-- void -->
        <return type-id='48b5725f'/>
      </function-decl>
      <!-- void std::__uninitialized_fill_n_a<unsigned char*, long unsigned int, unsigned char, unsigned char>(unsigned char*, unsigned long int, const unsigned char&, std::allocator<unsigned char>&) -->
      <function-decl name='__uninitialized_fill_n_a&lt;unsigned char*, long unsigned int, unsigned char, unsigned char&gt;' filepath='/usr/lib/gcc/x86_64-redhat-linux/4.4.7/../../../../include/c++/4.4.7/bits/stl_uninitialized.h' line='315' column='1' visibility='default' binding='global' size-in-bits='64'>
        <!-- parameter of type 'unsigned char*' -->
        <parameter type-id='cf536864'/>
        <!-- parameter of type 'unsigned long int' -->
        <parameter type-id='7359adad'/>
        <!-- parameter of type 'const unsigned char&' -->
        <parameter type-id='414f919d'/>
        <!-- parameter of type 'std::allocator<unsigned char>&' -->
        <parameter type-id='a6807896'/>
        <!-- void -->
        <return type-id='48b5725f'/>
      </function-decl>
      <!-- std::basic_ostream<char, std::char_traits<char> >& std::operator<< <std::char_traits<char> >(std::basic_ostream<char, std::char_traits<char> >&, const char*) -->
      <function-decl name='operator&lt;&lt; &lt;std::char_traits&lt;char&gt; &gt;' filepath='/usr/lib/gcc/x86_64-redhat-linux/4.4.7/../../../../include/c++/4.4.7/ostream' line='505' column='1' visibility='default' binding='global' size-in-bits='64'>
        <!-- parameter of type 'std::basic_ostream<char, std::char_traits<char> >&' -->
        <parameter type-id='59cdd279'/>
        <!-- parameter of type 'const char*' -->
        <parameter type-id='80f4b756'/>
        <!-- std::basic_ostream<char, std::char_traits<char> >& -->
        <return type-id='59cdd279'/>
      </function-decl>
      <!-- std::basic_ostream<char, std::char_traits<char> >& std::endl<char, std::char_traits<char> >(std::basic_ostream<char, std::char_traits<char> >&) -->
      <function-decl name='endl&lt;char, std::char_traits&lt;char&gt; &gt;' filepath='/usr/lib/gcc/x86_64-redhat-linux/4.4.7/../../../../include/c++/4.4.7/ostream' line='538' column='1' visibility='default' binding='global' size-in-bits='64'>
        <!-- parameter of type 'std::basic_ostream<char, std::char_traits<char> >&' -->
        <parameter type-id='59cdd279'/>
        <!-- std::basic_ostream<char, std::char_traits<char> >& -->
        <return type-id='59cdd279'/>
      </function-decl>
      <!-- std::basic_ostream<char, std::char_traits<char> >& std::flush<char, std::char_traits<char> >(std::basic_ostream<char, std::char_traits<char> >&) -->
      <function-decl name='flush&lt;char, std::char_traits&lt;char&gt; &gt;' filepath='/usr/lib/gcc/x86_64-redhat-linux/4.4.7/../../../../include/c++/4.4.7/ostream' line='559' column='1' visibility='default' binding='global' size-in-bits='64'>
        <!-- parameter of type 'std::basic_ostream<char, std::char_traits<char> >&' -->
        <parameter type-id='59cdd279'/>
        <!-- std::basic_ostream<char, std::char_traits<char> >& -->
        <return type-id='59cdd279'/>
      </function-decl>
    </namespace-decl>
    <!-- class vtkCommunicator -->
