<abi-corpus version='2.1' path='data/test-read-dwarf/test11-pr18828.so'>
  <elf-needed>
    <dependency name='build/debug/mongo/db/libserver_parameters.so'/>
    <dependency name='build/debug/mongo/libbase.so'/>
    <dependency name='build/debug/mongo/platform/libplatform.so'/>
    <dependency name='build/debug/mongo/util/concurrency/libsynchronization.so'/>
    <dependency name='build/debug/mongo/util/libdebugger.so'/>
    <dependency name='build/debug/mongo/util/libfoundation.so'/>
    <dependency name='build/debug/mongo/util/libquick_exit.so'/>
    <dependency name='build/debug/mongo/util/options_parser/liboptions_parser.so'/>
    <dependency name='build/debug/third_party/boost-1.56.0/libboost_chrono.so'/>
    <dependency name='build/debug/third_party/boost-1.56.0/libboost_filesystem.so'/>
    <dependency name='build/debug/third_party/boost-1.56.0/libboost_program_options.so'/>
    <dependency name='build/debug/third_party/boost-1.56.0/libboost_system.so'/>
    <dependency name='build/debug/third_party/boost-1.56.0/libboost_thread.so'/>
    <dependency name='build/debug/third_party/gperftools-2.2/libtcmalloc_minimal.so'/>
    <dependency name='build/debug/third_party/libshim_allocator.so'/>
    <dependency name='build/debug/third_party/libshim_boost.so'/>
    <dependency name='build/debug/third_party/libshim_pcrecpp.so'/>
    <dependency name='build/debug/third_party/libshim_tz.so'/>
    <dependency name='build/debug/third_party/libshim_yaml.so'/>
    <dependency name='build/debug/third_party/murmurhash3/libmurmurhash3.so'/>
    <dependency name='build/debug/third_party/pcre-8.37/libpcrecpp.so'/>
    <dependency name='build/debug/third_party/yaml-cpp-0.5.1/libyaml.so'/>
    <dependency name='libssl.so.1.0.0'/>
    <dependency name='libcrypto.so.1.0.0'/>
    <dependency name='librt.so.1'/>
    <dependency name='libdl.so.2'/>
    <dependency name='libstdc++.so.6'/>
    <dependency name='libm.so.6'/>
    <dependency name='libgcc_s.so.1'/>
    <dependency name='libpthread.so.0'/>
    <dependency name='libc.so.6'/>
  </elf-needed>
  <elf-function-symbols>
    <elf-symbol name='_ZN10mongoutils3str6streamC1Ev' type='func-type' binding='weak-binding' visibility='default-visibility' alias='_ZN10mongoutils3str6streamC2Ev' is-defined='yes'/>
    <elf-symbol name='_ZN10mongoutils3str6streamC2Ev' type='func-type' binding='weak-binding' visibility='default-visibility' is-defined='yes'/>
    <elf-symbol name='_ZN10mongoutils3str6streamD1Ev' type='func-type' binding='weak-binding' visibility='default-visibility' alias='_ZN10mongoutils3str6streamD2Ev' is-defined='yes'/>
    <elf-symbol name='_ZN10mongoutils3str6streamD2Ev' type='func-type' binding='weak-binding' visibility='default-visibility' is-defined='yes'/>
    <elf-symbol name='_ZN10mongoutils3str6streamlsIA42_cEERS1_RKT_' type='func-type' binding='weak-binding' visibility='default-visibility' is-defined='yes'/>
    <elf-symbol name='_ZN10mongoutils3str6streamlsIA50_cEERS1_RKT_' type='func-type' binding='weak-binding' visibility='default-visibility' is-defined='yes'/>
    <elf-symbol name='_ZN10mongoutils3str6streamlsIiEERS1_RKT_' type='func-type' binding='weak-binding' visibility='default-visibility' is-defined='yes'/>
    <elf-symbol name='_ZN5boost13intrusive_ptrIN5mongo12SharedBuffer6HolderEEC1Ev' type='func-type' binding='weak-binding' visibility='default-visibility' is-defined='yes'/>
    <elf-symbol name='_ZN5boost13intrusive_ptrIN5mongo12SharedBuffer6HolderEEC2Ev' type='func-type' binding='weak-binding' visibility='default-visibility' alias='_ZN5boost13intrusive_ptrIN5mongo12SharedBuffer6HolderEEC1Ev' is-defined='yes'/>
    <elf-symbol name='_ZN5boost13intrusive_ptrIN5mongo12SharedBuffer6HolderEED1Ev' type='func-type' binding='weak-binding' visibility='default-visibility' is-defined='yes'/>
    <elf-symbol name='_ZN5boost13intrusive_ptrIN5mongo12SharedBuffer6HolderEED2Ev' type='func-type' binding='weak-binding' visibility='default-visibility' alias='_ZN5boost13intrusive_ptrIN5mongo12SharedBuffer6HolderEED1Ev' is-defined='yes'/>
    <elf-symbol name='_ZN5mongo10AtomicWordIjE16fetchAndSubtractEj' type='func-type' binding='weak-binding' visibility='default-visibility' is-defined='yes'/>
    <elf-symbol name='_ZN5mongo10AtomicWordIjE16subtractAndFetchEj' type='func-type' binding='weak-binding' visibility='default-visibility' is-defined='yes'/>
    <elf-symbol name='_ZN5mongo10StringDataC1EPKc' type='func-type' binding='weak-binding' visibility='default-visibility' is-defined='yes'/>
    <elf-symbol name='_ZN5mongo10StringDataC1ERKSs' type='func-type' binding='weak-binding' visibility='default-visibility' is-defined='yes'/>
    <elf-symbol name='_ZN5mongo10StringDataC1Ev' type='func-type' binding='weak-binding' visibility='default-visibility' is-defined='yes'/>
    <elf-symbol name='_ZN5mongo10StringDataC2EPKc' type='func-type' binding='weak-binding' visibility='default-visibility' alias='_ZN5mongo10StringDataC1EPKc' is-defined='yes'/>
    <elf-symbol name='_ZN5mongo10StringDataC2ERKSs' type='func-type' binding='weak-binding' visibility='default-visibility' alias='_ZN5mongo10StringDataC1ERKSs' is-defined='yes'/>
    <elf-symbol name='_ZN5mongo10StringDataC2Ev' type='func-type' binding='weak-binding' visibility='default-visibility' alias='_ZN5mongo10StringDataC1Ev' is-defined='yes'/>
    <elf-symbol name='_ZN5mongo11DBException10addContextERKSs' type='func-type' binding='weak-binding' visibility='default-visibility' is-defined='yes'/>
    <elf-symbol name='_ZN5mongo11DBExceptionC1ERKSsi' type='func-type' binding='weak-binding' visibility='default-visibility' is-defined='yes'/>
    <elf-symbol name='_ZN5mongo11DBExceptionC2ERKSsi' type='func-type' binding='weak-binding' visibility='default-visibility' alias='_ZN5mongo11DBExceptionC1ERKSsi' is-defined='yes'/>
    <elf-symbol name='_ZN5mongo11DBExceptionD0Ev' type='func-type' binding='weak-binding' visibility='default-visibility' is-defined='yes'/>
    <elf-symbol name='_ZN5mongo11DBExceptionD1Ev' type='func-type' binding='weak-binding' visibility='default-visibility' is-defined='yes'/>
    <elf-symbol name='_ZN5mongo11DBExceptionD2Ev' type='func-type' binding='weak-binding' visibility='default-visibility' alias='_ZN5mongo11DBExceptionD1Ev' is-defined='yes'/>
    <elf-symbol name='_ZN5mongo11_BufBuilderINS_16TrivialAllocatorEE12reserveBytesEi' type='func-type' binding='weak-binding' visibility='default-visibility' is-defined='yes'/>
    <elf-symbol name='_ZN5mongo11_BufBuilderINS_16TrivialAllocatorEE13appendNumImplIcEEvT_' type='func-type' binding='weak-binding' visibility='default-visibility' is-defined='yes'/>
    <elf-symbol name='_ZN5mongo11_BufBuilderINS_16TrivialAllocatorEE13appendNumImplIiEEvT_' type='func-type' binding='weak-binding' visibility='default-visibility' is-defined='yes'/>
    <elf-symbol name='_ZN5mongo11_BufBuilderINS_16TrivialAllocatorEE15grow_reallocateEi' type='func-type' binding='weak-binding' visibility='default-visibility' is-defined='yes'/>
    <elf-symbol name='_ZN5mongo11_BufBuilderINS_16TrivialAllocatorEE18claimReservedBytesEi' type='func-type' binding='weak-binding' visibility='default-visibility' is-defined='yes'/>
    <elf-symbol name='_ZN5mongo11_BufBuilderINS_16TrivialAllocatorEE3bufEv' type='func-type' binding='weak-binding' visibility='default-visibility' is-defined='yes'/>
    <elf-symbol name='_ZN5mongo11_BufBuilderINS_16TrivialAllocatorEE4growEi' type='func-type' binding='weak-binding' visibility='default-visibility' is-defined='yes'/>
    <elf-symbol name='_ZN5mongo11_BufBuilderINS_16TrivialAllocatorEE4killEv' type='func-type' binding='weak-binding' visibility='default-visibility' is-defined='yes'/>
    <elf-symbol name='_ZN5mongo11_BufBuilderINS_16TrivialAllocatorEE4skipEi' type='func-type' binding='weak-binding' visibility='default-visibility' is-defined='yes'/>
    <elf-symbol name='_ZN5mongo11_BufBuilderINS_16TrivialAllocatorEE9appendBufEPKvm' type='func-type' binding='weak-binding' visibility='default-visibility' is-defined='yes'/>
    <elf-symbol name='_ZN5mongo11_BufBuilderINS_16TrivialAllocatorEE9appendNumEc' type='func-type' binding='weak-binding' visibility='default-visibility' is-defined='yes'/>
    <elf-symbol name='_ZN5mongo11_BufBuilderINS_16TrivialAllocatorEE9appendNumEi' type='func-type' binding='weak-binding' visibility='default-visibility' is-defined='yes'/>
    <elf-symbol name='_ZN5mongo11_BufBuilderINS_16TrivialAllocatorEE9appendStrENS_10StringDataEb' type='func-type' binding='weak-binding' visibility='default-visibility' is-defined='yes'/>
    <elf-symbol name='_ZN5mongo11_BufBuilderINS_16TrivialAllocatorEEC1Ei' type='func-type' binding='weak-binding' visibility='default-visibility' is-defined='yes'/>
    <elf-symbol name='_ZN5mongo11_BufBuilderINS_16TrivialAllocatorEEC2Ei' type='func-type' binding='weak-binding' visibility='default-visibility' alias='_ZN5mongo11_BufBuilderINS_16TrivialAllocatorEEC1Ei' is-defined='yes'/>
    <elf-symbol name='_ZN5mongo11_BufBuilderINS_16TrivialAllocatorEED1Ev' type='func-type' binding='weak-binding' visibility='default-visibility' is-defined='yes'/>
    <elf-symbol name='_ZN5mongo11_BufBuilderINS_16TrivialAllocatorEED2Ev' type='func-type' binding='weak-binding' visibility='default-visibility' alias='_ZN5mongo11_BufBuilderINS_16TrivialAllocatorEED1Ev' is-defined='yes'/>
    <elf-symbol name='_ZN5mongo12LittleEndianIcEC1Ec' type='func-type' binding='weak-binding' visibility='default-visibility' is-defined='yes'/>
    <elf-symbol name='_ZN5mongo12LittleEndianIcEC2Ec' type='func-type' binding='weak-binding' visibility='default-visibility' alias='_ZN5mongo12LittleEndianIcEC1Ec' is-defined='yes'/>
    <elf-symbol name='_ZN5mongo12LittleEndianIiEC1Ei' type='func-type' binding='weak-binding' visibility='default-visibility' is-defined='yes'/>
    <elf-symbol name='_ZN5mongo12LittleEndianIiEC2Ei' type='func-type' binding='weak-binding' visibility='default-visibility' alias='_ZN5mongo12LittleEndianIiEC1Ei' is-defined='yes'/>
    <elf-symbol name='_ZN5mongo12SharedBufferC1Ev' type='func-type' binding='weak-binding' visibility='default-visibility' is-defined='yes'/>
    <elf-symbol name='_ZN5mongo12SharedBufferC2Ev' type='func-type' binding='weak-binding' visibility='default-visibility' alias='_ZN5mongo12SharedBufferC1Ev' is-defined='yes'/>
    <elf-symbol name='_ZN5mongo12SharedBufferD1Ev' type='func-type' binding='weak-binding' visibility='default-visibility' alias='_ZN5mongo12SharedBufferD2Ev' is-defined='yes'/>
    <elf-symbol name='_ZN5mongo12SharedBufferD2Ev' type='func-type' binding='weak-binding' visibility='default-visibility' is-defined='yes'/>
    <elf-symbol name='_ZN5mongo13ConstDataViewC1EPKc' type='func-type' binding='weak-binding' visibility='default-visibility' is-defined='yes'/>
    <elf-symbol name='_ZN5mongo13ConstDataViewC2EPKc' type='func-type' binding='weak-binding' visibility='default-visibility' alias='_ZN5mongo13ConstDataViewC1EPKc' is-defined='yes'/>
    <elf-symbol name='_ZN5mongo13ExceptionInfoC1ERKSsi' type='func-type' binding='weak-binding' visibility='default-visibility' is-defined='yes'/>
    <elf-symbol name='_ZN5mongo13ExceptionInfoC2ERKSsi' type='func-type' binding='weak-binding' visibility='default-visibility' alias='_ZN5mongo13ExceptionInfoC1ERKSsi' is-defined='yes'/>
    <elf-symbol name='_ZN5mongo13ExceptionInfoD1Ev' type='func-type' binding='weak-binding' visibility='default-visibility' alias='_ZN5mongo13ExceptionInfoD2Ev' is-defined='yes'/>
    <elf-symbol name='_ZN5mongo13ExceptionInfoD2Ev' type='func-type' binding='weak-binding' visibility='default-visibility' is-defined='yes'/>
    <elf-symbol name='_ZN5mongo14BSONObjBuilder11appendArrayENS_10StringDataERKNS_7BSONObjE' type='func-type' binding='weak-binding' visibility='default-visibility' is-defined='yes'/>
    <elf-symbol name='_ZN5mongo14BSONObjBuilder4doneEv' type='func-type' binding='weak-binding' visibility='default-visibility' is-defined='yes'/>
    <elf-symbol name='_ZN5mongo14BSONObjBuilder5_doneEv' type='func-type' binding='weak-binding' visibility='default-visibility' is-defined='yes'/>
    <elf-symbol name='_ZN5mongo14BSONObjBuilder6appendENS_10StringDataEPKci' type='func-type' binding='weak-binding' visibility='default-visibility' is-defined='yes'/>
    <elf-symbol name='_ZN5mongo14BSONObjBuilder6appendENS_10StringDataERKSs' type='func-type' binding='weak-binding' visibility='default-visibility' is-defined='yes'/>
    <elf-symbol name='_ZN5mongo14BSONObjBuilder6appendENS_10StringDataEi' type='func-type' binding='weak-binding' visibility='default-visibility' is-defined='yes'/>
    <elf-symbol name='_ZN5mongo14BSONObjBuilder6appendISsEERS0_NS_10StringDataERKSt6vectorIT_SaIS5_EE' type='func-type' binding='weak-binding' visibility='default-visibility' is-defined='yes'/>
    <elf-symbol name='_ZN5mongo14BSONObjBuilder6numStrEi' type='func-type' binding='weak-binding' visibility='default-visibility' is-defined='yes'/>
    <elf-symbol name='_ZN5mongo14BSONObjBuilderC1Ei' type='func-type' binding='weak-binding' visibility='default-visibility' is-defined='yes'/>
    <elf-symbol name='_ZN5mongo14BSONObjBuilderC2Ei' type='func-type' binding='weak-binding' visibility='default-visibility' alias='_ZN5mongo14BSONObjBuilderC1Ei' is-defined='yes'/>
    <elf-symbol name='_ZN5mongo14BSONObjBuilderD1Ev' type='func-type' binding='weak-binding' visibility='default-visibility' is-defined='yes'/>
    <elf-symbol name='_ZN5mongo14BSONObjBuilderD2Ev' type='func-type' binding='weak-binding' visibility='default-visibility' alias='_ZN5mongo14BSONObjBuilderD1Ev' is-defined='yes'/>
    <elf-symbol name='_ZN5mongo14addSASLOptionsEPNS_17optionenvironment13OptionSectionE' type='func-type' binding='global-binding' visibility='default-visibility' is-defined='yes'/>
    <elf-symbol name='_ZN5mongo15BSONSizeTracker3gotEi' type='func-type' binding='weak-binding' visibility='default-visibility' is-defined='yes'/>
    <elf-symbol name='_ZN5mongo15tagLittleEndianIcEENS_12LittleEndianIT_EES2_' type='func-type' binding='weak-binding' visibility='default-visibility' is-defined='yes'/>
    <elf-symbol name='_ZN5mongo15tagLittleEndianIiEENS_12LittleEndianIT_EES2_' type='func-type' binding='weak-binding' visibility='default-visibility' is-defined='yes'/>
    <elf-symbol name='_ZN5mongo16SASLGlobalParamsC1Ev' type='func-type' binding='global-binding' visibility='default-visibility' is-defined='yes'/>
    <elf-symbol name='_ZN5mongo16SASLGlobalParamsC2Ev' type='func-type' binding='global-binding' visibility='default-visibility' alias='_ZN5mongo16SASLGlobalParamsC1Ev' is-defined='yes'/>
    <elf-symbol name='_ZN5mongo16SASLGlobalParamsD1Ev' type='func-type' binding='weak-binding' visibility='default-visibility' alias='_ZN5mongo16SASLGlobalParamsD2Ev' is-defined='yes'/>
    <elf-symbol name='_ZN5mongo16SASLGlobalParamsD2Ev' type='func-type' binding='weak-binding' visibility='default-visibility' is-defined='yes'/>
    <elf-symbol name='_ZN5mongo16TrivialAllocator4FreeEPv' type='func-type' binding='weak-binding' visibility='default-visibility' is-defined='yes'/>
    <elf-symbol name='_ZN5mongo16TrivialAllocator6MallocEm' type='func-type' binding='weak-binding' visibility='default-visibility' is-defined='yes'/>
    <elf-symbol name='_ZN5mongo16TrivialAllocator7ReallocEPvm' type='func-type' binding='weak-binding' visibility='default-visibility' is-defined='yes'/>
    <elf-symbol name='_ZN5mongo16storeSASLOptionsERKNS_17optionenvironment11EnvironmentE' type='func-type' binding='global-binding' visibility='default-visibility' is-defined='yes'/>
    <elf-symbol name='_ZN5mongo17StringBuilderImplINS_16TrivialAllocatorEE5SBNUMIiEERS2_T_iPKc' type='func-type' binding='weak-binding' visibility='default-visibility' is-defined='yes'/>
    <elf-symbol name='_ZN5mongo17StringBuilderImplINS_16TrivialAllocatorEE6appendENS_10StringDataE' type='func-type' binding='weak-binding' visibility='default-visibility' is-defined='yes'/>
    <elf-symbol name='_ZN5mongo17StringBuilderImplINS_16TrivialAllocatorEEC1Ev' type='func-type' binding='weak-binding' visibility='default-visibility' is-defined='yes'/>
    <elf-symbol name='_ZN5mongo17StringBuilderImplINS_16TrivialAllocatorEEC2Ev' type='func-type' binding='weak-binding' visibility='default-visibility' alias='_ZN5mongo17StringBuilderImplINS_16TrivialAllocatorEEC1Ev' is-defined='yes'/>
    <elf-symbol name='_ZN5mongo17StringBuilderImplINS_16TrivialAllocatorEED1Ev' type='func-type' binding='weak-binding' visibility='default-visibility' alias='_ZN5mongo17StringBuilderImplINS_16TrivialAllocatorEED2Ev' is-defined='yes'/>
    <elf-symbol name='_ZN5mongo17StringBuilderImplINS_16TrivialAllocatorEED2Ev' type='func-type' binding='weak-binding' visibility='default-visibility' is-defined='yes'/>
    <elf-symbol name='_ZN5mongo17StringBuilderImplINS_16TrivialAllocatorEElsENS_10StringDataE' type='func-type' binding='weak-binding' visibility='default-visibility' is-defined='yes'/>
    <elf-symbol name='_ZN5mongo17StringBuilderImplINS_16TrivialAllocatorEElsEPKc' type='func-type' binding='weak-binding' visibility='default-visibility' is-defined='yes'/>
    <elf-symbol name='_ZN5mongo17StringBuilderImplINS_16TrivialAllocatorEElsEi' type='func-type' binding='weak-binding' visibility='default-visibility' is-defined='yes'/>
    <elf-symbol name='_ZN5mongo17optionenvironment13OptionSectionC1ERKSs' type='func-type' binding='weak-binding' visibility='default-visibility' is-defined='yes'/>
    <elf-symbol name='_ZN5mongo17optionenvironment13OptionSectionC2ERKSs' type='func-type' binding='weak-binding' visibility='default-visibility' alias='_ZN5mongo17optionenvironment13OptionSectionC1ERKSs' is-defined='yes'/>
    <elf-symbol name='_ZN5mongo17optionenvironment13OptionSectionD1Ev' type='func-type' binding='weak-binding' visibility='default-visibility' alias='_ZN5mongo17optionenvironment13OptionSectionD2Ev' is-defined='yes'/>
    <elf-symbol name='_ZN5mongo17optionenvironment13OptionSectionD2Ev' type='func-type' binding='weak-binding' visibility='default-visibility' is-defined='yes'/>
    <elf-symbol name='_ZN5mongo17optionenvironment17OptionDescriptionD1Ev' type='func-type' binding='weak-binding' visibility='default-visibility' alias='_ZN5mongo17optionenvironment17OptionDescriptionD2Ev' is-defined='yes'/>
    <elf-symbol name='_ZN5mongo17optionenvironment17OptionDescriptionD2Ev' type='func-type' binding='weak-binding' visibility='default-visibility' is-defined='yes'/>
    <elf-symbol name='_ZN5mongo17optionenvironment5ValueD1Ev' type='func-type' binding='weak-binding' visibility='default-visibility' alias='_ZN5mongo17optionenvironment5ValueD2Ev' is-defined='yes'/>
    <elf-symbol name='_ZN5mongo17optionenvironment5ValueD2Ev' type='func-type' binding='weak-binding' visibility='default-visibility' is-defined='yes'/>
    <elf-symbol name='_ZN5mongo18AssertionExceptionC1ERKSsi' type='func-type' binding='weak-binding' visibility='default-visibility' is-defined='yes'/>
    <elf-symbol name='_ZN5mongo18AssertionExceptionC2ERKSsi' type='func-type' binding='weak-binding' visibility='default-visibility' alias='_ZN5mongo18AssertionExceptionC1ERKSsi' is-defined='yes'/>
    <elf-symbol name='_ZN5mongo18AssertionExceptionD0Ev' type='func-type' binding='weak-binding' visibility='default-visibility' is-defined='yes'/>
    <elf-symbol name='_ZN5mongo18AssertionExceptionD1Ev' type='func-type' binding='weak-binding' visibility='default-visibility' is-defined='yes'/>
    <elf-symbol name='_ZN5mongo18AssertionExceptionD2Ev' type='func-type' binding='weak-binding' visibility='default-visibility' alias='_ZN5mongo18AssertionExceptionD1Ev' is-defined='yes'/>
    <elf-symbol name='_ZN5mongo21MsgAssertionExceptionC1EiRKSs' type='func-type' binding='weak-binding' visibility='default-visibility' is-defined='yes'/>
    <elf-symbol name='_ZN5mongo21MsgAssertionExceptionC2EiRKSs' type='func-type' binding='weak-binding' visibility='default-visibility' alias='_ZN5mongo21MsgAssertionExceptionC1EiRKSs' is-defined='yes'/>
    <elf-symbol name='_ZN5mongo21MsgAssertionExceptionD0Ev' type='func-type' binding='weak-binding' visibility='default-visibility' is-defined='yes'/>
    <elf-symbol name='_ZN5mongo21MsgAssertionExceptionD1Ev' type='func-type' binding='weak-binding' visibility='default-visibility' alias='_ZN5mongo21MsgAssertionExceptionD2Ev' is-defined='yes'/>
    <elf-symbol name='_ZN5mongo21MsgAssertionExceptionD2Ev' type='func-type' binding='weak-binding' visibility='default-visibility' is-defined='yes'/>
    <elf-symbol name='_ZN5mongo21intrusive_ptr_releaseEPNS_12SharedBuffer6HolderE' type='func-type' binding='weak-binding' visibility='default-visibility' is-defined='yes'/>
    <elf-symbol name='_ZN5mongo23ExportedServerParameterISsE3setERKNS_11BSONElementE' type='func-type' binding='weak-binding' visibility='default-visibility' is-defined='yes'/>
    <elf-symbol name='_ZN5mongo23ExportedServerParameterISsE3setERKSs' type='func-type' binding='weak-binding' visibility='default-visibility' is-defined='yes'/>
    <elf-symbol name='_ZN5mongo23ExportedServerParameterISsE6appendEPNS_16OperationContextERNS_14BSONObjBuilderERKSs' type='func-type' binding='weak-binding' visibility='default-visibility' is-defined='yes'/>
    <elf-symbol name='_ZN5mongo23ExportedServerParameterISsE8validateERKSs' type='func-type' binding='weak-binding' visibility='default-visibility' is-defined='yes'/>
    <elf-symbol name='_ZN5mongo23ExportedServerParameterISsEC1EPNS_18ServerParameterSetERKSsPSsbb' type='func-type' binding='weak-binding' visibility='default-visibility' is-defined='yes'/>
    <elf-symbol name='_ZN5mongo23ExportedServerParameterISsEC2EPNS_18ServerParameterSetERKSsPSsbb' type='func-type' binding='weak-binding' visibility='default-visibility' alias='_ZN5mongo23ExportedServerParameterISsEC1EPNS_18ServerParameterSetERKSsPSsbb' is-defined='yes'/>
    <elf-symbol name='_ZN5mongo23ExportedServerParameterISsED0Ev' type='func-type' binding='weak-binding' visibility='default-visibility' is-defined='yes'/>
    <elf-symbol name='_ZN5mongo23ExportedServerParameterISsED1Ev' type='func-type' binding='weak-binding' visibility='default-visibility' is-defined='yes'/>
    <elf-symbol name='_ZN5mongo23ExportedServerParameterISsED2Ev' type='func-type' binding='weak-binding' visibility='default-visibility' alias='_ZN5mongo23ExportedServerParameterISsED1Ev' is-defined='yes'/>
    <elf-symbol name='_ZN5mongo23ExportedServerParameterISt6vectorISsSaISsEEE3setERKNS_11BSONElementE' type='func-type' binding='weak-binding' visibility='default-visibility' is-defined='yes'/>
    <elf-symbol name='_ZN5mongo23ExportedServerParameterISt6vectorISsSaISsEEE3setERKS3_' type='func-type' binding='weak-binding' visibility='default-visibility' is-defined='yes'/>
    <elf-symbol name='_ZN5mongo23ExportedServerParameterISt6vectorISsSaISsEEE6appendEPNS_16OperationContextERNS_14BSONObjBuilderERKSs' type='func-type' binding='weak-binding' visibility='default-visibility' is-defined='yes'/>
    <elf-symbol name='_ZN5mongo23ExportedServerParameterISt6vectorISsSaISsEEE8validateERKS3_' type='func-type' binding='weak-binding' visibility='default-visibility' is-defined='yes'/>
    <elf-symbol name='_ZN5mongo23ExportedServerParameterISt6vectorISsSaISsEEEC1EPNS_18ServerParameterSetERKSsPS3_bb' type='func-type' binding='weak-binding' visibility='default-visibility' is-defined='yes'/>
    <elf-symbol name='_ZN5mongo23ExportedServerParameterISt6vectorISsSaISsEEEC2EPNS_18ServerParameterSetERKSsPS3_bb' type='func-type' binding='weak-binding' visibility='default-visibility' alias='_ZN5mongo23ExportedServerParameterISt6vectorISsSaISsEEEC1EPNS_18ServerParameterSetERKSsPS3_bb' is-defined='yes'/>
    <elf-symbol name='_ZN5mongo23ExportedServerParameterISt6vectorISsSaISsEEED0Ev' type='func-type' binding='weak-binding' visibility='default-visibility' is-defined='yes'/>
    <elf-symbol name='_ZN5mongo23ExportedServerParameterISt6vectorISsSaISsEEED1Ev' type='func-type' binding='weak-binding' visibility='default-visibility' is-defined='yes'/>
    <elf-symbol name='_ZN5mongo23ExportedServerParameterISt6vectorISsSaISsEEED2Ev' type='func-type' binding='weak-binding' visibility='default-visibility' alias='_ZN5mongo23ExportedServerParameterISt6vectorISsSaISsEEED1Ev' is-defined='yes'/>
    <elf-symbol name='_ZN5mongo23ExportedServerParameterIiE3setERKNS_11BSONElementE' type='func-type' binding='weak-binding' visibility='default-visibility' is-defined='yes'/>
    <elf-symbol name='_ZN5mongo23ExportedServerParameterIiE3setERKi' type='func-type' binding='weak-binding' visibility='default-visibility' is-defined='yes'/>
    <elf-symbol name='_ZN5mongo23ExportedServerParameterIiE6appendEPNS_16OperationContextERNS_14BSONObjBuilderERKSs' type='func-type' binding='weak-binding' visibility='default-visibility' is-defined='yes'/>
    <elf-symbol name='_ZN5mongo23ExportedServerParameterIiE8validateERKi' type='func-type' binding='weak-binding' visibility='default-visibility' is-defined='yes'/>
    <elf-symbol name='_ZN5mongo23ExportedServerParameterIiEC1EPNS_18ServerParameterSetERKSsPibb' type='func-type' binding='weak-binding' visibility='default-visibility' is-defined='yes'/>
    <elf-symbol name='_ZN5mongo23ExportedServerParameterIiEC2EPNS_18ServerParameterSetERKSsPibb' type='func-type' binding='weak-binding' visibility='default-visibility' alias='_ZN5mongo23ExportedServerParameterIiEC1EPNS_18ServerParameterSetERKSsPibb' is-defined='yes'/>
    <elf-symbol name='_ZN5mongo23ExportedServerParameterIiED0Ev' type='func-type' binding='weak-binding' visibility='default-visibility' is-defined='yes'/>
    <elf-symbol name='_ZN5mongo23ExportedServerParameterIiED1Ev' type='func-type' binding='weak-binding' visibility='default-visibility' is-defined='yes'/>
    <elf-symbol name='_ZN5mongo23ExportedServerParameterIiED2Ev' type='func-type' binding='weak-binding' visibility='default-visibility' alias='_ZN5mongo23ExportedServerParameterIiED1Ev' is-defined='yes'/>
    <elf-symbol name='_ZN5mongo25BSONObjBuilderValueStreamD1Ev' type='func-type' binding='weak-binding' visibility='default-visibility' alias='_ZN5mongo25BSONObjBuilderValueStreamD2Ev' is-defined='yes'/>
    <elf-symbol name='_ZN5mongo25BSONObjBuilderValueStreamD2Ev' type='func-type' binding='weak-binding' visibility='default-visibility' is-defined='yes'/>
    <elf-symbol name='_ZN5mongo36ExportedScramIterationCountParameter8validateERKi' type='func-type' binding='weak-binding' visibility='default-visibility' is-defined='yes'/>
    <elf-symbol name='_ZN5mongo36ExportedScramIterationCountParameterC1Ev' type='func-type' binding='weak-binding' visibility='default-visibility' is-defined='yes'/>
    <elf-symbol name='_ZN5mongo36ExportedScramIterationCountParameterC2Ev' type='func-type' binding='weak-binding' visibility='default-visibility' alias='_ZN5mongo36ExportedScramIterationCountParameterC1Ev' is-defined='yes'/>
    <elf-symbol name='_ZN5mongo36ExportedScramIterationCountParameterD0Ev' type='func-type' binding='weak-binding' visibility='default-visibility' is-defined='yes'/>
    <elf-symbol name='_ZN5mongo36ExportedScramIterationCountParameterD1Ev' type='func-type' binding='weak-binding' visibility='default-visibility' is-defined='yes'/>
    <elf-symbol name='_ZN5mongo36ExportedScramIterationCountParameterD2Ev' type='func-type' binding='weak-binding' visibility='default-visibility' alias='_ZN5mongo36ExportedScramIterationCountParameterD1Ev' is-defined='yes'/>
    <elf-symbol name='_ZN5mongo43_mongoInitializerFunction_SASLOptions_StoreEPNS_18InitializerContextE' type='func-type' binding='global-binding' visibility='default-visibility' is-defined='yes'/>
    <elf-symbol name='_ZN5mongo46_mongoInitializerFunction_SASLOptions_RegisterEPNS_18InitializerContextE' type='func-type' binding='global-binding' visibility='default-visibility' is-defined='yes'/>
    <elf-symbol name='_ZN5mongo6Status2OKEv' type='func-type' binding='weak-binding' visibility='default-visibility' is-defined='yes'/>
    <elf-symbol name='_ZN5mongo6Status5unrefEPNS0_9ErrorInfoE' type='func-type' binding='weak-binding' visibility='default-visibility' is-defined='yes'/>
    <elf-symbol name='_ZN5mongo6Status9ErrorInfoD1Ev' type='func-type' binding='weak-binding' visibility='default-visibility' alias='_ZN5mongo6Status9ErrorInfoD2Ev' is-defined='yes'/>
    <elf-symbol name='_ZN5mongo6Status9ErrorInfoD2Ev' type='func-type' binding='weak-binding' visibility='default-visibility' is-defined='yes'/>
    <elf-symbol name='_ZN5mongo6StatusC1EOS0_' type='func-type' binding='weak-binding' visibility='default-visibility' is-defined='yes'/>
    <elf-symbol name='_ZN5mongo6StatusC1Ev' type='func-type' binding='weak-binding' visibility='default-visibility' is-defined='yes'/>
    <elf-symbol name='_ZN5mongo6StatusC2EOS0_' type='func-type' binding='weak-binding' visibility='default-visibility' alias='_ZN5mongo6StatusC1EOS0_' is-defined='yes'/>
    <elf-symbol name='_ZN5mongo6StatusC2Ev' type='func-type' binding='weak-binding' visibility='default-visibility' alias='_ZN5mongo6StatusC1Ev' is-defined='yes'/>
    <elf-symbol name='_ZN5mongo6StatusD1Ev' type='func-type' binding='weak-binding' visibility='default-visibility' is-defined='yes'/>
    <elf-symbol name='_ZN5mongo6StatusD2Ev' type='func-type' binding='weak-binding' visibility='default-visibility' alias='_ZN5mongo6StatusD1Ev' is-defined='yes'/>
    <elf-symbol name='_ZN5mongo6endian14littleToNativeIiEET_S2_' type='func-type' binding='weak-binding' visibility='default-visibility' is-defined='yes'/>
    <elf-symbol name='_ZN5mongo6endian14nativeToLittleIcEET_S2_' type='func-type' binding='weak-binding' visibility='default-visibility' is-defined='yes'/>
    <elf-symbol name='_ZN5mongo6endian14nativeToLittleIiEET_S2_' type='func-type' binding='weak-binding' visibility='default-visibility' is-defined='yes'/>
    <elf-symbol name='_ZN5mongo6endian18ByteOrderConverterIaE14nativeToLittleEa' type='func-type' binding='weak-binding' visibility='default-visibility' is-defined='yes'/>
    <elf-symbol name='_ZN5mongo6endian18ByteOrderConverterIiE14littleToNativeEi' type='func-type' binding='weak-binding' visibility='default-visibility' is-defined='yes'/>
    <elf-symbol name='_ZN5mongo6endian18ByteOrderConverterIiE14nativeToLittleEi' type='func-type' binding='weak-binding' visibility='default-visibility' is-defined='yes'/>
    <elf-symbol name='_ZN5mongo6logger10LogManager15getGlobalDomainEv' type='func-type' binding='weak-binding' visibility='default-visibility' is-defined='yes'/>
    <elf-symbol name='_ZN5mongo6logger11LogSeverity3LogEv' type='func-type' binding='weak-binding' visibility='default-visibility' is-defined='yes'/>
    <elf-symbol name='_ZN5mongo6logger11LogSeverityC1Ei' type='func-type' binding='weak-binding' visibility='default-visibility' is-defined='yes'/>
    <elf-symbol name='_ZN5mongo6logger11LogSeverityC2Ei' type='func-type' binding='weak-binding' visibility='default-visibility' alias='_ZN5mongo6logger11LogSeverityC1Ei' is-defined='yes'/>
    <elf-symbol name='_ZN5mongo6logger12LogComponentC1ENS1_5ValueE' type='func-type' binding='weak-binding' visibility='default-visibility' is-defined='yes'/>
    <elf-symbol name='_ZN5mongo6logger12LogComponentC2ENS1_5ValueE' type='func-type' binding='weak-binding' visibility='default-visibility' alias='_ZN5mongo6logger12LogComponentC1ENS1_5ValueE' is-defined='yes'/>
    <elf-symbol name='_ZN5mongo6logger15globalLogDomainEv' type='func-type' binding='weak-binding' visibility='default-visibility' is-defined='yes'/>
    <elf-symbol name='_ZN5mongo6logger16LogstreamBuilder6streamEv' type='func-type' binding='weak-binding' visibility='default-visibility' is-defined='yes'/>
    <elf-symbol name='_ZN5mongo6logger16LogstreamBuilderlsEPKc' type='func-type' binding='weak-binding' visibility='default-visibility' is-defined='yes'/>
    <elf-symbol name='_ZN5mongo6logger16LogstreamBuilderlsERKSs' type='func-type' binding='weak-binding' visibility='default-visibility' is-defined='yes'/>
    <elf-symbol name='_ZN5mongo7BSONObj4initEPKc' type='func-type' binding='weak-binding' visibility='default-visibility' is-defined='yes'/>
    <elf-symbol name='_ZN5mongo7BSONObjC1EPKc' type='func-type' binding='weak-binding' visibility='default-visibility' is-defined='yes'/>
    <elf-symbol name='_ZN5mongo7BSONObjC2EPKc' type='func-type' binding='weak-binding' visibility='default-visibility' alias='_ZN5mongo7BSONObjC1EPKc' is-defined='yes'/>
    <elf-symbol name='_ZN5mongo7BSONObjD1Ev' type='func-type' binding='weak-binding' visibility='default-visibility' alias='_ZN5mongo7BSONObjD2Ev' is-defined='yes'/>
    <elf-symbol name='_ZN5mongo7BSONObjD2Ev' type='func-type' binding='weak-binding' visibility='default-visibility' is-defined='yes'/>
    <elf-symbol name='_ZN5mongo8DataType10unsafeLoadINS_12LittleEndianIiEEEEvPT_PKcPm' type='func-type' binding='weak-binding' visibility='default-visibility' is-defined='yes'/>
    <elf-symbol name='_ZN5mongo8DataType10unsafeLoadIiEEvPT_PKcPm' type='func-type' binding='weak-binding' visibility='default-visibility' is-defined='yes'/>
    <elf-symbol name='_ZN5mongo8DataType11unsafeStoreINS_12LittleEndianIcEEEEvRKT_PcPm' type='func-type' binding='weak-binding' visibility='default-visibility' is-defined='yes'/>
    <elf-symbol name='_ZN5mongo8DataType11unsafeStoreINS_12LittleEndianIiEEEEvRKT_PcPm' type='func-type' binding='weak-binding' visibility='default-visibility' is-defined='yes'/>
    <elf-symbol name='_ZN5mongo8DataType11unsafeStoreIcEEvRKT_PcPm' type='func-type' binding='weak-binding' visibility='default-visibility' is-defined='yes'/>
    <elf-symbol name='_ZN5mongo8DataType11unsafeStoreIiEEvRKT_PcPm' type='func-type' binding='weak-binding' visibility='default-visibility' is-defined='yes'/>
    <elf-symbol name='_ZN5mongo8DataType16defaultConstructINS_12LittleEndianIiEEEET_v' type='func-type' binding='weak-binding' visibility='default-visibility' is-defined='yes'/>
    <elf-symbol name='_ZN5mongo8DataType16defaultConstructIiEET_v' type='func-type' binding='weak-binding' visibility='default-visibility' is-defined='yes'/>
    <elf-symbol name='_ZN5mongo8DataType7HandlerINS_12LittleEndianIcEEvE11unsafeStoreERKS3_PcPm' type='func-type' binding='weak-binding' visibility='default-visibility' is-defined='yes'/>
    <elf-symbol name='_ZN5mongo8DataType7HandlerINS_12LittleEndianIiEEvE10unsafeLoadEPS3_PKcPm' type='func-type' binding='weak-binding' visibility='default-visibility' is-defined='yes'/>
    <elf-symbol name='_ZN5mongo8DataType7HandlerINS_12LittleEndianIiEEvE11unsafeStoreERKS3_PcPm' type='func-type' binding='weak-binding' visibility='default-visibility' is-defined='yes'/>
    <elf-symbol name='_ZN5mongo8DataType7HandlerINS_12LittleEndianIiEEvE16defaultConstructEv' type='func-type' binding='weak-binding' visibility='default-visibility' is-defined='yes'/>
    <elf-symbol name='_ZN5mongo8DataType7HandlerIcvE11unsafeStoreERKcPcPm' type='func-type' binding='weak-binding' visibility='default-visibility' is-defined='yes'/>
    <elf-symbol name='_ZN5mongo8DataType7HandlerIivE10unsafeLoadEPiPKcPm' type='func-type' binding='weak-binding' visibility='default-visibility' is-defined='yes'/>
    <elf-symbol name='_ZN5mongo8DataType7HandlerIivE11unsafeStoreERKiPcPm' type='func-type' binding='weak-binding' visibility='default-visibility' is-defined='yes'/>
    <elf-symbol name='_ZN5mongo8DataType7HandlerIivE16defaultConstructEv' type='func-type' binding='weak-binding' visibility='default-visibility' is-defined='yes'/>
    <elf-symbol name='_ZN5mongo8DataView5writeINS_12LittleEndianIcEEEERS0_RKT_m' type='func-type' binding='weak-binding' visibility='default-visibility' is-defined='yes'/>
    <elf-symbol name='_ZN5mongo8DataView5writeINS_12LittleEndianIiEEEERS0_RKT_m' type='func-type' binding='weak-binding' visibility='default-visibility' is-defined='yes'/>
    <elf-symbol name='_ZN5mongo8DataViewC1EPc' type='func-type' binding='weak-binding' visibility='default-visibility' is-defined='yes'/>
    <elf-symbol name='_ZN5mongo8DataViewC2EPc' type='func-type' binding='weak-binding' visibility='default-visibility' alias='_ZN5mongo8DataViewC1EPc' is-defined='yes'/>
    <elf-symbol name='_ZN9__gnu_cxx13new_allocatorISsE10deallocateEPSsm' type='func-type' binding='weak-binding' visibility='default-visibility' is-defined='yes'/>
    <elf-symbol name='_ZN9__gnu_cxx13new_allocatorISsE7destroyISsEEvPT_' type='func-type' binding='weak-binding' visibility='default-visibility' is-defined='yes'/>
    <elf-symbol name='_ZN9__gnu_cxx13new_allocatorISsE8allocateEmPKv' type='func-type' binding='weak-binding' visibility='default-visibility' is-defined='yes'/>
    <elf-symbol name='_ZN9__gnu_cxx13new_allocatorISsE9constructISsISsEEEvPT_DpOT0_' type='func-type' binding='weak-binding' visibility='default-visibility' alias='_ZN9__gnu_cxx13new_allocatorISsE9constructISsJSsEEEvPT_DpOT0_' is-defined='yes'/>
    <elf-symbol name='_ZN9__gnu_cxx13new_allocatorISsE9constructISsJSsEEEvPT_DpOT0_' type='func-type' binding='weak-binding' visibility='default-visibility' is-defined='yes'/>
    <elf-symbol name='_ZN9__gnu_cxx13new_allocatorISsEC1ERKS1_' type='func-type' binding='weak-binding' visibility='default-visibility' is-defined='yes'/>
    <elf-symbol name='_ZN9__gnu_cxx13new_allocatorISsEC1Ev' type='func-type' binding='weak-binding' visibility='default-visibility' is-defined='yes'/>
    <elf-symbol name='_ZN9__gnu_cxx13new_allocatorISsEC2ERKS1_' type='func-type' binding='weak-binding' visibility='default-visibility' alias='_ZN9__gnu_cxx13new_allocatorISsEC1ERKS1_' is-defined='yes'/>
    <elf-symbol name='_ZN9__gnu_cxx13new_allocatorISsEC2Ev' type='func-type' binding='weak-binding' visibility='default-visibility' alias='_ZN9__gnu_cxx13new_allocatorISsEC1Ev' is-defined='yes'/>
    <elf-symbol name='_ZN9__gnu_cxx13new_allocatorISsED1Ev' type='func-type' binding='weak-binding' visibility='default-visibility' is-defined='yes'/>
    <elf-symbol name='_ZN9__gnu_cxx13new_allocatorISsED2Ev' type='func-type' binding='weak-binding' visibility='default-visibility' alias='_ZN9__gnu_cxx13new_allocatorISsED1Ev' is-defined='yes'/>
    <elf-symbol name='_ZN9__gnu_cxx13new_allocatorISt10_List_nodeIN5mongo17optionenvironment13OptionSectionEEE10deallocateEPS5_m' type='func-type' binding='weak-binding' visibility='default-visibility' is-defined='yes'/>
    <elf-symbol name='_ZN9__gnu_cxx13new_allocatorISt10_List_nodeIN5mongo17optionenvironment13OptionSectionEEE7destroyIS5_EEvPT_' type='func-type' binding='weak-binding' visibility='default-visibility' is-defined='yes'/>
    <elf-symbol name='_ZN9__gnu_cxx13new_allocatorISt10_List_nodeIN5mongo17optionenvironment13OptionSectionEEEC1Ev' type='func-type' binding='weak-binding' visibility='default-visibility' is-defined='yes'/>
    <elf-symbol name='_ZN9__gnu_cxx13new_allocatorISt10_List_nodeIN5mongo17optionenvironment13OptionSectionEEEC2Ev' type='func-type' binding='weak-binding' visibility='default-visibility' alias='_ZN9__gnu_cxx13new_allocatorISt10_List_nodeIN5mongo17optionenvironment13OptionSectionEEEC1Ev' is-defined='yes'/>
    <elf-symbol name='_ZN9__gnu_cxx13new_allocatorISt10_List_nodeIN5mongo17optionenvironment13OptionSectionEEED1Ev' type='func-type' binding='weak-binding' visibility='default-visibility' is-defined='yes'/>
    <elf-symbol name='_ZN9__gnu_cxx13new_allocatorISt10_List_nodeIN5mongo17optionenvironment13OptionSectionEEED2Ev' type='func-type' binding='weak-binding' visibility='default-visibility' alias='_ZN9__gnu_cxx13new_allocatorISt10_List_nodeIN5mongo17optionenvironment13OptionSectionEEED1Ev' is-defined='yes'/>
    <elf-symbol name='_ZN9__gnu_cxx13new_allocatorISt10_List_nodeIN5mongo17optionenvironment17OptionDescriptionEEE10deallocateEPS5_m' type='func-type' binding='weak-binding' visibility='default-visibility' is-defined='yes'/>
    <elf-symbol name='_ZN9__gnu_cxx13new_allocatorISt10_List_nodeIN5mongo17optionenvironment17OptionDescriptionEEE7destroyIS5_EEvPT_' type='func-type' binding='weak-binding' visibility='default-visibility' is-defined='yes'/>
    <elf-symbol name='_ZN9__gnu_cxx13new_allocatorISt10_List_nodeIN5mongo17optionenvironment17OptionDescriptionEEEC1Ev' type='func-type' binding='weak-binding' visibility='default-visibility' is-defined='yes'/>
    <elf-symbol name='_ZN9__gnu_cxx13new_allocatorISt10_List_nodeIN5mongo17optionenvironment17OptionDescriptionEEEC2Ev' type='func-type' binding='weak-binding' visibility='default-visibility' alias='_ZN9__gnu_cxx13new_allocatorISt10_List_nodeIN5mongo17optionenvironment17OptionDescriptionEEEC1Ev' is-defined='yes'/>
    <elf-symbol name='_ZN9__gnu_cxx13new_allocatorISt10_List_nodeIN5mongo17optionenvironment17OptionDescriptionEEED1Ev' type='func-type' binding='weak-binding' visibility='default-visibility' is-defined='yes'/>
    <elf-symbol name='_ZN9__gnu_cxx13new_allocatorISt10_List_nodeIN5mongo17optionenvironment17OptionDescriptionEEED2Ev' type='func-type' binding='weak-binding' visibility='default-visibility' alias='_ZN9__gnu_cxx13new_allocatorISt10_List_nodeIN5mongo17optionenvironment17OptionDescriptionEEED1Ev' is-defined='yes'/>
    <elf-symbol name='_ZN9__gnu_cxx13new_allocatorISt10shared_ptrIN5mongo17optionenvironment10ConstraintEEE10deallocateEPS5_m' type='func-type' binding='weak-binding' visibility='default-visibility' is-defined='yes'/>
    <elf-symbol name='_ZN9__gnu_cxx13new_allocatorISt10shared_ptrIN5mongo17optionenvironment10ConstraintEEED1Ev' type='func-type' binding='weak-binding' visibility='default-visibility' is-defined='yes'/>
    <elf-symbol name='_ZN9__gnu_cxx13new_allocatorISt10shared_ptrIN5mongo17optionenvironment10ConstraintEEED2Ev' type='func-type' binding='weak-binding' visibility='default-visibility' alias='_ZN9__gnu_cxx13new_allocatorISt10shared_ptrIN5mongo17optionenvironment10ConstraintEEED1Ev' is-defined='yes'/>
    <elf-symbol name='_ZN9__gnu_cxx13new_allocatorISt13_Rb_tree_nodeISt4pairIKSsSsEEE10deallocateEPS5_m' type='func-type' binding='weak-binding' visibility='default-visibility' is-defined='yes'/>
    <elf-symbol name='_ZN9__gnu_cxx13new_allocatorISt13_Rb_tree_nodeISt4pairIKSsSsEEE7destroyIS4_EEvPT_' type='func-type' binding='weak-binding' visibility='default-visibility' is-defined='yes'/>
    <elf-symbol name='_ZN9__gnu_cxx13new_allocatorISt13_Rb_tree_nodeISt4pairIKSsSsEEEC1Ev' type='func-type' binding='weak-binding' visibility='default-visibility' is-defined='yes'/>
    <elf-symbol name='_ZN9__gnu_cxx13new_allocatorISt13_Rb_tree_nodeISt4pairIKSsSsEEEC2Ev' type='func-type' binding='weak-binding' visibility='default-visibility' alias='_ZN9__gnu_cxx13new_allocatorISt13_Rb_tree_nodeISt4pairIKSsSsEEEC1Ev' is-defined='yes'/>
    <elf-symbol name='_ZN9__gnu_cxx13new_allocatorISt13_Rb_tree_nodeISt4pairIKSsSsEEED1Ev' type='func-type' binding='weak-binding' visibility='default-visibility' is-defined='yes'/>
    <elf-symbol name='_ZN9__gnu_cxx13new_allocatorISt13_Rb_tree_nodeISt4pairIKSsSsEEED2Ev' type='func-type' binding='weak-binding' visibility='default-visibility' alias='_ZN9__gnu_cxx13new_allocatorISt13_Rb_tree_nodeISt4pairIKSsSsEEED1Ev' is-defined='yes'/>
    <elf-symbol name='_ZN9__gnu_cxx14__alloc_traitsISaISsEE15_S_always_equalEv' type='func-type' binding='weak-binding' visibility='default-visibility' is-defined='yes'/>
    <elf-symbol name='_ZN9__gnu_cxx14__alloc_traitsISaISsEE27_S_propagate_on_copy_assignEv' type='func-type' binding='weak-binding' visibility='default-visibility' is-defined='yes'/>
    <elf-symbol name='_ZN9__gnu_cxx16__aligned_bufferISt4pairIKSsSsEE6_M_ptrEv' type='func-type' binding='weak-binding' visibility='default-visibility' is-defined='yes'/>
    <elf-symbol name='_ZN9__gnu_cxx16__aligned_bufferISt4pairIKSsSsEE7_M_addrEv' type='func-type' binding='weak-binding' visibility='default-visibility' is-defined='yes'/>
    <elf-symbol name='_ZN9__gnu_cxx17__normal_iteratorIPKSsSt6vectorISsSaISsEEEC1ERKS2_' type='func-type' binding='weak-binding' visibility='default-visibility' is-defined='yes'/>
    <elf-symbol name='_ZN9__gnu_cxx17__normal_iteratorIPKSsSt6vectorISsSaISsEEEC2ERKS2_' type='func-type' binding='weak-binding' visibility='default-visibility' alias='_ZN9__gnu_cxx17__normal_iteratorIPKSsSt6vectorISsSaISsEEEC1ERKS2_' is-defined='yes'/>
    <elf-symbol name='_ZN9__gnu_cxx17__normal_iteratorIPKSsSt6vectorISsSaISsEEEppEv' type='func-type' binding='weak-binding' visibility='default-visibility' is-defined='yes'/>
    <elf-symbol name='_ZN9__gnu_cxx17__normal_iteratorIPSsSt6vectorISsSaISsEEEC1ERKS1_' type='func-type' binding='weak-binding' visibility='default-visibility' is-defined='yes'/>
    <elf-symbol name='_ZN9__gnu_cxx17__normal_iteratorIPSsSt6vectorISsSaISsEEEC2ERKS1_' type='func-type' binding='weak-binding' visibility='default-visibility' alias='_ZN9__gnu_cxx17__normal_iteratorIPSsSt6vectorISsSaISsEEEC1ERKS1_' is-defined='yes'/>
    <elf-symbol name='_ZN9__gnu_cxx17__normal_iteratorIPSsSt6vectorISsSaISsEEEppEv' type='func-type' binding='weak-binding' visibility='default-visibility' is-defined='yes'/>
    <elf-symbol name='_ZN9__gnu_cxxneIPKSsSt6vectorISsSaISsEEEEbRKNS_17__normal_iteratorIT_T0_EESB_' type='func-type' binding='weak-binding' visibility='default-visibility' is-defined='yes'/>
    <elf-symbol name='_ZN9__gnu_cxxneIPSsSt6vectorISsSaISsEEEEbRKNS_17__normal_iteratorIT_T0_EESA_' type='func-type' binding='weak-binding' visibility='default-visibility' is-defined='yes'/>
    <elf-symbol name='_ZNK10mongoutils3str6streamcvSsEv' type='func-type' binding='weak-binding' visibility='default-visibility' is-defined='yes'/>
    <elf-symbol name='_ZNK5mongo10StringData4sizeEv' type='func-type' binding='weak-binding' visibility='default-visibility' is-defined='yes'/>
    <elf-symbol name='_ZNK5mongo10StringData6copyToEPcb' type='func-type' binding='weak-binding' visibility='default-visibility' is-defined='yes'/>
    <elf-symbol name='_ZNK5mongo11DBException12appendPrefixERSt18basic_stringstreamIcSt11char_traitsIcESaIcEE' type='func-type' binding='weak-binding' visibility='default-visibility' is-defined='yes'/>
    <elf-symbol name='_ZNK5mongo11DBException4whatEv' type='func-type' binding='weak-binding' visibility='default-visibility' is-defined='yes'/>
    <elf-symbol name='_ZNK5mongo11DBException7getCodeEv' type='func-type' binding='weak-binding' visibility='default-visibility' is-defined='yes'/>
    <elf-symbol name='_ZNK5mongo11_BufBuilderINS_16TrivialAllocatorEE3lenEv' type='func-type' binding='weak-binding' visibility='default-visibility' is-defined='yes'/>
    <elf-symbol name='_ZNK5mongo11_BufBuilderINS_16TrivialAllocatorEE7getSizeEv' type='func-type' binding='weak-binding' visibility='default-visibility' is-defined='yes'/>
    <elf-symbol name='_ZNK5mongo12LittleEndianIiEcviEv' type='func-type' binding='weak-binding' visibility='default-visibility' is-defined='yes'/>
    <elf-symbol name='_ZNK5mongo13ConstDataView4readINS_12LittleEndianIiEEEERKS0_PT_m' type='func-type' binding='weak-binding' visibility='default-visibility' is-defined='yes'/>
    <elf-symbol name='_ZNK5mongo13ConstDataView4readINS_12LittleEndianIiEEEET_m' type='func-type' binding='weak-binding' visibility='default-visibility' is-defined='yes'/>
    <elf-symbol name='_ZNK5mongo13ConstDataView4viewEm' type='func-type' binding='weak-binding' visibility='default-visibility' is-defined='yes'/>
    <elf-symbol name='_ZNK5mongo17StringBuilderImplINS_16TrivialAllocatorEE3strEv' type='func-type' binding='weak-binding' visibility='default-visibility' is-defined='yes'/>
    <elf-symbol name='_ZNK5mongo17optionenvironment5Value2asISsEET_v' type='func-type' binding='weak-binding' visibility='default-visibility' is-defined='yes'/>
    <elf-symbol name='_ZNK5mongo17optionenvironment5Value2asISt3mapISsSsSt4lessISsESaISt4pairIKSsSsEEEEET_v' type='func-type' binding='weak-binding' visibility='default-visibility' is-defined='yes'/>
    <elf-symbol name='_ZNK5mongo17optionenvironment5Value2asISt6vectorISsSaISsEEEET_v' type='func-type' binding='weak-binding' visibility='default-visibility' is-defined='yes'/>
    <elf-symbol name='_ZNK5mongo17optionenvironment5Value2asIiEET_v' type='func-type' binding='weak-binding' visibility='default-visibility' is-defined='yes'/>
    <elf-symbol name='_ZNK5mongo18AssertionException15isUserAssertionEv' type='func-type' binding='weak-binding' visibility='default-visibility' is-defined='yes'/>
    <elf-symbol name='_ZNK5mongo18AssertionException6severeEv' type='func-type' binding='weak-binding' visibility='default-visibility' is-defined='yes'/>
    <elf-symbol name='_ZNK5mongo23ExportedServerParameterISsE3getEv' type='func-type' binding='weak-binding' visibility='default-visibility' is-defined='yes'/>
    <elf-symbol name='_ZNK5mongo23ExportedServerParameterISt6vectorISsSaISsEEE3getEv' type='func-type' binding='weak-binding' visibility='default-visibility' is-defined='yes'/>
    <elf-symbol name='_ZNK5mongo23ExportedServerParameterIiE3getEv' type='func-type' binding='weak-binding' visibility='default-visibility' is-defined='yes'/>
    <elf-symbol name='_ZNK5mongo6Status4codeEv' type='func-type' binding='weak-binding' visibility='default-visibility' is-defined='yes'/>
    <elf-symbol name='_ZNK5mongo6Status4isOKEv' type='func-type' binding='weak-binding' visibility='default-visibility' is-defined='yes'/>
    <elf-symbol name='_ZNK5mongo7BSONObj7isValidEv' type='func-type' binding='weak-binding' visibility='default-visibility' is-defined='yes'/>
    <elf-symbol name='_ZNK5mongo7BSONObj7objdataEv' type='func-type' binding='weak-binding' visibility='default-visibility' is-defined='yes'/>
    <elf-symbol name='_ZNK5mongo7BSONObj7objsizeEv' type='func-type' binding='weak-binding' visibility='default-visibility' is-defined='yes'/>
    <elf-symbol name='_ZNK5mongo8DataView4viewEm' type='func-type' binding='weak-binding' visibility='default-visibility' is-defined='yes'/>
    <elf-symbol name='_ZNK9__gnu_cxx13new_allocatorISsE8max_sizeEv' type='func-type' binding='weak-binding' visibility='default-visibility' is-defined='yes'/>
    <elf-symbol name='_ZNK9__gnu_cxx17__normal_iteratorIPKSsSt6vectorISsSaISsEEE4baseEv' type='func-type' binding='weak-binding' visibility='default-visibility' is-defined='yes'/>
    <elf-symbol name='_ZNK9__gnu_cxx17__normal_iteratorIPKSsSt6vectorISsSaISsEEEdeEv' type='func-type' binding='weak-binding' visibility='default-visibility' is-defined='yes'/>
    <elf-symbol name='_ZNK9__gnu_cxx17__normal_iteratorIPSsSt6vectorISsSaISsEEE4baseEv' type='func-type' binding='weak-binding' visibility='default-visibility' is-defined='yes'/>
    <elf-symbol name='_ZNK9__gnu_cxx17__normal_iteratorIPSsSt6vectorISsSaISsEEEdeEv' type='func-type' binding='weak-binding' visibility='default-visibility' is-defined='yes'/>
    <elf-symbol name='_ZNKSt10unique_ptrISt19basic_ostringstreamIcSt11char_traitsIcESaIcEESt14default_deleteIS4_EE3getEv' type='func-type' binding='weak-binding' visibility='default-visibility' is-defined='yes'/>
    <elf-symbol name='_ZNKSt10unique_ptrISt19basic_ostringstreamIcSt11char_traitsIcESaIcEESt14default_deleteIS4_EEcvbEv' type='func-type' binding='weak-binding' visibility='default-visibility' is-defined='yes'/>
    <elf-symbol name='_ZNKSt10unique_ptrISt19basic_ostringstreamIcSt11char_traitsIcESaIcEESt14default_deleteIS4_EEdeEv' type='func-type' binding='weak-binding' visibility='default-visibility' is-defined='yes'/>
    <elf-symbol name='_ZNKSt12_Vector_baseISsSaISsEE13get_allocatorEv' type='func-type' binding='weak-binding' visibility='default-visibility' is-defined='yes'/>
    <elf-symbol name='_ZNKSt12_Vector_baseISsSaISsEE19_M_get_Tp_allocatorEv' type='func-type' binding='weak-binding' visibility='default-visibility' is-defined='yes'/>
    <elf-symbol name='_ZNKSt13move_iteratorIPSsE4baseEv' type='func-type' binding='weak-binding' visibility='default-visibility' is-defined='yes'/>
    <elf-symbol name='_ZNKSt13move_iteratorIPSsEdeEv' type='func-type' binding='weak-binding' visibility='default-visibility' is-defined='yes'/>
    <elf-symbol name='_ZNKSt14default_deleteIN5mongo14BSONObjBuilderEEclEPS1_' type='func-type' binding='weak-binding' visibility='default-visibility' is-defined='yes'/>
    <elf-symbol name='_ZNKSt17_Rb_tree_iteratorISt4pairIKSsSsEEneERKS3_' type='func-type' binding='weak-binding' visibility='default-visibility' is-defined='yes'/>
    <elf-symbol name='_ZNKSt17_Rb_tree_iteratorISt4pairIKSsSsEEptEv' type='func-type' binding='weak-binding' visibility='default-visibility' is-defined='yes'/>
    <elf-symbol name='_ZNKSt6vectorISsSaISsEE12_M_check_lenEmPKc' type='func-type' binding='weak-binding' visibility='default-visibility' is-defined='yes'/>
    <elf-symbol name='_ZNKSt6vectorISsSaISsEE3endEv' type='func-type' binding='weak-binding' visibility='default-visibility' is-defined='yes'/>
    <elf-symbol name='_ZNKSt6vectorISsSaISsEE4sizeEv' type='func-type' binding='weak-binding' visibility='default-visibility' is-defined='yes'/>
    <elf-symbol name='_ZNKSt6vectorISsSaISsEE5beginEv' type='func-type' binding='weak-binding' visibility='default-visibility' is-defined='yes'/>
    <elf-symbol name='_ZNKSt6vectorISsSaISsEE8capacityEv' type='func-type' binding='weak-binding' visibility='default-visibility' is-defined='yes'/>
    <elf-symbol name='_ZNKSt6vectorISsSaISsEE8max_sizeEv' type='func-type' binding='weak-binding' visibility='default-visibility' is-defined='yes'/>
    <elf-symbol name='_ZNKSt6vectorISsSaISsEEixEm' type='func-type' binding='weak-binding' visibility='default-visibility' is-defined='yes'/>
    <elf-symbol name='_ZNKSt9_Any_data9_M_accessEv' type='func-type' binding='weak-binding' visibility='default-visibility' is-defined='yes'/>
    <elf-symbol name='_ZNKSt9_Any_data9_M_accessIPFN5mongo6StatusEPNS1_18InitializerContextEEEERKT_v' type='func-type' binding='weak-binding' visibility='default-visibility' is-defined='yes'/>
    <elf-symbol name='_ZNSaISsEC1ERKS_' type='func-type' binding='weak-binding' visibility='default-visibility' is-defined='yes'/>
    <elf-symbol name='_ZNSaISsEC1Ev' type='func-type' binding='weak-binding' visibility='default-visibility' is-defined='yes'/>
    <elf-symbol name='_ZNSaISsEC2ERKS_' type='func-type' binding='weak-binding' visibility='default-visibility' alias='_ZNSaISsEC1ERKS_' is-defined='yes'/>
    <elf-symbol name='_ZNSaISsEC2Ev' type='func-type' binding='weak-binding' visibility='default-visibility' alias='_ZNSaISsEC1Ev' is-defined='yes'/>
    <elf-symbol name='_ZNSaISsED1Ev' type='func-type' binding='weak-binding' visibility='default-visibility' is-defined='yes'/>
    <elf-symbol name='_ZNSaISsED2Ev' type='func-type' binding='weak-binding' visibility='default-visibility' alias='_ZNSaISsED1Ev' is-defined='yes'/>
    <elf-symbol name='_ZNSaISt10_List_nodeIN5mongo17optionenvironment13OptionSectionEEEC1Ev' type='func-type' binding='weak-binding' visibility='default-visibility' is-defined='yes'/>
    <elf-symbol name='_ZNSaISt10_List_nodeIN5mongo17optionenvironment13OptionSectionEEEC2Ev' type='func-type' binding='weak-binding' visibility='default-visibility' alias='_ZNSaISt10_List_nodeIN5mongo17optionenvironment13OptionSectionEEEC1Ev' is-defined='yes'/>
    <elf-symbol name='_ZNSaISt10_List_nodeIN5mongo17optionenvironment13OptionSectionEEED1Ev' type='func-type' binding='weak-binding' visibility='default-visibility' is-defined='yes'/>
    <elf-symbol name='_ZNSaISt10_List_nodeIN5mongo17optionenvironment13OptionSectionEEED2Ev' type='func-type' binding='weak-binding' visibility='default-visibility' alias='_ZNSaISt10_List_nodeIN5mongo17optionenvironment13OptionSectionEEED1Ev' is-defined='yes'/>
    <elf-symbol name='_ZNSaISt10_List_nodeIN5mongo17optionenvironment17OptionDescriptionEEEC1Ev' type='func-type' binding='weak-binding' visibility='default-visibility' is-defined='yes'/>
    <elf-symbol name='_ZNSaISt10_List_nodeIN5mongo17optionenvironment17OptionDescriptionEEEC2Ev' type='func-type' binding='weak-binding' visibility='default-visibility' alias='_ZNSaISt10_List_nodeIN5mongo17optionenvironment17OptionDescriptionEEEC1Ev' is-defined='yes'/>
    <elf-symbol name='_ZNSaISt10_List_nodeIN5mongo17optionenvironment17OptionDescriptionEEED1Ev' type='func-type' binding='weak-binding' visibility='default-visibility' is-defined='yes'/>
    <elf-symbol name='_ZNSaISt10_List_nodeIN5mongo17optionenvironment17OptionDescriptionEEED2Ev' type='func-type' binding='weak-binding' visibility='default-visibility' alias='_ZNSaISt10_List_nodeIN5mongo17optionenvironment17OptionDescriptionEEED1Ev' is-defined='yes'/>
    <elf-symbol name='_ZNSaISt10shared_ptrIN5mongo17optionenvironment10ConstraintEEED1Ev' type='func-type' binding='weak-binding' visibility='default-visibility' is-defined='yes'/>
    <elf-symbol name='_ZNSaISt10shared_ptrIN5mongo17optionenvironment10ConstraintEEED2Ev' type='func-type' binding='weak-binding' visibility='default-visibility' alias='_ZNSaISt10shared_ptrIN5mongo17optionenvironment10ConstraintEEED1Ev' is-defined='yes'/>
    <elf-symbol name='_ZNSaISt13_Rb_tree_nodeISt4pairIKSsSsEEEC1Ev' type='func-type' binding='weak-binding' visibility='default-visibility' is-defined='yes'/>
    <elf-symbol name='_ZNSaISt13_Rb_tree_nodeISt4pairIKSsSsEEEC2Ev' type='func-type' binding='weak-binding' visibility='default-visibility' alias='_ZNSaISt13_Rb_tree_nodeISt4pairIKSsSsEEEC1Ev' is-defined='yes'/>
    <elf-symbol name='_ZNSaISt13_Rb_tree_nodeISt4pairIKSsSsEEED1Ev' type='func-type' binding='weak-binding' visibility='default-visibility' is-defined='yes'/>
    <elf-symbol name='_ZNSaISt13_Rb_tree_nodeISt4pairIKSsSsEEED2Ev' type='func-type' binding='weak-binding' visibility='default-visibility' alias='_ZNSaISt13_Rb_tree_nodeISt4pairIKSsSsEEED1Ev' is-defined='yes'/>
    <elf-symbol name='_ZNSt10_Head_baseILm0EPN5mongo14BSONObjBuilderELb0EE7_M_headERS3_' type='func-type' binding='weak-binding' visibility='default-visibility' is-defined='yes'/>
    <elf-symbol name='_ZNSt10_Head_baseILm0EPSt19basic_ostringstreamIcSt11char_traitsIcESaIcEELb0EE7_M_headERKS6_' type='func-type' binding='weak-binding' visibility='default-visibility' is-defined='yes'/>
    <elf-symbol name='_ZNSt10_Head_baseILm1ESt14default_deleteIN5mongo14BSONObjBuilderEELb1EE7_M_headERS4_' type='func-type' binding='weak-binding' visibility='default-visibility' is-defined='yes'/>
    <elf-symbol name='_ZNSt10_Iter_baseIN9__gnu_cxx17__normal_iteratorIPKSsSt6vectorISsSaISsEEEELb0EE7_S_baseES7_' type='func-type' binding='weak-binding' visibility='default-visibility' is-defined='yes'/>
    <elf-symbol name='_ZNSt10_Iter_baseIN9__gnu_cxx17__normal_iteratorIPKSsSt6vectorISsSaISsEEEELb1EE7_S_baseES7_' type='func-type' binding='weak-binding' visibility='default-visibility' is-defined='yes'/>
    <elf-symbol name='_ZNSt10_Iter_baseIN9__gnu_cxx17__normal_iteratorIPSsSt6vectorISsSaISsEEEELb1EE7_S_baseES6_' type='func-type' binding='weak-binding' visibility='default-visibility' is-defined='yes'/>
    <elf-symbol name='_ZNSt10_Iter_baseIPSsLb0EE7_S_baseES0_' type='func-type' binding='weak-binding' visibility='default-visibility' is-defined='yes'/>
    <elf-symbol name='_ZNSt10_List_baseIN5mongo17optionenvironment13OptionSectionESaIS2_EE10_List_implC1Ev' type='func-type' binding='weak-binding' visibility='default-visibility' is-defined='yes'/>
    <elf-symbol name='_ZNSt10_List_baseIN5mongo17optionenvironment13OptionSectionESaIS2_EE10_List_implC2Ev' type='func-type' binding='weak-binding' visibility='default-visibility' alias='_ZNSt10_List_baseIN5mongo17optionenvironment13OptionSectionESaIS2_EE10_List_implC1Ev' is-defined='yes'/>
    <elf-symbol name='_ZNSt10_List_baseIN5mongo17optionenvironment13OptionSectionESaIS2_EE10_List_implD1Ev' type='func-type' binding='weak-binding' visibility='default-visibility' alias='_ZNSt10_List_baseIN5mongo17optionenvironment13OptionSectionESaIS2_EE10_List_implD2Ev' is-defined='yes'/>
    <elf-symbol name='_ZNSt10_List_baseIN5mongo17optionenvironment13OptionSectionESaIS2_EE10_List_implD2Ev' type='func-type' binding='weak-binding' visibility='default-visibility' is-defined='yes'/>
    <elf-symbol name='_ZNSt10_List_baseIN5mongo17optionenvironment13OptionSectionESaIS2_EE11_M_put_nodeEPSt10_List_nodeIS2_E' type='func-type' binding='weak-binding' visibility='default-visibility' is-defined='yes'/>
    <elf-symbol name='_ZNSt10_List_baseIN5mongo17optionenvironment13OptionSectionESaIS2_EE21_M_get_Node_allocatorEv' type='func-type' binding='weak-binding' visibility='default-visibility' is-defined='yes'/>
    <elf-symbol name='_ZNSt10_List_baseIN5mongo17optionenvironment13OptionSectionESaIS2_EE7_M_initEv' type='func-type' binding='weak-binding' visibility='default-visibility' is-defined='yes'/>
    <elf-symbol name='_ZNSt10_List_baseIN5mongo17optionenvironment13OptionSectionESaIS2_EE8_M_clearEv' type='func-type' binding='weak-binding' visibility='default-visibility' is-defined='yes'/>
    <elf-symbol name='_ZNSt10_List_baseIN5mongo17optionenvironment13OptionSectionESaIS2_EEC1Ev' type='func-type' binding='weak-binding' visibility='default-visibility' is-defined='yes'/>
    <elf-symbol name='_ZNSt10_List_baseIN5mongo17optionenvironment13OptionSectionESaIS2_EEC2Ev' type='func-type' binding='weak-binding' visibility='default-visibility' alias='_ZNSt10_List_baseIN5mongo17optionenvironment13OptionSectionESaIS2_EEC1Ev' is-defined='yes'/>
    <elf-symbol name='_ZNSt10_List_baseIN5mongo17optionenvironment13OptionSectionESaIS2_EED1Ev' type='func-type' binding='weak-binding' visibility='default-visibility' is-defined='yes'/>
    <elf-symbol name='_ZNSt10_List_baseIN5mongo17optionenvironment13OptionSectionESaIS2_EED2Ev' type='func-type' binding='weak-binding' visibility='default-visibility' alias='_ZNSt10_List_baseIN5mongo17optionenvironment13OptionSectionESaIS2_EED1Ev' is-defined='yes'/>
    <elf-symbol name='_ZNSt10_List_baseIN5mongo17optionenvironment17OptionDescriptionESaIS2_EE10_List_implC1Ev' type='func-type' binding='weak-binding' visibility='default-visibility' is-defined='yes'/>
    <elf-symbol name='_ZNSt10_List_baseIN5mongo17optionenvironment17OptionDescriptionESaIS2_EE10_List_implC2Ev' type='func-type' binding='weak-binding' visibility='default-visibility' alias='_ZNSt10_List_baseIN5mongo17optionenvironment17OptionDescriptionESaIS2_EE10_List_implC1Ev' is-defined='yes'/>
    <elf-symbol name='_ZNSt10_List_baseIN5mongo17optionenvironment17OptionDescriptionESaIS2_EE10_List_implD1Ev' type='func-type' binding='weak-binding' visibility='default-visibility' alias='_ZNSt10_List_baseIN5mongo17optionenvironment17OptionDescriptionESaIS2_EE10_List_implD2Ev' is-defined='yes'/>
    <elf-symbol name='_ZNSt10_List_baseIN5mongo17optionenvironment17OptionDescriptionESaIS2_EE10_List_implD2Ev' type='func-type' binding='weak-binding' visibility='default-visibility' is-defined='yes'/>
    <elf-symbol name='_ZNSt10_List_baseIN5mongo17optionenvironment17OptionDescriptionESaIS2_EE11_M_put_nodeEPSt10_List_nodeIS2_E' type='func-type' binding='weak-binding' visibility='default-visibility' is-defined='yes'/>
    <elf-symbol name='_ZNSt10_List_baseIN5mongo17optionenvironment17OptionDescriptionESaIS2_EE21_M_get_Node_allocatorEv' type='func-type' binding='weak-binding' visibility='default-visibility' is-defined='yes'/>
    <elf-symbol name='_ZNSt10_List_baseIN5mongo17optionenvironment17OptionDescriptionESaIS2_EE7_M_initEv' type='func-type' binding='weak-binding' visibility='default-visibility' is-defined='yes'/>
    <elf-symbol name='_ZNSt10_List_baseIN5mongo17optionenvironment17OptionDescriptionESaIS2_EE8_M_clearEv' type='func-type' binding='weak-binding' visibility='default-visibility' is-defined='yes'/>
    <elf-symbol name='_ZNSt10_List_baseIN5mongo17optionenvironment17OptionDescriptionESaIS2_EEC1Ev' type='func-type' binding='weak-binding' visibility='default-visibility' is-defined='yes'/>
    <elf-symbol name='_ZNSt10_List_baseIN5mongo17optionenvironment17OptionDescriptionESaIS2_EEC2Ev' type='func-type' binding='weak-binding' visibility='default-visibility' alias='_ZNSt10_List_baseIN5mongo17optionenvironment17OptionDescriptionESaIS2_EEC1Ev' is-defined='yes'/>
    <elf-symbol name='_ZNSt10_List_baseIN5mongo17optionenvironment17OptionDescriptionESaIS2_EED1Ev' type='func-type' binding='weak-binding' visibility='default-visibility' is-defined='yes'/>
    <elf-symbol name='_ZNSt10_List_baseIN5mongo17optionenvironment17OptionDescriptionESaIS2_EED2Ev' type='func-type' binding='weak-binding' visibility='default-visibility' alias='_ZNSt10_List_baseIN5mongo17optionenvironment17OptionDescriptionESaIS2_EED1Ev' is-defined='yes'/>
    <elf-symbol name='_ZNSt10_List_nodeIN5mongo17optionenvironment13OptionSectionEED1Ev' type='func-type' binding='weak-binding' visibility='default-visibility' alias='_ZNSt10_List_nodeIN5mongo17optionenvironment13OptionSectionEED2Ev' is-defined='yes'/>
    <elf-symbol name='_ZNSt10_List_nodeIN5mongo17optionenvironment13OptionSectionEED2Ev' type='func-type' binding='weak-binding' visibility='default-visibility' is-defined='yes'/>
    <elf-symbol name='_ZNSt10_List_nodeIN5mongo17optionenvironment17OptionDescriptionEED1Ev' type='func-type' binding='weak-binding' visibility='default-visibility' alias='_ZNSt10_List_nodeIN5mongo17optionenvironment17OptionDescriptionEED2Ev' is-defined='yes'/>
    <elf-symbol name='_ZNSt10_List_nodeIN5mongo17optionenvironment17OptionDescriptionEED2Ev' type='func-type' binding='weak-binding' visibility='default-visibility' is-defined='yes'/>
    <elf-symbol name='_ZNSt10shared_ptrIN5mongo17optionenvironment10ConstraintEED1Ev' type='func-type' binding='weak-binding' visibility='default-visibility' alias='_ZNSt10shared_ptrIN5mongo17optionenvironment10ConstraintEED2Ev' is-defined='yes'/>
    <elf-symbol name='_ZNSt10shared_ptrIN5mongo17optionenvironment10ConstraintEED2Ev' type='func-type' binding='weak-binding' visibility='default-visibility' is-defined='yes'/>
    <elf-symbol name='_ZNSt10unique_ptrIN5mongo14BSONObjBuilderESt14default_deleteIS1_EE11get_deleterEv' type='func-type' binding='weak-binding' visibility='default-visibility' is-defined='yes'/>
    <elf-symbol name='_ZNSt10unique_ptrIN5mongo14BSONObjBuilderESt14default_deleteIS1_EED1Ev' type='func-type' binding='weak-binding' visibility='default-visibility' is-defined='yes'/>
    <elf-symbol name='_ZNSt10unique_ptrIN5mongo14BSONObjBuilderESt14default_deleteIS1_EED2Ev' type='func-type' binding='weak-binding' visibility='default-visibility' alias='_ZNSt10unique_ptrIN5mongo14BSONObjBuilderESt14default_deleteIS1_EED1Ev' is-defined='yes'/>
    <elf-symbol name='_ZNSt11_Tuple_implILm0EIPN5mongo14BSONObjBuilderESt14default_deleteIS1_EEE7_M_headERS5_' type='func-type' binding='weak-binding' visibility='default-visibility' alias='_ZNSt11_Tuple_implILm0EJPN5mongo14BSONObjBuilderESt14default_deleteIS1_EEE7_M_headERS5_' is-defined='yes'/>
    <elf-symbol name='_ZNSt11_Tuple_implILm0EIPSt19basic_ostringstreamIcSt11char_traitsIcESaIcEESt14default_deleteIS4_EEE7_M_headERKS8_' type='func-type' binding='weak-binding' visibility='default-visibility' alias='_ZNSt11_Tuple_implILm0EJPSt19basic_ostringstreamIcSt11char_traitsIcESaIcEESt14default_deleteIS4_EEE7_M_headERKS8_' is-defined='yes'/>
    <elf-symbol name='_ZNSt11_Tuple_implILm0EJPN5mongo14BSONObjBuilderESt14default_deleteIS1_EEE7_M_headERS5_' type='func-type' binding='weak-binding' visibility='default-visibility' is-defined='yes'/>
    <elf-symbol name='_ZNSt11_Tuple_implILm0EJPSt19basic_ostringstreamIcSt11char_traitsIcESaIcEESt14default_deleteIS4_EEE7_M_headERKS8_' type='func-type' binding='weak-binding' visibility='default-visibility' is-defined='yes'/>
    <elf-symbol name='_ZNSt11_Tuple_implILm1EISt14default_deleteIN5mongo14BSONObjBuilderEEEE7_M_headERS4_' type='func-type' binding='weak-binding' visibility='default-visibility' alias='_ZNSt11_Tuple_implILm1EJSt14default_deleteIN5mongo14BSONObjBuilderEEEE7_M_headERS4_' is-defined='yes'/>
    <elf-symbol name='_ZNSt11_Tuple_implILm1EJSt14default_deleteIN5mongo14BSONObjBuilderEEEE7_M_headERS4_' type='func-type' binding='weak-binding' visibility='default-visibility' is-defined='yes'/>
    <elf-symbol name='_ZNSt11__copy_moveILb0ELb0ESt26random_access_iterator_tagE8__copy_mIPKSsPSsEET0_T_S7_S6_' type='func-type' binding='weak-binding' visibility='default-visibility' is-defined='yes'/>
    <elf-symbol name='_ZNSt11__copy_moveILb0ELb0ESt26random_access_iterator_tagE8__copy_mIPSsS3_EET0_T_S5_S4_' type='func-type' binding='weak-binding' visibility='default-visibility' is-defined='yes'/>
    <elf-symbol name='_ZNSt12_Destroy_auxILb0EE9__destroyIN9__gnu_cxx17__normal_iteratorIPSsSt6vectorISsSaISsEEEEEEvT_S9_' type='func-type' binding='weak-binding' visibility='default-visibility' is-defined='yes'/>
    <elf-symbol name='_ZNSt12_Destroy_auxILb0EE9__destroyIPSsEEvT_S3_' type='func-type' binding='weak-binding' visibility='default-visibility' is-defined='yes'/>
    <elf-symbol name='_ZNSt12_Destroy_auxILb0EE9__destroyIPSt10shared_ptrIN5mongo17optionenvironment10ConstraintEEEEvT_S8_' type='func-type' binding='weak-binding' visibility='default-visibility' is-defined='yes'/>
    <elf-symbol name='_ZNSt12_Vector_baseISsSaISsEE11_M_allocateEm' type='func-type' binding='weak-binding' visibility='default-visibility' is-defined='yes'/>
    <elf-symbol name='_ZNSt12_Vector_baseISsSaISsEE12_Vector_impl12_M_swap_dataERS2_' type='func-type' binding='weak-binding' visibility='default-visibility' is-defined='yes'/>
    <elf-symbol name='_ZNSt12_Vector_baseISsSaISsEE12_Vector_implC1ERKS0_' type='func-type' binding='weak-binding' visibility='default-visibility' is-defined='yes'/>
    <elf-symbol name='_ZNSt12_Vector_baseISsSaISsEE12_Vector_implC1Ev' type='func-type' binding='weak-binding' visibility='default-visibility' is-defined='yes'/>
    <elf-symbol name='_ZNSt12_Vector_baseISsSaISsEE12_Vector_implC2ERKS0_' type='func-type' binding='weak-binding' visibility='default-visibility' alias='_ZNSt12_Vector_baseISsSaISsEE12_Vector_implC1ERKS0_' is-defined='yes'/>
    <elf-symbol name='_ZNSt12_Vector_baseISsSaISsEE12_Vector_implC2Ev' type='func-type' binding='weak-binding' visibility='default-visibility' alias='_ZNSt12_Vector_baseISsSaISsEE12_Vector_implC1Ev' is-defined='yes'/>
    <elf-symbol name='_ZNSt12_Vector_baseISsSaISsEE12_Vector_implD1Ev' type='func-type' binding='weak-binding' visibility='default-visibility' alias='_ZNSt12_Vector_baseISsSaISsEE12_Vector_implD2Ev' is-defined='yes'/>
    <elf-symbol name='_ZNSt12_Vector_baseISsSaISsEE12_Vector_implD2Ev' type='func-type' binding='weak-binding' visibility='default-visibility' is-defined='yes'/>
    <elf-symbol name='_ZNSt12_Vector_baseISsSaISsEE13_M_deallocateEPSsm' type='func-type' binding='weak-binding' visibility='default-visibility' is-defined='yes'/>
    <elf-symbol name='_ZNSt12_Vector_baseISsSaISsEE19_M_get_Tp_allocatorEv' type='func-type' binding='weak-binding' visibility='default-visibility' is-defined='yes'/>
    <elf-symbol name='_ZNSt12_Vector_baseISsSaISsEEC1ERKS0_' type='func-type' binding='weak-binding' visibility='default-visibility' is-defined='yes'/>
    <elf-symbol name='_ZNSt12_Vector_baseISsSaISsEEC1Ev' type='func-type' binding='weak-binding' visibility='default-visibility' is-defined='yes'/>
    <elf-symbol name='_ZNSt12_Vector_baseISsSaISsEEC2ERKS0_' type='func-type' binding='weak-binding' visibility='default-visibility' alias='_ZNSt12_Vector_baseISsSaISsEEC1ERKS0_' is-defined='yes'/>
    <elf-symbol name='_ZNSt12_Vector_baseISsSaISsEEC2Ev' type='func-type' binding='weak-binding' visibility='default-visibility' alias='_ZNSt12_Vector_baseISsSaISsEEC1Ev' is-defined='yes'/>
    <elf-symbol name='_ZNSt12_Vector_baseISsSaISsEED1Ev' type='func-type' binding='weak-binding' visibility='default-visibility' is-defined='yes'/>
    <elf-symbol name='_ZNSt12_Vector_baseISsSaISsEED2Ev' type='func-type' binding='weak-binding' visibility='default-visibility' alias='_ZNSt12_Vector_baseISsSaISsEED1Ev' is-defined='yes'/>
    <elf-symbol name='_ZNSt12_Vector_baseISt10shared_ptrIN5mongo17optionenvironment10ConstraintEESaIS4_EE12_Vector_implD1Ev' type='func-type' binding='weak-binding' visibility='default-visibility' alias='_ZNSt12_Vector_baseISt10shared_ptrIN5mongo17optionenvironment10ConstraintEESaIS4_EE12_Vector_implD2Ev' is-defined='yes'/>
    <elf-symbol name='_ZNSt12_Vector_baseISt10shared_ptrIN5mongo17optionenvironment10ConstraintEESaIS4_EE12_Vector_implD2Ev' type='func-type' binding='weak-binding' visibility='default-visibility' is-defined='yes'/>
    <elf-symbol name='_ZNSt12_Vector_baseISt10shared_ptrIN5mongo17optionenvironment10ConstraintEESaIS4_EE13_M_deallocateEPS4_m' type='func-type' binding='weak-binding' visibility='default-visibility' is-defined='yes'/>
    <elf-symbol name='_ZNSt12_Vector_baseISt10shared_ptrIN5mongo17optionenvironment10ConstraintEESaIS4_EE19_M_get_Tp_allocatorEv' type='func-type' binding='weak-binding' visibility='default-visibility' is-defined='yes'/>
    <elf-symbol name='_ZNSt12_Vector_baseISt10shared_ptrIN5mongo17optionenvironment10ConstraintEESaIS4_EED1Ev' type='func-type' binding='weak-binding' visibility='default-visibility' is-defined='yes'/>
    <elf-symbol name='_ZNSt12_Vector_baseISt10shared_ptrIN5mongo17optionenvironment10ConstraintEESaIS4_EED2Ev' type='func-type' binding='weak-binding' visibility='default-visibility' alias='_ZNSt12_Vector_baseISt10shared_ptrIN5mongo17optionenvironment10ConstraintEESaIS4_EED1Ev' is-defined='yes'/>
    <elf-symbol name='_ZNSt12__shared_ptrIN5mongo17optionenvironment10ConstraintELN9__gnu_cxx12_Lock_policyE2EED1Ev' type='func-type' binding='weak-binding' visibility='default-visibility' is-defined='yes'/>
    <elf-symbol name='_ZNSt12__shared_ptrIN5mongo17optionenvironment10ConstraintELN9__gnu_cxx12_Lock_policyE2EED2Ev' type='func-type' binding='weak-binding' visibility='default-visibility' alias='_ZNSt12__shared_ptrIN5mongo17optionenvironment10ConstraintELN9__gnu_cxx12_Lock_policyE2EED1Ev' is-defined='yes'/>
    <elf-symbol name='_ZNSt13_Rb_tree_nodeISt4pairIKSsSsEE9_M_valptrEv' type='func-type' binding='weak-binding' visibility='default-visibility' is-defined='yes'/>
    <elf-symbol name='_ZNSt13move_iteratorIPSsEC1ES0_' type='func-type' binding='weak-binding' visibility='default-visibility' is-defined='yes'/>
    <elf-symbol name='_ZNSt13move_iteratorIPSsEC2ES0_' type='func-type' binding='weak-binding' visibility='default-visibility' alias='_ZNSt13move_iteratorIPSsEC1ES0_' is-defined='yes'/>
    <elf-symbol name='_ZNSt13move_iteratorIPSsEppEv' type='func-type' binding='weak-binding' visibility='default-visibility' is-defined='yes'/>
    <elf-symbol name='_ZNSt14_Function_base13_Base_managerIPFN5mongo6StatusEPNS1_18InitializerContextEEE10_M_destroyERSt9_Any_dataSt17integral_constantIbLb1EE' type='func-type' binding='weak-binding' visibility='default-visibility' is-defined='yes'/>
    <elf-symbol name='_ZNSt14_Function_base13_Base_managerIPFN5mongo6StatusEPNS1_18InitializerContextEEE10_M_managerERSt9_Any_dataRKS8_St18_Manager_operation' type='func-type' binding='weak-binding' visibility='default-visibility' is-defined='yes'/>
    <elf-symbol name='_ZNSt14_Function_base13_Base_managerIPFN5mongo6StatusEPNS1_18InitializerContextEEE14_M_get_pointerERKSt9_Any_data' type='func-type' binding='weak-binding' visibility='default-visibility' is-defined='yes'/>
    <elf-symbol name='_ZNSt14_Function_base13_Base_managerIPFN5mongo6StatusEPNS1_18InitializerContextEEE15_M_init_functorERSt9_Any_dataOS6_' type='func-type' binding='weak-binding' visibility='default-visibility' is-defined='yes'/>
    <elf-symbol name='_ZNSt14_Function_base13_Base_managerIPFN5mongo6StatusEPNS1_18InitializerContextEEE15_M_init_functorERSt9_Any_dataOS6_St17integral_constantIbLb1EE' type='func-type' binding='weak-binding' visibility='default-visibility' is-defined='yes'/>
    <elf-symbol name='_ZNSt14_Function_base13_Base_managerIPFN5mongo6StatusEPNS1_18InitializerContextEEE21_M_not_empty_functionIS5_EEbRKPT_' type='func-type' binding='weak-binding' visibility='default-visibility' is-defined='yes'/>
    <elf-symbol name='_ZNSt14_Function_base13_Base_managerIPFN5mongo6StatusEPNS1_18InitializerContextEEE8_M_cloneERSt9_Any_dataRKS8_St17integral_constantIbLb1EE' type='func-type' binding='weak-binding' visibility='default-visibility' is-defined='yes'/>
    <elf-symbol name='_ZNSt14_Function_baseC1Ev' type='func-type' binding='weak-binding' visibility='default-visibility' is-defined='yes'/>
    <elf-symbol name='_ZNSt14_Function_baseC2Ev' type='func-type' binding='weak-binding' visibility='default-visibility' alias='_ZNSt14_Function_baseC1Ev' is-defined='yes'/>
    <elf-symbol name='_ZNSt14_Function_baseD1Ev' type='func-type' binding='weak-binding' visibility='default-visibility' is-defined='yes'/>
    <elf-symbol name='_ZNSt14_Function_baseD2Ev' type='func-type' binding='weak-binding' visibility='default-visibility' alias='_ZNSt14_Function_baseD1Ev' is-defined='yes'/>
    <elf-symbol name='_ZNSt14__shared_countILN9__gnu_cxx12_Lock_policyE2EED1Ev' type='func-type' binding='weak-binding' visibility='default-visibility' is-defined='yes'/>
    <elf-symbol name='_ZNSt14__shared_countILN9__gnu_cxx12_Lock_policyE2EED2Ev' type='func-type' binding='weak-binding' visibility='default-visibility' alias='_ZNSt14__shared_countILN9__gnu_cxx12_Lock_policyE2EED1Ev' is-defined='yes'/>
    <elf-symbol name='_ZNSt14unary_functionIPN5mongo18InitializerContextENS0_6StatusEEC1Ev' type='func-type' binding='weak-binding' visibility='default-visibility' alias='_ZNSt14unary_functionIPN5mongo18InitializerContextENS0_6StatusEEC2Ev' is-defined='yes'/>
    <elf-symbol name='_ZNSt14unary_functionIPN5mongo18InitializerContextENS0_6StatusEEC2Ev' type='func-type' binding='weak-binding' visibility='default-visibility' is-defined='yes'/>
    <elf-symbol name='_ZNSt16_Sp_counted_baseILN9__gnu_cxx12_Lock_policyE2EE10_M_releaseEv' type='func-type' binding='weak-binding' visibility='default-visibility' is-defined='yes'/>
    <elf-symbol name='_ZNSt16allocator_traitsISaISsEE10_S_destroyISsEENSt9enable_ifIXsrSt6__and_IINS1_16__destroy_helperIT_E4typeEEE5valueEvE4typeERS0_PS6_' type='func-type' binding='weak-binding' visibility='default-visibility' alias='_ZNSt16allocator_traitsISaISsEE10_S_destroyISsEENSt9enable_ifIXsrSt6__and_IJNS1_16__destroy_helperIT_E4typeEEE5valueEvE4typeERS0_PS6_' is-defined='yes'/>
    <elf-symbol name='_ZNSt16allocator_traitsISaISsEE10_S_destroyISsEENSt9enable_ifIXsrSt6__and_IJNS1_16__destroy_helperIT_E4typeEEE5valueEvE4typeERS0_PS6_' type='func-type' binding='weak-binding' visibility='default-visibility' is-defined='yes'/>
    <elf-symbol name='_ZNSt16allocator_traitsISaISsEE10deallocateERS0_PSsm' type='func-type' binding='weak-binding' visibility='default-visibility' is-defined='yes'/>
    <elf-symbol name='_ZNSt16allocator_traitsISaISsEE11_S_max_sizeIKS0_vEEmRT_i' type='func-type' binding='weak-binding' visibility='default-visibility' is-defined='yes'/>
    <elf-symbol name='_ZNSt16allocator_traitsISaISsEE12_S_constructISsISsEEENSt9enable_ifIXsrSt6__and_IINS1_18__construct_helperIT_IDpT0_EE4typeEEE5valueEvE4typeERS0_PS6_DpOS7_' type='func-type' binding='weak-binding' visibility='default-visibility' alias='_ZNSt16allocator_traitsISaISsEE12_S_constructISsJSsEEENSt9enable_ifIXsrSt6__and_IJNS1_18__construct_helperIT_JDpT0_EE4typeEEE5valueEvE4typeERS0_PS6_DpOS7_' is-defined='yes'/>
    <elf-symbol name='_ZNSt16allocator_traitsISaISsEE12_S_constructISsJSsEEENSt9enable_ifIXsrSt6__and_IJNS1_18__construct_helperIT_JDpT0_EE4typeEEE5valueEvE4typeERS0_PS6_DpOS7_' type='func-type' binding='weak-binding' visibility='default-visibility' is-defined='yes'/>
    <elf-symbol name='_ZNSt16allocator_traitsISaISsEE7destroyISsEEvRS0_PT_' type='func-type' binding='weak-binding' visibility='default-visibility' is-defined='yes'/>
    <elf-symbol name='_ZNSt16allocator_traitsISaISsEE8allocateERS0_m' type='func-type' binding='weak-binding' visibility='default-visibility' is-defined='yes'/>
    <elf-symbol name='_ZNSt16allocator_traitsISaISsEE8max_sizeERKS0_' type='func-type' binding='weak-binding' visibility='default-visibility' is-defined='yes'/>
    <elf-symbol name='_ZNSt16allocator_traitsISaISsEE9constructISsISsEEEDTcl12_S_constructfp_fp0_spcl7forwardIT0_Efp1_EEERS0_PT_DpOS3_' type='func-type' binding='weak-binding' visibility='default-visibility' alias='_ZNSt16allocator_traitsISaISsEE9constructISsJSsEEEDTcl12_S_constructfp_fp0_spcl7forwardIT0_Efp1_EEERS0_PT_DpOS3_' is-defined='yes'/>
    <elf-symbol name='_ZNSt16allocator_traitsISaISsEE9constructISsJSsEEEDTcl12_S_constructfp_fp0_spcl7forwardIT0_Efp1_EEERS0_PT_DpOS3_' type='func-type' binding='weak-binding' visibility='default-visibility' is-defined='yes'/>
    <elf-symbol name='_ZNSt16allocator_traitsISaISt10shared_ptrIN5mongo17optionenvironment10ConstraintEEEE10deallocateERS5_PS4_m' type='func-type' binding='weak-binding' visibility='default-visibility' is-defined='yes'/>
    <elf-symbol name='_ZNSt16allocator_traitsISaISt13_Rb_tree_nodeISt4pairIKSsSsEEEE10_S_destroyIS3_EENSt9enable_ifIXsrSt6__and_IINS6_16__destroy_helperIT_E4typeEEE5valueEvE4typeERS5_PSB_' type='func-type' binding='weak-binding' visibility='default-visibility' alias='_ZNSt16allocator_traitsISaISt13_Rb_tree_nodeISt4pairIKSsSsEEEE10_S_destroyIS3_EENSt9enable_ifIXsrSt6__and_IJNS6_16__destroy_helperIT_E4typeEEE5valueEvE4typeERS5_PSB_' is-defined='yes'/>
    <elf-symbol name='_ZNSt16allocator_traitsISaISt13_Rb_tree_nodeISt4pairIKSsSsEEEE10_S_destroyIS3_EENSt9enable_ifIXsrSt6__and_IJNS6_16__destroy_helperIT_E4typeEEE5valueEvE4typeERS5_PSB_' type='func-type' binding='weak-binding' visibility='default-visibility' is-defined='yes'/>
    <elf-symbol name='_ZNSt16allocator_traitsISaISt13_Rb_tree_nodeISt4pairIKSsSsEEEE10deallocateERS5_PS4_m' type='func-type' binding='weak-binding' visibility='default-visibility' is-defined='yes'/>
    <elf-symbol name='_ZNSt16allocator_traitsISaISt13_Rb_tree_nodeISt4pairIKSsSsEEEE7destroyIS3_EEvRS5_PT_' type='func-type' binding='weak-binding' visibility='default-visibility' is-defined='yes'/>
    <elf-symbol name='_ZNSt17_Function_handlerIFN5mongo6StatusEPNS0_18InitializerContextEEPS4_E9_M_invokeERKSt9_Any_dataS3_' type='func-type' binding='weak-binding' visibility='default-visibility' is-defined='yes'/>
    <elf-symbol name='_ZNSt17_Rb_tree_iteratorISt4pairIKSsSsEEC1EPSt13_Rb_tree_nodeIS2_E' type='func-type' binding='weak-binding' visibility='default-visibility' is-defined='yes'/>
    <elf-symbol name='_ZNSt17_Rb_tree_iteratorISt4pairIKSsSsEEC2EPSt13_Rb_tree_nodeIS2_E' type='func-type' binding='weak-binding' visibility='default-visibility' alias='_ZNSt17_Rb_tree_iteratorISt4pairIKSsSsEEC1EPSt13_Rb_tree_nodeIS2_E' is-defined='yes'/>
    <elf-symbol name='_ZNSt17_Rb_tree_iteratorISt4pairIKSsSsEEppEi' type='func-type' binding='weak-binding' visibility='default-visibility' is-defined='yes'/>
    <elf-symbol name='_ZNSt20__uninitialized_copyILb0EE13__uninit_copyIN9__gnu_cxx17__normal_iteratorIPKSsSt6vectorISsSaISsEEEEPSsEET0_T_SC_SB_' type='func-type' binding='weak-binding' visibility='default-visibility' is-defined='yes'/>
    <elf-symbol name='_ZNSt20__uninitialized_copyILb0EE13__uninit_copyIPSsS2_EET0_T_S4_S3_' type='func-type' binding='weak-binding' visibility='default-visibility' is-defined='yes'/>
    <elf-symbol name='_ZNSt20__uninitialized_copyILb0EE13__uninit_copyISt13move_iteratorIPSsES3_EET0_T_S6_S5_' type='func-type' binding='weak-binding' visibility='default-visibility' is-defined='yes'/>
    <elf-symbol name='_ZNSt31_Maybe_unary_or_binary_functionIN5mongo6StatusEIPNS0_18InitializerContextEEEC1Ev' type='func-type' binding='weak-binding' visibility='default-visibility' is-defined='yes'/>
    <elf-symbol name='_ZNSt31_Maybe_unary_or_binary_functionIN5mongo6StatusEIPNS0_18InitializerContextEEEC2Ev' type='func-type' binding='weak-binding' visibility='default-visibility' is-defined='yes'/>
    <elf-symbol name='_ZNSt31_Maybe_unary_or_binary_functionIN5mongo6StatusEJPNS0_18InitializerContextEEEC1Ev' type='func-type' binding='weak-binding' visibility='default-visibility' alias='_ZNSt31_Maybe_unary_or_binary_functionIN5mongo6StatusEJPNS0_18InitializerContextEEEC2Ev,_ZNSt31_Maybe_unary_or_binary_functionIN5mongo6StatusEIPNS0_18InitializerContextEEEC1Ev,_ZNSt31_Maybe_unary_or_binary_functionIN5mongo6StatusEIPNS0_18InitializerContextEEEC2Ev' is-defined='yes'/>
    <elf-symbol name='_ZNSt31_Maybe_unary_or_binary_functionIN5mongo6StatusEJPNS0_18InitializerContextEEEC2Ev' type='func-type' binding='weak-binding' visibility='default-visibility' is-defined='yes'/>
    <elf-symbol name='_ZNSt3mapISsSsSt4lessISsESaISt4pairIKSsSsEEE3endEv' type='func-type' binding='weak-binding' visibility='default-visibility' is-defined='yes'/>
    <elf-symbol name='_ZNSt3mapISsSsSt4lessISsESaISt4pairIKSsSsEEE5beginEv' type='func-type' binding='weak-binding' visibility='default-visibility' is-defined='yes'/>
    <elf-symbol name='_ZNSt3mapISsSsSt4lessISsESaISt4pairIKSsSsEEEC1Ev' type='func-type' binding='weak-binding' visibility='default-visibility' is-defined='yes'/>
    <elf-symbol name='_ZNSt3mapISsSsSt4lessISsESaISt4pairIKSsSsEEEC2Ev' type='func-type' binding='weak-binding' visibility='default-visibility' alias='_ZNSt3mapISsSsSt4lessISsESaISt4pairIKSsSsEEEC1Ev' is-defined='yes'/>
    <elf-symbol name='_ZNSt3mapISsSsSt4lessISsESaISt4pairIKSsSsEEED1Ev' type='func-type' binding='weak-binding' visibility='default-visibility' alias='_ZNSt3mapISsSsSt4lessISsESaISt4pairIKSsSsEEED2Ev' is-defined='yes'/>
    <elf-symbol name='_ZNSt3mapISsSsSt4lessISsESaISt4pairIKSsSsEEED2Ev' type='func-type' binding='weak-binding' visibility='default-visibility' is-defined='yes'/>
    <elf-symbol name='_ZNSt4listIN5mongo17optionenvironment13OptionSectionESaIS2_EEC1Ev' type='func-type' binding='weak-binding' visibility='default-visibility' is-defined='yes'/>
    <elf-symbol name='_ZNSt4listIN5mongo17optionenvironment13OptionSectionESaIS2_EEC2Ev' type='func-type' binding='weak-binding' visibility='default-visibility' alias='_ZNSt4listIN5mongo17optionenvironment13OptionSectionESaIS2_EEC1Ev' is-defined='yes'/>
    <elf-symbol name='_ZNSt4listIN5mongo17optionenvironment13OptionSectionESaIS2_EED1Ev' type='func-type' binding='weak-binding' visibility='default-visibility' alias='_ZNSt4listIN5mongo17optionenvironment13OptionSectionESaIS2_EED2Ev' is-defined='yes'/>
    <elf-symbol name='_ZNSt4listIN5mongo17optionenvironment13OptionSectionESaIS2_EED2Ev' type='func-type' binding='weak-binding' visibility='default-visibility' is-defined='yes'/>
    <elf-symbol name='_ZNSt4listIN5mongo17optionenvironment17OptionDescriptionESaIS2_EEC1Ev' type='func-type' binding='weak-binding' visibility='default-visibility' is-defined='yes'/>
    <elf-symbol name='_ZNSt4listIN5mongo17optionenvironment17OptionDescriptionESaIS2_EEC2Ev' type='func-type' binding='weak-binding' visibility='default-visibility' alias='_ZNSt4listIN5mongo17optionenvironment17OptionDescriptionESaIS2_EEC1Ev' is-defined='yes'/>
    <elf-symbol name='_ZNSt4listIN5mongo17optionenvironment17OptionDescriptionESaIS2_EED1Ev' type='func-type' binding='weak-binding' visibility='default-visibility' is-defined='yes'/>
    <elf-symbol name='_ZNSt4listIN5mongo17optionenvironment17OptionDescriptionESaIS2_EED2Ev' type='func-type' binding='weak-binding' visibility='default-visibility' alias='_ZNSt4listIN5mongo17optionenvironment17OptionDescriptionESaIS2_EED1Ev' is-defined='yes'/>
    <elf-symbol name='_ZNSt4pairIKSsSsED1Ev' type='func-type' binding='weak-binding' visibility='default-visibility' is-defined='yes'/>
    <elf-symbol name='_ZNSt4pairIKSsSsED2Ev' type='func-type' binding='weak-binding' visibility='default-visibility' alias='_ZNSt4pairIKSsSsED1Ev' is-defined='yes'/>
    <elf-symbol name='_ZNSt6vectorISsSaISsEE12emplace_backIISsEEEvDpOT_' type='func-type' binding='weak-binding' visibility='default-visibility' alias='_ZNSt6vectorISsSaISsEE12emplace_backIJSsEEEvDpOT_' is-defined='yes'/>
    <elf-symbol name='_ZNSt6vectorISsSaISsEE12emplace_backIJSsEEEvDpOT_' type='func-type' binding='weak-binding' visibility='default-visibility' is-defined='yes'/>
    <elf-symbol name='_ZNSt6vectorISsSaISsEE14_M_move_assignEOS1_St17integral_constantIbLb1EE' type='func-type' binding='weak-binding' visibility='default-visibility' is-defined='yes'/>
    <elf-symbol name='_ZNSt6vectorISsSaISsEE15_M_erase_at_endEPSs' type='func-type' binding='weak-binding' visibility='default-visibility' is-defined='yes'/>
    <elf-symbol name='_ZNSt6vectorISsSaISsEE19_M_emplace_back_auxIISsEEEvDpOT_' type='func-type' binding='weak-binding' visibility='default-visibility' alias='_ZNSt6vectorISsSaISsEE19_M_emplace_back_auxIJSsEEEvDpOT_' is-defined='yes'/>
    <elf-symbol name='_ZNSt6vectorISsSaISsEE19_M_emplace_back_auxIJSsEEEvDpOT_' type='func-type' binding='weak-binding' visibility='default-visibility' is-defined='yes'/>
    <elf-symbol name='_ZNSt6vectorISsSaISsEE20_M_allocate_and_copyIN9__gnu_cxx17__normal_iteratorIPKSsS1_EEEEPSsmT_S9_' type='func-type' binding='weak-binding' visibility='default-visibility' is-defined='yes'/>
    <elf-symbol name='_ZNSt6vectorISsSaISsEE3endEv' type='func-type' binding='weak-binding' visibility='default-visibility' is-defined='yes'/>
    <elf-symbol name='_ZNSt6vectorISsSaISsEE5beginEv' type='func-type' binding='weak-binding' visibility='default-visibility' is-defined='yes'/>
    <elf-symbol name='_ZNSt6vectorISsSaISsEE5clearEv' type='func-type' binding='weak-binding' visibility='default-visibility' is-defined='yes'/>
    <elf-symbol name='_ZNSt6vectorISsSaISsEE9push_backEOSs' type='func-type' binding='weak-binding' visibility='default-visibility' is-defined='yes'/>
    <elf-symbol name='_ZNSt6vectorISsSaISsEEC1ERKS0_' type='func-type' binding='weak-binding' visibility='default-visibility' is-defined='yes'/>
    <elf-symbol name='_ZNSt6vectorISsSaISsEEC1Ev' type='func-type' binding='weak-binding' visibility='default-visibility' is-defined='yes'/>
    <elf-symbol name='_ZNSt6vectorISsSaISsEEC2ERKS0_' type='func-type' binding='weak-binding' visibility='default-visibility' alias='_ZNSt6vectorISsSaISsEEC1ERKS0_' is-defined='yes'/>
    <elf-symbol name='_ZNSt6vectorISsSaISsEEC2Ev' type='func-type' binding='weak-binding' visibility='default-visibility' alias='_ZNSt6vectorISsSaISsEEC1Ev' is-defined='yes'/>
    <elf-symbol name='_ZNSt6vectorISsSaISsEED1Ev' type='func-type' binding='weak-binding' visibility='default-visibility' is-defined='yes'/>
    <elf-symbol name='_ZNSt6vectorISsSaISsEED2Ev' type='func-type' binding='weak-binding' visibility='default-visibility' alias='_ZNSt6vectorISsSaISsEED1Ev' is-defined='yes'/>
    <elf-symbol name='_ZNSt6vectorISsSaISsEEaSEOS1_' type='func-type' binding='weak-binding' visibility='default-visibility' is-defined='yes'/>
    <elf-symbol name='_ZNSt6vectorISsSaISsEEaSERKS1_' type='func-type' binding='weak-binding' visibility='default-visibility' is-defined='yes'/>
    <elf-symbol name='_ZNSt6vectorISt10shared_ptrIN5mongo17optionenvironment10ConstraintEESaIS4_EED1Ev' type='func-type' binding='weak-binding' visibility='default-visibility' is-defined='yes'/>
    <elf-symbol name='_ZNSt6vectorISt10shared_ptrIN5mongo17optionenvironment10ConstraintEESaIS4_EED2Ev' type='func-type' binding='weak-binding' visibility='default-visibility' alias='_ZNSt6vectorISt10shared_ptrIN5mongo17optionenvironment10ConstraintEESaIS4_EED1Ev' is-defined='yes'/>
    <elf-symbol name='_ZNSt8_Rb_treeISsSt4pairIKSsSsESt10_Select1stIS2_ESt4lessISsESaIS2_EE11_M_put_nodeEPSt13_Rb_tree_nodeIS2_E' type='func-type' binding='weak-binding' visibility='default-visibility' is-defined='yes'/>
    <elf-symbol name='_ZNSt8_Rb_treeISsSt4pairIKSsSsESt10_Select1stIS2_ESt4lessISsESaIS2_EE13_Rb_tree_implIS6_Lb1EE13_M_initializeEv' type='func-type' binding='weak-binding' visibility='default-visibility' is-defined='yes'/>
    <elf-symbol name='_ZNSt8_Rb_treeISsSt4pairIKSsSsESt10_Select1stIS2_ESt4lessISsESaIS2_EE13_Rb_tree_implIS6_Lb1EEC1Ev' type='func-type' binding='weak-binding' visibility='default-visibility' is-defined='yes'/>
    <elf-symbol name='_ZNSt8_Rb_treeISsSt4pairIKSsSsESt10_Select1stIS2_ESt4lessISsESaIS2_EE13_Rb_tree_implIS6_Lb1EEC2Ev' type='func-type' binding='weak-binding' visibility='default-visibility' alias='_ZNSt8_Rb_treeISsSt4pairIKSsSsESt10_Select1stIS2_ESt4lessISsESaIS2_EE13_Rb_tree_implIS6_Lb1EEC1Ev' is-defined='yes'/>
    <elf-symbol name='_ZNSt8_Rb_treeISsSt4pairIKSsSsESt10_Select1stIS2_ESt4lessISsESaIS2_EE13_Rb_tree_implIS6_Lb1EED1Ev' type='func-type' binding='weak-binding' visibility='default-visibility' alias='_ZNSt8_Rb_treeISsSt4pairIKSsSsESt10_Select1stIS2_ESt4lessISsESaIS2_EE13_Rb_tree_implIS6_Lb1EED2Ev' is-defined='yes'/>
    <elf-symbol name='_ZNSt8_Rb_treeISsSt4pairIKSsSsESt10_Select1stIS2_ESt4lessISsESaIS2_EE13_Rb_tree_implIS6_Lb1EED2Ev' type='func-type' binding='weak-binding' visibility='default-visibility' is-defined='yes'/>
    <elf-symbol name='_ZNSt8_Rb_treeISsSt4pairIKSsSsESt10_Select1stIS2_ESt4lessISsESaIS2_EE15_M_destroy_nodeEPSt13_Rb_tree_nodeIS2_E' type='func-type' binding='weak-binding' visibility='default-visibility' is-defined='yes'/>
    <elf-symbol name='_ZNSt8_Rb_treeISsSt4pairIKSsSsESt10_Select1stIS2_ESt4lessISsESaIS2_EE21_M_get_Node_allocatorEv' type='func-type' binding='weak-binding' visibility='default-visibility' is-defined='yes'/>
    <elf-symbol name='_ZNSt8_Rb_treeISsSt4pairIKSsSsESt10_Select1stIS2_ESt4lessISsESaIS2_EE3endEv' type='func-type' binding='weak-binding' visibility='default-visibility' is-defined='yes'/>
    <elf-symbol name='_ZNSt8_Rb_treeISsSt4pairIKSsSsESt10_Select1stIS2_ESt4lessISsESaIS2_EE5beginEv' type='func-type' binding='weak-binding' visibility='default-visibility' is-defined='yes'/>
    <elf-symbol name='_ZNSt8_Rb_treeISsSt4pairIKSsSsESt10_Select1stIS2_ESt4lessISsESaIS2_EE7_S_leftEPSt18_Rb_tree_node_base' type='func-type' binding='weak-binding' visibility='default-visibility' is-defined='yes'/>
    <elf-symbol name='_ZNSt8_Rb_treeISsSt4pairIKSsSsESt10_Select1stIS2_ESt4lessISsESaIS2_EE8_M_beginEv' type='func-type' binding='weak-binding' visibility='default-visibility' is-defined='yes'/>
    <elf-symbol name='_ZNSt8_Rb_treeISsSt4pairIKSsSsESt10_Select1stIS2_ESt4lessISsESaIS2_EE8_M_eraseEPSt13_Rb_tree_nodeIS2_E' type='func-type' binding='weak-binding' visibility='default-visibility' is-defined='yes'/>
    <elf-symbol name='_ZNSt8_Rb_treeISsSt4pairIKSsSsESt10_Select1stIS2_ESt4lessISsESaIS2_EE8_S_rightEPSt18_Rb_tree_node_base' type='func-type' binding='weak-binding' visibility='default-visibility' is-defined='yes'/>
    <elf-symbol name='_ZNSt8_Rb_treeISsSt4pairIKSsSsESt10_Select1stIS2_ESt4lessISsESaIS2_EEC1Ev' type='func-type' binding='weak-binding' visibility='default-visibility' is-defined='yes'/>
    <elf-symbol name='_ZNSt8_Rb_treeISsSt4pairIKSsSsESt10_Select1stIS2_ESt4lessISsESaIS2_EEC2Ev' type='func-type' binding='weak-binding' visibility='default-visibility' alias='_ZNSt8_Rb_treeISsSt4pairIKSsSsESt10_Select1stIS2_ESt4lessISsESaIS2_EEC1Ev' is-defined='yes'/>
    <elf-symbol name='_ZNSt8_Rb_treeISsSt4pairIKSsSsESt10_Select1stIS2_ESt4lessISsESaIS2_EED1Ev' type='func-type' binding='weak-binding' visibility='default-visibility' is-defined='yes'/>
    <elf-symbol name='_ZNSt8_Rb_treeISsSt4pairIKSsSsESt10_Select1stIS2_ESt4lessISsESaIS2_EED2Ev' type='func-type' binding='weak-binding' visibility='default-visibility' alias='_ZNSt8_Rb_treeISsSt4pairIKSsSsESt10_Select1stIS2_ESt4lessISsESaIS2_EED1Ev' is-defined='yes'/>
    <elf-symbol name='_ZNSt8functionIFN5mongo6StatusEPNS0_18InitializerContextEEEC1IPS4_vEET_' type='func-type' binding='weak-binding' visibility='default-visibility' is-defined='yes'/>
    <elf-symbol name='_ZNSt8functionIFN5mongo6StatusEPNS0_18InitializerContextEEEC2IPS4_vEET_' type='func-type' binding='weak-binding' visibility='default-visibility' alias='_ZNSt8functionIFN5mongo6StatusEPNS0_18InitializerContextEEEC1IPS4_vEET_' is-defined='yes'/>
    <elf-symbol name='_ZNSt8functionIFN5mongo6StatusEPNS0_18InitializerContextEEED1Ev' type='func-type' binding='weak-binding' visibility='default-visibility' is-defined='yes'/>
    <elf-symbol name='_ZNSt8functionIFN5mongo6StatusEPNS0_18InitializerContextEEED2Ev' type='func-type' binding='weak-binding' visibility='default-visibility' alias='_ZNSt8functionIFN5mongo6StatusEPNS0_18InitializerContextEEED1Ev' is-defined='yes'/>
    <elf-symbol name='_ZNSt9_Any_data9_M_accessEv' type='func-type' binding='weak-binding' visibility='default-visibility' is-defined='yes'/>
    <elf-symbol name='_ZNSt9_Any_data9_M_accessIPFN5mongo6StatusEPNS1_18InitializerContextEEEERT_v' type='func-type' binding='weak-binding' visibility='default-visibility' is-defined='yes'/>
    <elf-symbol name='_ZNSt9_Any_data9_M_accessIPKSt9type_infoEERT_v' type='func-type' binding='weak-binding' visibility='default-visibility' is-defined='yes'/>
    <elf-symbol name='_ZNSt9_Any_data9_M_accessIPPFN5mongo6StatusEPNS1_18InitializerContextEEEERT_v' type='func-type' binding='weak-binding' visibility='default-visibility' is-defined='yes'/>
    <elf-symbol name='_ZNSt9exceptionC1Ev' type='func-type' binding='weak-binding' visibility='default-visibility' is-defined='yes'/>
    <elf-symbol name='_ZNSt9exceptionC2Ev' type='func-type' binding='weak-binding' visibility='default-visibility' alias='_ZNSt9exceptionC1Ev' is-defined='yes'/>
    <elf-symbol name='_ZSt10_ConstructISsIRKSsEEvPT_DpOT0_' type='func-type' binding='weak-binding' visibility='default-visibility' alias='_ZSt10_ConstructISsJRKSsEEvPT_DpOT0_' is-defined='yes'/>
    <elf-symbol name='_ZSt10_ConstructISsIRSsEEvPT_DpOT0_' type='func-type' binding='weak-binding' visibility='default-visibility' alias='_ZSt10_ConstructISsJRSsEEvPT_DpOT0_' is-defined='yes'/>
    <elf-symbol name='_ZSt10_ConstructISsISsEEvPT_DpOT0_' type='func-type' binding='weak-binding' visibility='default-visibility' alias='_ZSt10_ConstructISsJSsEEvPT_DpOT0_' is-defined='yes'/>
    <elf-symbol name='_ZSt10_ConstructISsJRKSsEEvPT_DpOT0_' type='func-type' binding='weak-binding' visibility='default-visibility' is-defined='yes'/>
    <elf-symbol name='_ZSt10_ConstructISsJRSsEEvPT_DpOT0_' type='func-type' binding='weak-binding' visibility='default-visibility' is-defined='yes'/>
    <elf-symbol name='_ZSt10_ConstructISsJSsEEvPT_DpOT0_' type='func-type' binding='weak-binding' visibility='default-visibility' is-defined='yes'/>
    <elf-symbol name='_ZSt11__addressofIKPFN5mongo6StatusEPNS0_18InitializerContextEEEPT_RS7_' type='func-type' binding='weak-binding' visibility='default-visibility' is-defined='yes'/>
    <elf-symbol name='_ZSt11__addressofISsEPT_RS0_' type='func-type' binding='weak-binding' visibility='default-visibility' is-defined='yes'/>
    <elf-symbol name='_ZSt11__addressofISt10shared_ptrIN5mongo17optionenvironment10ConstraintEEEPT_RS5_' type='func-type' binding='weak-binding' visibility='default-visibility' is-defined='yes'/>
    <elf-symbol name='_ZSt12__get_helperILm0EPN5mongo14BSONObjBuilderEISt14default_deleteIS1_EEENSt9__add_refIT0_E4typeERSt11_Tuple_implIXT_EIS6_DpT1_EE' type='func-type' binding='weak-binding' visibility='default-visibility' alias='_ZSt12__get_helperILm0EPN5mongo14BSONObjBuilderEJSt14default_deleteIS1_EEENSt9__add_refIT0_E4typeERSt11_Tuple_implIXT_EJS6_DpT1_EE' is-defined='yes'/>
    <elf-symbol name='_ZSt12__get_helperILm0EPN5mongo14BSONObjBuilderEJSt14default_deleteIS1_EEENSt9__add_refIT0_E4typeERSt11_Tuple_implIXT_EJS6_DpT1_EE' type='func-type' binding='weak-binding' visibility='default-visibility' is-defined='yes'/>
    <elf-symbol name='_ZSt12__get_helperILm0EPSt19basic_ostringstreamIcSt11char_traitsIcESaIcEEISt14default_deleteIS4_EEENSt11__add_c_refIT0_E4typeERKSt11_Tuple_implIXT_EIS9_DpT1_EE' type='func-type' binding='weak-binding' visibility='default-visibility' alias='_ZSt12__get_helperILm0EPSt19basic_ostringstreamIcSt11char_traitsIcESaIcEEJSt14default_deleteIS4_EEENSt11__add_c_refIT0_E4typeERKSt11_Tuple_implIXT_EJS9_DpT1_EE' is-defined='yes'/>
    <elf-symbol name='_ZSt12__get_helperILm0EPSt19basic_ostringstreamIcSt11char_traitsIcESaIcEEJSt14default_deleteIS4_EEENSt11__add_c_refIT0_E4typeERKSt11_Tuple_implIXT_EJS9_DpT1_EE' type='func-type' binding='weak-binding' visibility='default-visibility' is-defined='yes'/>
    <elf-symbol name='_ZSt12__get_helperILm1ESt14default_deleteIN5mongo14BSONObjBuilderEEIEENSt9__add_refIT0_E4typeERSt11_Tuple_implIXT_EIS5_DpT1_EE' type='func-type' binding='weak-binding' visibility='default-visibility' alias='_ZSt12__get_helperILm1ESt14default_deleteIN5mongo14BSONObjBuilderEEJEENSt9__add_refIT0_E4typeERSt11_Tuple_implIXT_EJS5_DpT1_EE' is-defined='yes'/>
    <elf-symbol name='_ZSt12__get_helperILm1ESt14default_deleteIN5mongo14BSONObjBuilderEEJEENSt9__add_refIT0_E4typeERSt11_Tuple_implIXT_EJS5_DpT1_EE' type='func-type' binding='weak-binding' visibility='default-visibility' is-defined='yes'/>
    <elf-symbol name='_ZSt12__miter_baseIN9__gnu_cxx17__normal_iteratorIPKSsSt6vectorISsSaISsEEEEENSt11_Miter_baseIT_E13iterator_typeES9_' type='func-type' binding='weak-binding' visibility='default-visibility' is-defined='yes'/>
    <elf-symbol name='_ZSt12__miter_baseIPSsENSt11_Miter_baseIT_E13iterator_typeES2_' type='func-type' binding='weak-binding' visibility='default-visibility' is-defined='yes'/>
    <elf-symbol name='_ZSt12__niter_baseIN9__gnu_cxx17__normal_iteratorIPKSsSt6vectorISsSaISsEEEEENSt11_Niter_baseIT_E13iterator_typeES9_' type='func-type' binding='weak-binding' visibility='default-visibility' is-defined='yes'/>
    <elf-symbol name='_ZSt12__niter_baseIN9__gnu_cxx17__normal_iteratorIPSsSt6vectorISsSaISsEEEEENSt11_Niter_baseIT_E13iterator_typeES8_' type='func-type' binding='weak-binding' visibility='default-visibility' is-defined='yes'/>
    <elf-symbol name='_ZSt12__niter_baseIPSsENSt11_Niter_baseIT_E13iterator_typeES2_' type='func-type' binding='weak-binding' visibility='default-visibility' is-defined='yes'/>
    <elf-symbol name='_ZSt13__copy_move_aILb0EPKSsPSsET1_T0_S4_S3_' type='func-type' binding='weak-binding' visibility='default-visibility' is-defined='yes'/>
    <elf-symbol name='_ZSt13__copy_move_aILb0EPSsS0_ET1_T0_S2_S1_' type='func-type' binding='weak-binding' visibility='default-visibility' is-defined='yes'/>
    <elf-symbol name='_ZSt14__copy_move_a2ILb0EN9__gnu_cxx17__normal_iteratorIPKSsSt6vectorISsSaISsEEEENS1_IPSsS6_EEET1_T0_SB_SA_' type='func-type' binding='weak-binding' visibility='default-visibility' is-defined='yes'/>
    <elf-symbol name='_ZSt14__copy_move_a2ILb0EPSsS0_ET1_T0_S2_S1_' type='func-type' binding='weak-binding' visibility='default-visibility' is-defined='yes'/>
    <elf-symbol name='_ZSt15__alloc_on_copyISaISsEEvRT_RKS1_' type='func-type' binding='weak-binding' visibility='default-visibility' is-defined='yes'/>
    <elf-symbol name='_ZSt15__alloc_on_moveISaISsEEvRT_S2_' type='func-type' binding='weak-binding' visibility='default-visibility' is-defined='yes'/>
    <elf-symbol name='_ZSt18__do_alloc_on_copyISaISsEEvRT_RKS1_St17integral_constantIbLb0EE' type='func-type' binding='weak-binding' visibility='default-visibility' is-defined='yes'/>
    <elf-symbol name='_ZSt18__do_alloc_on_moveISaISsEEvRT_S2_St17integral_constantIbLb1EE' type='func-type' binding='weak-binding' visibility='default-visibility' is-defined='yes'/>
    <elf-symbol name='_ZSt18uninitialized_copyIN9__gnu_cxx17__normal_iteratorIPKSsSt6vectorISsSaISsEEEEPSsET0_T_SA_S9_' type='func-type' binding='weak-binding' visibility='default-visibility' is-defined='yes'/>
    <elf-symbol name='_ZSt18uninitialized_copyIPSsS0_ET0_T_S2_S1_' type='func-type' binding='weak-binding' visibility='default-visibility' is-defined='yes'/>
    <elf-symbol name='_ZSt18uninitialized_copyISt13move_iteratorIPSsES1_ET0_T_S4_S3_' type='func-type' binding='weak-binding' visibility='default-visibility' is-defined='yes'/>
    <elf-symbol name='_ZSt22__uninitialized_copy_aIN9__gnu_cxx17__normal_iteratorIPKSsSt6vectorISsSaISsEEEEPSsSsET0_T_SA_S9_RSaIT1_E' type='func-type' binding='weak-binding' visibility='default-visibility' is-defined='yes'/>
    <elf-symbol name='_ZSt22__uninitialized_copy_aIPSsS0_SsET0_T_S2_S1_RSaIT1_E' type='func-type' binding='weak-binding' visibility='default-visibility' is-defined='yes'/>
    <elf-symbol name='_ZSt22__uninitialized_copy_aISt13move_iteratorIPSsES1_SsET0_T_S4_S3_RSaIT1_E' type='func-type' binding='weak-binding' visibility='default-visibility' is-defined='yes'/>
    <elf-symbol name='_ZSt32__make_move_if_noexcept_iteratorIPSsSt13move_iteratorIS0_EET0_T_' type='func-type' binding='weak-binding' visibility='default-visibility' is-defined='yes'/>
    <elf-symbol name='_ZSt34__uninitialized_move_if_noexcept_aIPSsS0_SaISsEET0_T_S3_S2_RT1_' type='func-type' binding='weak-binding' visibility='default-visibility' is-defined='yes'/>
    <elf-symbol name='_ZSt3getILm0EIPN5mongo14BSONObjBuilderESt14default_deleteIS1_EEENSt9__add_refINSt13tuple_elementIXT_ESt5tupleIIDpT0_EEE4typeEE4typeERSA_' type='func-type' binding='weak-binding' visibility='default-visibility' alias='_ZSt3getILm0EJPN5mongo14BSONObjBuilderESt14default_deleteIS1_EEENSt9__add_refINSt13tuple_elementIXT_ESt5tupleIJDpT0_EEE4typeEE4typeERSA_' is-defined='yes'/>
    <elf-symbol name='_ZSt3getILm0EIPSt19basic_ostringstreamIcSt11char_traitsIcESaIcEESt14default_deleteIS4_EEENSt11__add_c_refINSt13tuple_elementIXT_ESt5tupleIIDpT0_EEE4typeEE4typeERKSD_' type='func-type' binding='weak-binding' visibility='default-visibility' alias='_ZSt3getILm0EJPSt19basic_ostringstreamIcSt11char_traitsIcESaIcEESt14default_deleteIS4_EEENSt11__add_c_refINSt13tuple_elementIXT_ESt5tupleIJDpT0_EEE4typeEE4typeERKSD_' is-defined='yes'/>
    <elf-symbol name='_ZSt3getILm0EJPN5mongo14BSONObjBuilderESt14default_deleteIS1_EEENSt9__add_refINSt13tuple_elementIXT_ESt5tupleIJDpT0_EEE4typeEE4typeERSA_' type='func-type' binding='weak-binding' visibility='default-visibility' is-defined='yes'/>
    <elf-symbol name='_ZSt3getILm0EJPSt19basic_ostringstreamIcSt11char_traitsIcESaIcEESt14default_deleteIS4_EEENSt11__add_c_refINSt13tuple_elementIXT_ESt5tupleIJDpT0_EEE4typeEE4typeERKSD_' type='func-type' binding='weak-binding' visibility='default-visibility' is-defined='yes'/>
    <elf-symbol name='_ZSt3getILm1EIPN5mongo14BSONObjBuilderESt14default_deleteIS1_EEENSt9__add_refINSt13tuple_elementIXT_ESt5tupleIIDpT0_EEE4typeEE4typeERSA_' type='func-type' binding='weak-binding' visibility='default-visibility' alias='_ZSt3getILm1EJPN5mongo14BSONObjBuilderESt14default_deleteIS1_EEENSt9__add_refINSt13tuple_elementIXT_ESt5tupleIJDpT0_EEE4typeEE4typeERSA_' is-defined='yes'/>
    <elf-symbol name='_ZSt3getILm1EJPN5mongo14BSONObjBuilderESt14default_deleteIS1_EEENSt9__add_refINSt13tuple_elementIXT_ESt5tupleIJDpT0_EEE4typeEE4typeERSA_' type='func-type' binding='weak-binding' visibility='default-visibility' is-defined='yes'/>
    <elf-symbol name='_ZSt3maxImERKT_S2_S2_' type='func-type' binding='weak-binding' visibility='default-visibility' is-defined='yes'/>
    <elf-symbol name='_ZSt4copyIN9__gnu_cxx17__normal_iteratorIPKSsSt6vectorISsSaISsEEEENS1_IPSsS6_EEET0_T_SB_SA_' type='func-type' binding='weak-binding' visibility='default-visibility' is-defined='yes'/>
    <elf-symbol name='_ZSt4copyIPSsS0_ET0_T_S2_S1_' type='func-type' binding='weak-binding' visibility='default-visibility' is-defined='yes'/>
    <elf-symbol name='_ZSt4moveIRPFN5mongo6StatusEPNS0_18InitializerContextEEEONSt16remove_referenceIT_E4typeEOS8_' type='func-type' binding='weak-binding' visibility='default-visibility' is-defined='yes'/>
    <elf-symbol name='_ZSt4moveIRPSsEONSt16remove_referenceIT_E4typeEOS3_' type='func-type' binding='weak-binding' visibility='default-visibility' is-defined='yes'/>
    <elf-symbol name='_ZSt4moveIRSaISsEEONSt16remove_referenceIT_E4typeEOS3_' type='func-type' binding='weak-binding' visibility='default-visibility' is-defined='yes'/>
    <elf-symbol name='_ZSt4moveIRSsEONSt16remove_referenceIT_E4typeEOS2_' type='func-type' binding='weak-binding' visibility='default-visibility' is-defined='yes'/>
    <elf-symbol name='_ZSt4moveIRSt6vectorISsSaISsEEEONSt16remove_referenceIT_E4typeEOS5_' type='func-type' binding='weak-binding' visibility='default-visibility' is-defined='yes'/>
    <elf-symbol name='_ZSt4swapIPSsEvRT_S2_' type='func-type' binding='weak-binding' visibility='default-visibility' is-defined='yes'/>
    <elf-symbol name='_ZSt7forwardIPN5mongo18InitializerContextEEOT_RNSt16remove_referenceIS3_E4typeE' type='func-type' binding='weak-binding' visibility='default-visibility' is-defined='yes'/>
    <elf-symbol name='_ZSt7forwardIRKSsEOT_RNSt16remove_referenceIS2_E4typeE' type='func-type' binding='weak-binding' visibility='default-visibility' is-defined='yes'/>
    <elf-symbol name='_ZSt7forwardIRSsEOT_RNSt16remove_referenceIS1_E4typeE' type='func-type' binding='weak-binding' visibility='default-visibility' is-defined='yes'/>
    <elf-symbol name='_ZSt7forwardISsEOT_RNSt16remove_referenceIS0_E4typeE' type='func-type' binding='weak-binding' visibility='default-visibility' is-defined='yes'/>
    <elf-symbol name='_ZSt8_DestroyIN9__gnu_cxx17__normal_iteratorIPSsSt6vectorISsSaISsEEEEEvT_S7_' type='func-type' binding='weak-binding' visibility='default-visibility' is-defined='yes'/>
    <elf-symbol name='_ZSt8_DestroyIN9__gnu_cxx17__normal_iteratorIPSsSt6vectorISsSaISsEEEESsEvT_S7_RSaIT0_E' type='func-type' binding='weak-binding' visibility='default-visibility' is-defined='yes'/>
    <elf-symbol name='_ZSt8_DestroyIPSsEvT_S1_' type='func-type' binding='weak-binding' visibility='default-visibility' is-defined='yes'/>
    <elf-symbol name='_ZSt8_DestroyIPSsSsEvT_S1_RSaIT0_E' type='func-type' binding='weak-binding' visibility='default-visibility' is-defined='yes'/>
    <elf-symbol name='_ZSt8_DestroyIPSt10shared_ptrIN5mongo17optionenvironment10ConstraintEEEvT_S6_' type='func-type' binding='weak-binding' visibility='default-visibility' is-defined='yes'/>
    <elf-symbol name='_ZSt8_DestroyIPSt10shared_ptrIN5mongo17optionenvironment10ConstraintEES4_EvT_S6_RSaIT0_E' type='func-type' binding='weak-binding' visibility='default-visibility' is-defined='yes'/>
    <elf-symbol name='_ZSt8_DestroyISsEvPT_' type='func-type' binding='weak-binding' visibility='default-visibility' is-defined='yes'/>
    <elf-symbol name='_ZSt8_DestroyISt10shared_ptrIN5mongo17optionenvironment10ConstraintEEEvPT_' type='func-type' binding='weak-binding' visibility='default-visibility' is-defined='yes'/>
    <elf-symbol name='_ZSteqIPSsEbRKSt13move_iteratorIT_ES5_' type='func-type' binding='weak-binding' visibility='default-visibility' is-defined='yes'/>
    <elf-symbol name='_ZSteqIcSt11char_traitsIcESaIcEEbRKSbIT_T0_T1_EPKS3_' type='func-type' binding='weak-binding' visibility='default-visibility' is-defined='yes'/>
    <elf-symbol name='_ZStneIPSsEbRKSt13move_iteratorIT_ES5_' type='func-type' binding='weak-binding' visibility='default-visibility' is-defined='yes'/>
    <elf-symbol name='_ZStneISsEbRKSaIT_ES3_' type='func-type' binding='weak-binding' visibility='default-visibility' is-defined='yes'/>
    <elf-symbol name='_ZStorSt13_Ios_OpenmodeS_' type='func-type' binding='weak-binding' visibility='default-visibility' is-defined='yes'/>
    <elf-symbol name='_ZStplIcSt11char_traitsIcESaIcEESbIT_T0_T1_ERKS6_OS6_' type='func-type' binding='weak-binding' visibility='default-visibility' is-defined='yes'/>
    <elf-symbol name='_ZdlPvS_' type='func-type' binding='weak-binding' visibility='default-visibility' is-defined='yes'/>
    <elf-symbol name='_ZnwmPv' type='func-type' binding='weak-binding' visibility='default-visibility' is-defined='yes'/>
    <elf-symbol name='_fini' type='func-type' binding='global-binding' visibility='default-visibility' is-defined='yes'/>
    <elf-symbol name='_init' type='func-type' binding='global-binding' visibility='default-visibility' is-defined='yes'/>
  </elf-function-symbols>
  <elf-variable-symbols>
    <elf-symbol name='_ZN5mongo16saslGlobalParamsE' size='56' type='object-type' binding='global-binding' visibility='default-visibility' is-defined='yes'/>
    <elf-symbol name='_ZN5mongo19SASLHostNameSettingE' size='32' type='object-type' binding='global-binding' visibility='default-visibility' is-defined='yes'/>
    <elf-symbol name='_ZN5mongo20SASLAuthdPathSettingE' size='32' type='object-type' binding='global-binding' visibility='default-visibility' is-defined='yes'/>
    <elf-symbol name='_ZN5mongo22SASLServiceNameSettingE' size='32' type='object-type' binding='global-binding' visibility='default-visibility' is-defined='yes'/>
    <elf-symbol name='_ZN5mongo24scramIterationCountParamE' size='32' type='object-type' binding='global-binding' visibility='default-visibility' is-defined='yes'/>
    <elf-symbol name='_ZN5mongo35SASLAuthenticationMechanismsSettingE' size='32' type='object-type' binding='global-binding' visibility='default-visibility' is-defined='yes'/>
    <elf-symbol name='_ZTIFN5mongo6StatusEPNS_18InitializerContextEE' size='16' type='object-type' binding='weak-binding' visibility='default-visibility' is-defined='yes'/>
    <elf-symbol name='_ZTIN5mongo18AssertionExceptionE' size='24' type='object-type' binding='weak-binding' visibility='default-visibility' is-defined='yes'/>
    <elf-symbol name='_ZTIN5mongo23ExportedServerParameterISsEE' size='24' type='object-type' binding='weak-binding' visibility='default-visibility' is-defined='yes'/>
    <elf-symbol name='_ZTIN5mongo23ExportedServerParameterISt6vectorISsSaISsEEEE' size='24' type='object-type' binding='weak-binding' visibility='default-visibility' is-defined='yes'/>
    <elf-symbol name='_ZTIN5mongo23ExportedServerParameterIiEE' size='24' type='object-type' binding='weak-binding' visibility='default-visibility' is-defined='yes'/>
    <elf-symbol name='_ZTIN5mongo36ExportedScramIterationCountParameterE' size='24' type='object-type' binding='weak-binding' visibility='default-visibility' is-defined='yes'/>
    <elf-symbol name='_ZTIPFN5mongo6StatusEPNS_18InitializerContextEE' size='32' type='object-type' binding='weak-binding' visibility='default-visibility' is-defined='yes'/>
    <elf-symbol name='_ZTSFN5mongo6StatusEPNS_18InitializerContextEE' size='43' type='object-type' binding='weak-binding' visibility='default-visibility' is-defined='yes'/>
    <elf-symbol name='_ZTSN5mongo18AssertionExceptionE' size='29' type='object-type' binding='weak-binding' visibility='default-visibility' is-defined='yes'/>
    <elf-symbol name='_ZTSN5mongo23ExportedServerParameterISsEE' size='38' type='object-type' binding='weak-binding' visibility='default-visibility' is-defined='yes'/>
    <elf-symbol name='_ZTSN5mongo23ExportedServerParameterISt6vectorISsSaISsEEEE' size='55' type='object-type' binding='weak-binding' visibility='default-visibility' is-defined='yes'/>
    <elf-symbol name='_ZTSN5mongo23ExportedServerParameterIiEE' size='37' type='object-type' binding='weak-binding' visibility='default-visibility' is-defined='yes'/>
    <elf-symbol name='_ZTSN5mongo36ExportedScramIterationCountParameterE' size='47' type='object-type' binding='weak-binding' visibility='default-visibility' is-defined='yes'/>
    <elf-symbol name='_ZTSPFN5mongo6StatusEPNS_18InitializerContextEE' size='44' type='object-type' binding='weak-binding' visibility='default-visibility' is-defined='yes'/>
    <elf-symbol name='_ZTVN5mongo18AssertionExceptionE' size='88' type='object-type' binding='weak-binding' visibility='default-visibility' is-defined='yes'/>
    <elf-symbol name='_ZTVN5mongo23ExportedServerParameterISsEE' size='80' type='object-type' binding='weak-binding' visibility='default-visibility' is-defined='yes'/>
    <elf-symbol name='_ZTVN5mongo23ExportedServerParameterISt6vectorISsSaISsEEEE' size='80' type='object-type' binding='weak-binding' visibility='default-visibility' is-defined='yes'/>
    <elf-symbol name='_ZTVN5mongo23ExportedServerParameterIiEE' size='80' type='object-type' binding='weak-binding' visibility='default-visibility' is-defined='yes'/>
    <elf-symbol name='_ZTVN5mongo36ExportedScramIterationCountParameterE' size='80' type='object-type' binding='weak-binding' visibility='default-visibility' is-defined='yes'/>
  </elf-variable-symbols>
  <abi-instr address-size='64' path='src/mongo/db/auth/sasl_options.cpp' comp-dir-path='/home/andrew/Documents/10gen/dev/src/mongodb' language='LANG_C_plus_plus'>
    <type-decl name='bool' size-in-bits='8' id='c894953d'/>
    <array-type-def dimensions='1' type-id='c894953d' size-in-bits='112' id='48ad04be'>
      <subrange length='14' type-id='4c87fef4' id='48882d96'/>
    </array-type-def>
    <type-decl name='char' size-in-bits='8' id='a84c031d'/>
    <array-type-def dimensions='1' type-id='a84c031d' size-in-bits='96' id='ac151b64'>
      <subrange length='12' type-id='4c87fef4' id='84827bdc'/>
    </array-type-def>
    <array-type-def dimensions='1' type-id='a84c031d' size-in-bits='112' id='f01a039e'>
      <subrange length='14' type-id='4c87fef4' id='48882d96'/>
    </array-type-def>
    <array-type-def dimensions='1' type-id='a84c031d' size-in-bits='128' id='ac1fa8c0'>
      <subrange length='16' type-id='4c87fef4' id='848d0938'/>
    </array-type-def>
    <array-type-def dimensions='1' type-id='a84c031d' size-in-bits='8' id='89feb1ec'>
      <subrange length='1' type-id='4c87fef4' id='52f813b4'/>
    </array-type-def>
    <array-type-def dimensions='1' type-id='a84c031d' size-in-bits='160' id='664ac0b7'>
      <subrange length='20' type-id='4c87fef4' id='fdca39cf'/>
    </array-type-def>
    <array-type-def dimensions='1' type-id='a84c031d' size-in-bits='336' id='f2bf8127'>
      <subrange length='42' type-id='4c87fef4' id='cb7c937f'/>
    </array-type-def>
    <array-type-def dimensions='1' type-id='a84c031d' size-in-bits='32' id='8e0573fd'>
      <subrange length='4' type-id='4c87fef4' id='16fe7105'/>
    </array-type-def>
    <array-type-def dimensions='1' type-id='a84c031d' size-in-bits='400' id='a498e7b6'>
      <subrange length='50' type-id='4c87fef4' id='3c1860ce'/>
    </array-type-def>
    <class-decl name='__anonymous_struct__' size-in-bits='128' is-struct='yes' is-anonymous='yes' visibility='default' id='e7f43f72'>
      <data-member access='public' layout-offset-in-bits='0'>
        <var-decl name='__pfn' type-id='e570e18b' visibility='default' filepath='/usr/include/c++/4.9/functional' line='1761' column='1'/>
      </data-member>
      <data-member access='public' layout-offset-in-bits='64'>
        <var-decl name='__delta' type-id='bd54fe1a' visibility='default' filepath='/usr/include/c++/4.9/functional' line='1761' column='1'/>
      </data-member>
    </class-decl>
    <class-decl name='typedef __va_list_tag __va_list_tag' size-in-bits='192' is-struct='yes' visibility='default' id='ce184e0c'>
      <data-member access='public' layout-offset-in-bits='0'>
        <var-decl name='gp_offset' type-id='f0981eeb' visibility='default'/>
      </data-member>
      <data-member access='public' layout-offset-in-bits='32'>
        <var-decl name='fp_offset' type-id='f0981eeb' visibility='default'/>
      </data-member>
      <data-member access='public' layout-offset-in-bits='64'>
        <var-decl name='overflow_arg_area' type-id='eaa32e2f' visibility='default'/>
      </data-member>
      <data-member access='public' layout-offset-in-bits='128'>
        <var-decl name='reg_save_area' type-id='eaa32e2f' visibility='default'/>
      </data-member>
    </class-decl>
    <type-decl name='double' size-in-bits='64' id='a0eb0f08'/>
    <type-decl name='float' size-in-bits='32' id='a6c45d85'/>
    <type-decl name='int' size-in-bits='32' id='95e97e5e'/>
    <array-type-def dimensions='1' type-id='95e97e5e' size-in-bits='320' id='b7bd1749'>
      <subrange length='10' type-id='4c87fef4' id='487da03a'/>
    </array-type-def>
    <type-decl name='long double' size-in-bits='128' id='e095c704'/>
    <type-decl name='long int' size-in-bits='64' id='bd54fe1a'/>
    <type-decl name='long long int' size-in-bits='64' id='1eb56b1e'/>
    <type-decl name='long long unsigned int' size-in-bits='64' id='3a47d82b'/>
    <type-decl name='short int' size-in-bits='16' id='a2185560'/>
    <type-decl name='signed char' size-in-bits='8' id='28577a57'/>
    <type-decl name='sizetype' size-in-bits='64' id='4c87fef4'/>
    <array-type-def dimensions='1' type-id='c2931f67' size-in-bits='6400' id='04dc04c6'>
      <subrange length='100' type-id='4c87fef4' id='4196563c'/>
    </array-type-def>
    <type-decl name='unnamed-enum-underlying-type-32' is-anonymous='yes' size-in-bits='32' alignment-in-bits='32' id='9cac1fee'/>
    <type-decl name='unsigned char' size-in-bits='8' id='002ac4a6'/>
    <array-type-def dimensions='1' type-id='002ac4a6' size-in-bits='832' id='4c2148e1'>
      <subrange length='104' type-id='4c87fef4' id='419f5098'/>
    </array-type-def>
    <array-type-def dimensions='1' type-id='002ac4a6' size-in-bits='96' id='9299d7f7'>
      <subrange length='12' type-id='4c87fef4' id='84827bdc'/>
    </array-type-def>
    <array-type-def dimensions='1' type-id='002ac4a6' size-in-bits='128' id='92a46553'>
      <subrange length='16' type-id='4c87fef4' id='848d0938'/>
    </array-type-def>
    <array-type-def dimensions='1' type-id='002ac4a6' size-in-bits='24' id='09025bd3'>
      <subrange length='3' type-id='4c87fef4' id='56f209d2'/>
    </array-type-def>
    <array-type-def dimensions='1' type-id='002ac4a6' size-in-bits='40' id='4cfcb6b1'>
      <subrange length='5' type-id='4c87fef4' id='53010e10'/>
    </array-type-def>
    <type-decl name='unsigned int' size-in-bits='32' id='f0981eeb'/>
    <type-decl name='unsigned long int' size-in-bits='64' id='7359adad'/>
    <array-type-def dimensions='1' type-id='7359adad' size-in-bits='39936' id='75c76965'>
      <subrange length='624' type-id='4c87fef4' id='7bd57ebd'/>
    </array-type-def>
    <array-type-def dimensions='1' type-id='7359adad' size-in-bits='infinite' id='c99b5ecd'>
      <subrange length='infinite' id='031f2035'/>
    </array-type-def>
    <type-decl name='unsigned short int' size-in-bits='16' id='8efea9e5'/>
    <type-decl name='wchar_t' size-in-bits='32' id='c523b9f1'/>
    <class-decl name='_G_fpos_t' size-in-bits='128' is-struct='yes' naming-typedef-id='b7152aa8' visibility='default' filepath='/usr/include/_G_config.h' line='22' column='1' id='62271717'>
      <data-member access='public' layout-offset-in-bits='0'>
        <var-decl name='__pos' type-id='79989e9c' visibility='default' filepath='/usr/include/_G_config.h' line='23' column='1'/>
      </data-member>
      <data-member access='public' layout-offset-in-bits='64'>
        <var-decl name='__state' type-id='55e5b2b5' visibility='default' filepath='/usr/include/_G_config.h' line='24' column='1'/>
      </data-member>
    </class-decl>
    <typedef-decl name='_G_fpos_t' type-id='62271717' filepath='/usr/include/_G_config.h' line='25' column='1' id='b7152aa8'/>
    <typedef-decl name='_IO_lock_t' type-id='48b5725f' filepath='/usr/include/libio.h' line='154' column='1' id='bb4788fa'/>
    <class-decl name='_IO_marker' size-in-bits='192' is-struct='yes' visibility='default' filepath='/usr/include/libio.h' line='160' column='1' id='010ae0b9'>
      <data-member access='public' layout-offset-in-bits='0'>
        <var-decl name='_next' type-id='e4c6fa61' visibility='default' filepath='/usr/include/libio.h' line='161' column='1'/>
      </data-member>
      <data-member access='public' layout-offset-in-bits='64'>
        <var-decl name='_sbuf' type-id='dca988a5' visibility='default' filepath='/usr/include/libio.h' line='162' column='1'/>
      </data-member>
      <data-member access='public' layout-offset-in-bits='128'>
        <var-decl name='_pos' type-id='95e97e5e' visibility='default' filepath='/usr/include/libio.h' line='166' column='1'/>
      </data-member>
    </class-decl>
    <class-decl name='_IO_FILE' size-in-bits='1728' is-struct='yes' visibility='default' filepath='/usr/include/libio.h' line='245' column='1' id='ec1ed955'>
      <data-member access='public' layout-offset-in-bits='0'>
        <var-decl name='_flags' type-id='95e97e5e' visibility='default' filepath='/usr/include/libio.h' line='246' column='1'/>
      </data-member>
      <data-member access='public' layout-offset-in-bits='64'>
        <var-decl name='_IO_read_ptr' type-id='26a90f95' visibility='default' filepath='/usr/include/libio.h' line='251' column='1'/>
      </data-member>
      <data-member access='public' layout-offset-in-bits='128'>
        <var-decl name='_IO_read_end' type-id='26a90f95' visibility='default' filepath='/usr/include/libio.h' line='252' column='1'/>
      </data-member>
      <data-member access='public' layout-offset-in-bits='192'>
        <var-decl name='_IO_read_base' type-id='26a90f95' visibility='default' filepath='/usr/include/libio.h' line='253' column='1'/>
      </data-member>
      <data-member access='public' layout-offset-in-bits='256'>
        <var-decl name='_IO_write_base' type-id='26a90f95' visibility='default' filepath='/usr/include/libio.h' line='254' column='1'/>
      </data-member>
      <data-member access='public' layout-offset-in-bits='320'>
        <var-decl name='_IO_write_ptr' type-id='26a90f95' visibility='default' filepath='/usr/include/libio.h' line='255' column='1'/>
      </data-member>
      <data-member access='public' layout-offset-in-bits='384'>
        <var-decl name='_IO_write_end' type-id='26a90f95' visibility='default' filepath='/usr/include/libio.h' line='256' column='1'/>
      </data-member>
      <data-member access='public' layout-offset-in-bits='448'>
        <var-decl name='_IO_buf_base' type-id='26a90f95' visibility='default' filepath='/usr/include/libio.h' line='257' column='1'/>
      </data-member>
      <data-member access='public' layout-offset-in-bits='512'>
        <var-decl name='_IO_buf_end' type-id='26a90f95' visibility='default' filepath='/usr/include/libio.h' line='258' column='1'/>
      </data-member>
      <data-member access='public' layout-offset-in-bits='576'>
        <var-decl name='_IO_save_base' type-id='26a90f95' visibility='default' filepath='/usr/include/libio.h' line='260' column='1'/>
      </data-member>
      <data-member access='public' layout-offset-in-bits='640'>
        <var-decl name='_IO_backup_base' type-id='26a90f95' visibility='default' filepath='/usr/include/libio.h' line='261' column='1'/>
      </data-member>
      <data-member access='public' layout-offset-in-bits='704'>
        <var-decl name='_IO_save_end' type-id='26a90f95' visibility='default' filepath='/usr/include/libio.h' line='262' column='1'/>
      </data-member>
      <data-member access='public' layout-offset-in-bits='768'>
        <var-decl name='_markers' type-id='e4c6fa61' visibility='default' filepath='/usr/include/libio.h' line='264' column='1'/>
      </data-member>
      <data-member access='public' layout-offset-in-bits='832'>
        <var-decl name='_chain' type-id='dca988a5' visibility='default' filepath='/usr/include/libio.h' line='266' column='1'/>
      </data-member>
      <data-member access='public' layout-offset-in-bits='896'>
        <var-decl name='_fileno' type-id='95e97e5e' visibility='default' filepath='/usr/include/libio.h' line='268' column='1'/>
      </data-member>
      <data-member access='public' layout-offset-in-bits='928'>
        <var-decl name='_flags2' type-id='95e97e5e' visibility='default' filepath='/usr/include/libio.h' line='272' column='1'/>
      </data-member>
      <data-member access='public' layout-offset-in-bits='960'>
        <var-decl name='_old_offset' type-id='79989e9c' visibility='default' filepath='/usr/include/libio.h' line='274' column='1'/>
      </data-member>
      <data-member access='public' layout-offset-in-bits='1024'>
        <var-decl name='_cur_column' type-id='8efea9e5' visibility='default' filepath='/usr/include/libio.h' line='278' column='1'/>
      </data-member>
      <data-member access='public' layout-offset-in-bits='1040'>
        <var-decl name='_vtable_offset' type-id='28577a57' visibility='default' filepath='/usr/include/libio.h' line='279' column='1'/>
      </data-member>
      <data-member access='public' layout-offset-in-bits='1048'>
        <var-decl name='_shortbuf' type-id='89feb1ec' visibility='default' filepath='/usr/include/libio.h' line='280' column='1'/>
      </data-member>
      <data-member access='public' layout-offset-in-bits='1088'>
        <var-decl name='_lock' type-id='cecf4ea7' visibility='default' filepath='/usr/include/libio.h' line='284' column='1'/>
      </data-member>
      <data-member access='public' layout-offset-in-bits='1152'>
        <var-decl name='_offset' type-id='724e4de6' visibility='default' filepath='/usr/include/libio.h' line='293' column='1'/>
      </data-member>
      <data-member access='public' layout-offset-in-bits='1216'>
        <var-decl name='__pad1' type-id='eaa32e2f' visibility='default' filepath='/usr/include/libio.h' line='302' column='1'/>
      </data-member>
      <data-member access='public' layout-offset-in-bits='1280'>
        <var-decl name='__pad2' type-id='eaa32e2f' visibility='default' filepath='/usr/include/libio.h' line='303' column='1'/>
      </data-member>
      <data-member access='public' layout-offset-in-bits='1344'>
        <var-decl name='__pad3' type-id='eaa32e2f' visibility='default' filepath='/usr/include/libio.h' line='304' column='1'/>
      </data-member>
      <data-member access='public' layout-offset-in-bits='1408'>
        <var-decl name='__pad4' type-id='eaa32e2f' visibility='default' filepath='/usr/include/libio.h' line='305' column='1'/>
      </data-member>
      <data-member access='public' layout-offset-in-bits='1472'>
        <var-decl name='__pad5' type-id='b59d7dce' visibility='default' filepath='/usr/include/libio.h' line='306' column='1'/>
      </data-member>
      <data-member access='public' layout-offset-in-bits='1536'>
        <var-decl name='_mode' type-id='95e97e5e' visibility='default' filepath='/usr/include/libio.h' line='308' column='1'/>
      </data-member>
      <data-member access='public' layout-offset-in-bits='1568'>
        <var-decl name='_unused2' type-id='664ac0b7' visibility='default' filepath='/usr/include/libio.h' line='310' column='1'/>
      </data-member>
    </class-decl>
    <class-decl name='lconv' size-in-bits='768' is-struct='yes' visibility='default' filepath='/usr/include/locale.h' line='53' column='1' id='58591d3d'>
      <data-member access='public' layout-offset-in-bits='0'>
        <var-decl name='decimal_point' type-id='26a90f95' visibility='default' filepath='/usr/include/locale.h' line='57' column='1'/>
      </data-member>
      <data-member access='public' layout-offset-in-bits='64'>
        <var-decl name='thousands_sep' type-id='26a90f95' visibility='default' filepath='/usr/include/locale.h' line='58' column='1'/>
      </data-member>
      <data-member access='public' layout-offset-in-bits='128'>
        <var-decl name='grouping' type-id='26a90f95' visibility='default' filepath='/usr/include/locale.h' line='64' column='1'/>
      </data-member>
      <data-member access='public' layout-offset-in-bits='192'>
        <var-decl name='int_curr_symbol' type-id='26a90f95' visibility='default' filepath='/usr/include/locale.h' line='70' column='1'/>
      </data-member>
      <data-member access='public' layout-offset-in-bits='256'>
        <var-decl name='currency_symbol' type-id='26a90f95' visibility='default' filepath='/usr/include/locale.h' line='71' column='1'/>
      </data-member>
      <data-member access='public' layout-offset-in-bits='320'>
        <var-decl name='mon_decimal_point' type-id='26a90f95' visibility='default' filepath='/usr/include/locale.h' line='72' column='1'/>
      </data-member>
      <data-member access='public' layout-offset-in-bits='384'>
        <var-decl name='mon_thousands_sep' type-id='26a90f95' visibility='default' filepath='/usr/include/locale.h' line='73' column='1'/>
      </data-member>
      <data-member access='public' layout-offset-in-bits='448'>
        <var-decl name='mon_grouping' type-id='26a90f95' visibility='default' filepath='/usr/include/locale.h' line='74' column='1'/>
      </data-member>
      <data-member access='public' layout-offset-in-bits='512'>
        <var-decl name='positive_sign' type-id='26a90f95' visibility='default' filepath='/usr/include/locale.h' line='75' column='1'/>
      </data-member>
      <data-member access='public' layout-offset-in-bits='576'>
        <var-decl name='negative_sign' type-id='26a90f95' visibility='default' filepath='/usr/include/locale.h' line='76' column='1'/>
      </data-member>
      <data-member access='public' layout-offset-in-bits='640'>
        <var-decl name='int_frac_digits' type-id='a84c031d' visibility='default' filepath='/usr/include/locale.h' line='77' column='1'/>
      </data-member>
      <data-member access='public' layout-offset-in-bits='648'>
        <var-decl name='frac_digits' type-id='a84c031d' visibility='default' filepath='/usr/include/locale.h' line='78' column='1'/>
      </data-member>
      <data-member access='public' layout-offset-in-bits='656'>
        <var-decl name='p_cs_precedes' type-id='a84c031d' visibility='default' filepath='/usr/include/locale.h' line='80' column='1'/>
      </data-member>
      <data-member access='public' layout-offset-in-bits='664'>
        <var-decl name='p_sep_by_space' type-id='a84c031d' visibility='default' filepath='/usr/include/locale.h' line='82' column='1'/>
      </data-member>
      <data-member access='public' layout-offset-in-bits='672'>
        <var-decl name='n_cs_precedes' type-id='a84c031d' visibility='default' filepath='/usr/include/locale.h' line='84' column='1'/>
      </data-member>
      <data-member access='public' layout-offset-in-bits='680'>
        <var-decl name='n_sep_by_space' type-id='a84c031d' visibility='default' filepath='/usr/include/locale.h' line='86' column='1'/>
      </data-member>
      <data-member access='public' layout-offset-in-bits='688'>
        <var-decl name='p_sign_posn' type-id='a84c031d' visibility='default' filepath='/usr/include/locale.h' line='93' column='1'/>
      </data-member>
      <data-member access='public' layout-offset-in-bits='696'>
        <var-decl name='n_sign_posn' type-id='a84c031d' visibility='default' filepath='/usr/include/locale.h' line='94' column='1'/>
      </data-member>
      <data-member access='public' layout-offset-in-bits='704'>
        <var-decl name='int_p_cs_precedes' type-id='a84c031d' visibility='default' filepath='/usr/include/locale.h' line='97' column='1'/>
      </data-member>
      <data-member access='public' layout-offset-in-bits='712'>
        <var-decl name='int_p_sep_by_space' type-id='a84c031d' visibility='default' filepath='/usr/include/locale.h' line='99' column='1'/>
      </data-member>
      <data-member access='public' layout-offset-in-bits='720'>
        <var-decl name='int_n_cs_precedes' type-id='a84c031d' visibility='default' filepath='/usr/include/locale.h' line='101' column='1'/>
      </data-member>
      <data-member access='public' layout-offset-in-bits='728'>
        <var-decl name='int_n_sep_by_space' type-id='a84c031d' visibility='default' filepath='/usr/include/locale.h' line='103' column='1'/>
      </data-member>
      <data-member access='public' layout-offset-in-bits='736'>
        <var-decl name='int_p_sign_posn' type-id='a84c031d' visibility='default' filepath='/usr/include/locale.h' line='110' column='1'/>
      </data-member>
      <data-member access='public' layout-offset-in-bits='744'>
        <var-decl name='int_n_sign_posn' type-id='a84c031d' visibility='default' filepath='/usr/include/locale.h' line='111' column='1'/>
      </data-member>
    </class-decl>
    <typedef-decl name='int8_t' type-id='28577a57' filepath='/usr/include/stdint.h' line='36' column='1' id='ee31ee44'/>
    <typedef-decl name='int32_t' type-id='95e97e5e' filepath='/usr/include/stdint.h' line='38' column='1' id='3ff5601b'/>
    <typedef-decl name='int64_t' type-id='bd54fe1a' filepath='/usr/include/stdint.h' line='40' column='1' id='9da381c4'/>
    <typedef-decl name='uint32_t' type-id='f0981eeb' filepath='/usr/include/stdint.h' line='51' column='1' id='8f92235e'/>
    <typedef-decl name='uint64_t' type-id='7359adad' filepath='/usr/include/stdint.h' line='55' column='1' id='9c313c2d'/>
    <typedef-decl name='intmax_t' type-id='bd54fe1a' filepath='/usr/include/stdint.h' line='134' column='1' id='e104d842'/>
    <typedef-decl name='FILE' type-id='ec1ed955' filepath='/usr/include/stdio.h' line='48' column='1' id='aa12d1ba'/>
    <typedef-decl name='__FILE' type-id='ec1ed955' filepath='/usr/include/stdio.h' line='64' column='1' id='79311084'/>
    <typedef-decl name='fpos_t' type-id='b7152aa8' filepath='/usr/include/stdio.h' line='110' column='1' id='e322b6ef'/>
    <class-decl name='div_t' size-in-bits='64' is-struct='yes' naming-typedef-id='f702ecec' visibility='default' filepath='/usr/include/stdlib.h' line='98' column='1' id='1fc6054b'>
      <data-member access='public' layout-offset-in-bits='0'>
        <var-decl name='quot' type-id='95e97e5e' visibility='default' filepath='/usr/include/stdlib.h' line='99' column='1'/>
      </data-member>
      <data-member access='public' layout-offset-in-bits='32'>
        <var-decl name='rem' type-id='95e97e5e' visibility='default' filepath='/usr/include/stdlib.h' line='100' column='1'/>
      </data-member>
    </class-decl>
    <typedef-decl name='div_t' type-id='1fc6054b' filepath='/usr/include/stdlib.h' line='101' column='1' id='f702ecec'/>
    <class-decl name='ldiv_t' size-in-bits='128' is-struct='yes' naming-typedef-id='30397bf8' visibility='default' filepath='/usr/include/stdlib.h' line='106' column='1' id='9b5926fd'>
      <data-member access='public' layout-offset-in-bits='0'>
        <var-decl name='quot' type-id='bd54fe1a' visibility='default' filepath='/usr/include/stdlib.h' line='107' column='1'/>
      </data-member>
      <data-member access='public' layout-offset-in-bits='64'>
        <var-decl name='rem' type-id='bd54fe1a' visibility='default' filepath='/usr/include/stdlib.h' line='108' column='1'/>
      </data-member>
    </class-decl>
    <typedef-decl name='ldiv_t' type-id='9b5926fd' filepath='/usr/include/stdlib.h' line='109' column='1' id='30397bf8'/>
    <class-decl name='lldiv_t' size-in-bits='128' is-struct='yes' naming-typedef-id='f5fa3b34' visibility='default' filepath='/usr/include/stdlib.h' line='118' column='1' id='649cba4b'>
      <data-member access='public' layout-offset-in-bits='0'>
        <var-decl name='quot' type-id='1eb56b1e' visibility='default' filepath='/usr/include/stdlib.h' line='119' column='1'/>
      </data-member>
      <data-member access='public' layout-offset-in-bits='64'>
        <var-decl name='rem' type-id='1eb56b1e' visibility='default' filepath='/usr/include/stdlib.h' line='120' column='1'/>
      </data-member>
    </class-decl>
    <typedef-decl name='lldiv_t' type-id='649cba4b' filepath='/usr/include/stdlib.h' line='121' column='1' id='f5fa3b34'/>
    <typedef-decl name='__compar_fn_t' type-id='585e1de9' filepath='/usr/include/stdlib.h' line='741' column='1' id='aba7edd8'/>
    <typedef-decl name='clock_t' type-id='4d66c6d7' filepath='/usr/include/time.h' line='59' column='1' id='4c3a2c61'/>
    <typedef-decl name='time_t' type-id='65eda9c0' filepath='/usr/include/time.h' line='75' column='1' id='c9d12d66'/>
    <class-decl name='tm' size-in-bits='448' is-struct='yes' visibility='default' filepath='/usr/include/time.h' line='133' column='1' id='dddf6ca2'>
      <data-member access='public' layout-offset-in-bits='0'>
        <var-decl name='tm_sec' type-id='95e97e5e' visibility='default' filepath='/usr/include/time.h' line='135' column='1'/>
      </data-member>
      <data-member access='public' layout-offset-in-bits='32'>
        <var-decl name='tm_min' type-id='95e97e5e' visibility='default' filepath='/usr/include/time.h' line='136' column='1'/>
      </data-member>
      <data-member access='public' layout-offset-in-bits='64'>
        <var-decl name='tm_hour' type-id='95e97e5e' visibility='default' filepath='/usr/include/time.h' line='137' column='1'/>
      </data-member>
      <data-member access='public' layout-offset-in-bits='96'>
        <var-decl name='tm_mday' type-id='95e97e5e' visibility='default' filepath='/usr/include/time.h' line='138' column='1'/>
      </data-member>
      <data-member access='public' layout-offset-in-bits='128'>
        <var-decl name='tm_mon' type-id='95e97e5e' visibility='default' filepath='/usr/include/time.h' line='139' column='1'/>
      </data-member>
      <data-member access='public' layout-offset-in-bits='160'>
        <var-decl name='tm_year' type-id='95e97e5e' visibility='default' filepath='/usr/include/time.h' line='140' column='1'/>
      </data-member>
      <data-member access='public' layout-offset-in-bits='192'>
        <var-decl name='tm_wday' type-id='95e97e5e' visibility='default' filepath='/usr/include/time.h' line='141' column='1'/>
      </data-member>
      <data-member access='public' layout-offset-in-bits='224'>
        <var-decl name='tm_yday' type-id='95e97e5e' visibility='default' filepath='/usr/include/time.h' line='142' column='1'/>
      </data-member>
      <data-member access='public' layout-offset-in-bits='256'>
        <var-decl name='tm_isdst' type-id='95e97e5e' visibility='default' filepath='/usr/include/time.h' line='143' column='1'/>
      </data-member>
      <data-member access='public' layout-offset-in-bits='320'>
        <var-decl name='tm_gmtoff' type-id='bd54fe1a' visibility='default' filepath='/usr/include/time.h' line='146' column='1'/>
      </data-member>
      <data-member access='public' layout-offset-in-bits='384'>
        <var-decl name='tm_zone' type-id='80f4b756' visibility='default' filepath='/usr/include/time.h' line='147' column='1'/>
      </data-member>
    </class-decl>
    <class-decl name='__mbstate_t' size-in-bits='64' is-struct='yes' naming-typedef-id='55e5b2b5' visibility='default' filepath='/usr/include/wchar.h' line='83' column='1' id='87447a2e'>
      <member-type access='public'>
        <union-decl name='__anonymous_union__' size-in-bits='32' is-anonymous='yes' visibility='default' filepath='/usr/include/wchar.h' line='86' column='1' id='ac5ab595'>
          <data-member access='public'>
            <var-decl name='__wch' type-id='f0981eeb' visibility='default' filepath='/usr/include/wchar.h' line='88' column='1'/>
          </data-member>
          <data-member access='public'>
            <var-decl name='__wchb' type-id='8e0573fd' visibility='default' filepath='/usr/include/wchar.h' line='92' column='1'/>
          </data-member>
        </union-decl>
      </member-type>
      <data-member access='public' layout-offset-in-bits='0'>
        <var-decl name='__count' type-id='95e97e5e' visibility='default' filepath='/usr/include/wchar.h' line='84' column='1'/>
      </data-member>
      <data-member access='public' layout-offset-in-bits='32'>
        <var-decl name='__value' type-id='ac5ab595' visibility='default' filepath='/usr/include/wchar.h' line='93' column='1'/>
      </data-member>
    </class-decl>
    <typedef-decl name='__mbstate_t' type-id='87447a2e' filepath='/usr/include/wchar.h' line='94' column='1' id='55e5b2b5'/>
    <typedef-decl name='mbstate_t' type-id='55e5b2b5' filepath='/usr/include/wchar.h' line='106' column='1' id='3d7d8cbf'/>
    <typedef-decl name='wctype_t' type-id='7359adad' filepath='/usr/include/wctype.h' line='52' column='1' id='ba50424d'/>
    <typedef-decl name='wctrans_t' type-id='a0de50cd' filepath='/usr/include/wctype.h' line='186' column='1' id='183c72c3'/>
    <typedef-decl name='__int32_t' type-id='95e97e5e' filepath='/usr/include/x86_64-linux-gnu/bits/types.h' line='40' column='1' id='33f57a65'/>
    <typedef-decl name='__off_t' type-id='bd54fe1a' filepath='/usr/include/x86_64-linux-gnu/bits/types.h' line='131' column='1' id='79989e9c'/>
    <typedef-decl name='__off64_t' type-id='bd54fe1a' filepath='/usr/include/x86_64-linux-gnu/bits/types.h' line='132' column='1' id='724e4de6'/>
    <typedef-decl name='__clock_t' type-id='bd54fe1a' filepath='/usr/include/x86_64-linux-gnu/bits/types.h' line='135' column='1' id='4d66c6d7'/>
    <typedef-decl name='__time_t' type-id='bd54fe1a' filepath='/usr/include/x86_64-linux-gnu/bits/types.h' line='139' column='1' id='65eda9c0'/>
    <typedef-decl name='_Atomic_word' type-id='95e97e5e' filepath='/usr/include/x86_64-linux-gnu/c++/4.9/bits/atomic_word.h' line='32' column='1' id='e9464a99'/>
    <typedef-decl name='size_t' type-id='7359adad' filepath='/usr/lib/gcc/x86_64-linux-gnu/4.9/include/stddef.h' line='212' column='1' id='b59d7dce'/>
    <typedef-decl name='wint_t' type-id='f0981eeb' filepath='/usr/lib/gcc/x86_64-linux-gnu/4.9/include/stddef.h' line='353' column='1' id='6dd37369'/>
    <pointer-type-def type-id='aa12d1ba' size-in-bits='64' id='822cd80b'/>
    <pointer-type-def type-id='ec1ed955' size-in-bits='64' id='dca988a5'/>
    <pointer-type-def type-id='bb4788fa' size-in-bits='64' id='cecf4ea7'/>
    <pointer-type-def type-id='010ae0b9' size-in-bits='64' id='e4c6fa61'/>
    <pointer-type-def type-id='79311084' size-in-bits='64' id='b9c57915'/>
    <pointer-type-def type-id='0ec3ee30' size-in-bits='64' id='62afc966'/>
    <pointer-type-def type-id='0d27ff27' size-in-bits='64' id='ff54b97f'/>
    <pointer-type-def type-id='7f1521f4' size-in-bits='64' id='e36bafd2'/>
    <reference-type-def kind='lvalue' type-id='f196f186' size-in-bits='64' id='542d6b83'/>
    <reference-type-def kind='lvalue' type-id='dc10b467' size-in-bits='64' id='1bb1ffae'/>
    <reference-type-def kind='lvalue' type-id='fadac50c' size-in-bits='64' id='a71c7b25'/>
    <reference-type-def kind='lvalue' type-id='7e579d76' size-in-bits='64' id='2e8449b5'/>
    <reference-type-def kind='lvalue' type-id='c533fe53' size-in-bits='64' id='a3a8c9b0'/>
    <reference-type-def kind='lvalue' type-id='1bb30a27' size-in-bits='64' id='320a5646'/>
    <reference-type-def kind='lvalue' type-id='a9df688f' size-in-bits='64' id='98214f54'/>
    <reference-type-def kind='lvalue' type-id='f9b78d2a' size-in-bits='64' id='1eca7b4c'/>
    <pointer-type-def type-id='f9b78d2a' size-in-bits='64' id='22ca8198'/>
    <reference-type-def kind='lvalue' type-id='60a45a77' size-in-bits='64' id='22b2b74b'/>
    <pointer-type-def type-id='60a45a77' size-in-bits='64' id='1eb2b0ff'/>
    <reference-type-def kind='lvalue' type-id='9f371d90' size-in-bits='64' id='cb61470a'/>
    <pointer-type-def type-id='9f371d90' size-in-bits='64' id='bf613426'/>
    <reference-type-def kind='lvalue' type-id='fe24d8b1' size-in-bits='64' id='8e314bbd'/>
    <pointer-type-def type-id='fe24d8b1' size-in-bits='64' id='823138d9'/>
    <pointer-type-def type-id='9b24038f' size-in-bits='64' id='d903de27'/>
    <pointer-type-def type-id='0f8a821a' size-in-bits='64' id='04a9a848'/>
    <pointer-type-def type-id='77a2ce9b' size-in-bits='64' id='f3b3b70b'/>
    <pointer-type-def type-id='ae3b5d4b' size-in-bits='64' id='33bb12fb'/>
    <pointer-type-def type-id='9d796101' size-in-bits='64' id='e609ab79'/>
    <pointer-type-def type-id='5d34846c' size-in-bits='64' id='8d4d797a'/>
    <pointer-type-def type-id='620fdf2a' size-in-bits='64' id='ea04f038'/>
    <pointer-type-def type-id='c92078d7' size-in-bits='64' id='1c0d82af'/>
    <pointer-type-def type-id='e5642ba0' size-in-bits='64' id='08ac76c6'/>
    <pointer-type-def type-id='4d2bcbf7' size-in-bits='64' id='d9f19a5f'/>
    <pointer-type-def type-id='8401074f' size-in-bits='64' id='d077f2e7'/>
    <pointer-type-def type-id='f1f3b078' size-in-bits='64' id='61454a4e'/>
    <pointer-type-def type-id='6ccee52b' size-in-bits='64' id='4349b2fb'/>
    <pointer-type-def type-id='944877b7' size-in-bits='64' id='c7ea734f'/>
    <pointer-type-def type-id='5766dd86' size-in-bits='64' id='9ec106bc'/>
    <pointer-type-def type-id='8c3cde51' size-in-bits='64' id='9d84e1e9'/>
    <pointer-type-def type-id='535450e1' size-in-bits='64' id='e5aa8339'/>
    <pointer-type-def type-id='5532abfb' size-in-bits='64' id='5698ba0b'/>
    <pointer-type-def type-id='af8f8b57' size-in-bits='64' id='8a9436af'/>
    <pointer-type-def type-id='9a9ec5e1' size-in-bits='64' id='98ccd619'/>
    <pointer-type-def type-id='6190fe36' size-in-bits='64' id='5cfb7e6c'/>
    <pointer-type-def type-id='7c37fd55' size-in-bits='64' id='a440cb15'/>
    <pointer-type-def type-id='1abfd453' size-in-bits='64' id='074ef113'/>
    <pointer-type-def type-id='fc32bf7d' size-in-bits='64' id='a2579219'/>
    <reference-type-def kind='lvalue' type-id='c894953d' size-in-bits='64' id='dce6b981'/>
    <pointer-type-def type-id='c894953d' size-in-bits='64' id='d8e6b335'/>
    <reference-type-def kind='lvalue' type-id='93bbd91a' size-in-bits='64' id='3fede03c'/>
    <reference-type-def kind='rvalue' type-id='93bbd91a' size-in-bits='64' id='bd77c8ee'/>
    <pointer-type-def type-id='93bbd91a' size-in-bits='64' id='43ede688'/>
    <pointer-type-def type-id='5c4cc98b' size-in-bits='64' id='9ebdba7b'/>
    <reference-type-def kind='lvalue' type-id='3b57dccd' size-in-bits='64' id='686c99e9'/>
    <reference-type-def kind='rvalue' type-id='3b57dccd' size-in-bits='64' id='31f620dd'/>
    <pointer-type-def type-id='3b57dccd' size-in-bits='64' id='746caccd'/>
    <reference-type-def kind='lvalue' type-id='5b9b5004' size-in-bits='64' id='b85035de'/>
    <pointer-type-def type-id='5b9b5004' size-in-bits='64' id='b4502f92'/>
    <reference-type-def kind='lvalue' type-id='3d2e43d2' size-in-bits='64' id='fc553fb4'/>
    <pointer-type-def type-id='3d2e43d2' size-in-bits='64' id='f0552cd0'/>
    <reference-type-def kind='lvalue' type-id='26e4c20b' size-in-bits='64' id='cf55e4ef'/>
    <pointer-type-def type-id='26e4c20b' size-in-bits='64' id='d355eb3b'/>
    <pointer-type-def type-id='44a236b3' size-in-bits='64' id='bc790753'/>
    <reference-type-def kind='lvalue' type-id='9dfdad4e' size-in-bits='64' id='4f1b4ed0'/>
    <pointer-type-def type-id='9dfdad4e' size-in-bits='64' id='5b1b61b4'/>
    <reference-type-def kind='lvalue' type-id='f4d787bb' size-in-bits='64' id='d6e7b72f'/>
    <pointer-type-def type-id='f4d787bb' size-in-bits='64' id='dae7bd7b'/>
    <reference-type-def kind='lvalue' type-id='a84c031d' size-in-bits='64' id='2aa915e1'/>
    <pointer-type-def type-id='a84c031d' size-in-bits='64' id='26a90f95'/>
    <qualified-type-def type-id='26a90f95' const='yes' id='57de658a'/>
    <reference-type-def kind='lvalue' type-id='57de658a' size-in-bits='64' id='ff1a0dc4'/>
    <pointer-type-def type-id='26a90f95' size-in-bits='64' id='9b23c9ad'/>
    <reference-type-def kind='lvalue' type-id='f2bf8127' size-in-bits='64' id='24781493'/>
    <reference-type-def kind='lvalue' type-id='a498e7b6' size-in-bits='64' id='acb487b0'/>
    <pointer-type-def type-id='18f57279' size-in-bits='64' id='34f33bed'/>
    <pointer-type-def type-id='3147e301' size-in-bits='64' id='752293ad'/>
    <qualified-type-def type-id='752293ad' const='yes' id='86c04382'/>
    <reference-type-def kind='lvalue' type-id='86c04382' size-in-bits='64' id='c4aa7b2c'/>
    <pointer-type-def type-id='86c04382' size-in-bits='64' id='c8aa8178'/>
    <reference-type-def kind='lvalue' type-id='752293ad' size-in-bits='64' id='f06e43d1'/>
    <reference-type-def kind='rvalue' type-id='752293ad' size-in-bits='64' id='7494fdd5'/>
    <pointer-type-def type-id='752293ad' size-in-bits='64' id='ec6e3d85'/>
    <reference-type-def kind='lvalue' type-id='ec6e3d85' size-in-bits='64' id='d48b0799'/>
    <qualified-type-def type-id='0ec3ee30' const='yes' id='93e721d1'/>
    <pointer-type-def type-id='93e721d1' size-in-bits='64' id='cfda7e21'/>
    <qualified-type-def type-id='0d27ff27' const='yes' id='97b52506'/>
    <pointer-type-def type-id='97b52506' size-in-bits='64' id='fe298444'/>
    <qualified-type-def type-id='7f1521f4' const='yes' id='42680f45'/>
    <pointer-type-def type-id='42680f45' size-in-bits='64' id='f8d04bbd'/>
    <qualified-type-def type-id='f196f186' const='yes' id='3b5e47b6'/>
    <reference-type-def kind='lvalue' type-id='3b5e47b6' size-in-bits='64' id='056aa7b0'/>
    <qualified-type-def type-id='dc10b467' const='yes' id='cea093d7'/>
    <reference-type-def kind='lvalue' type-id='cea093d7' size-in-bits='64' id='37c8e463'/>
    <qualified-type-def type-id='fadac50c' const='yes' id='22e4b21c'/>
    <reference-type-def kind='lvalue' type-id='22e4b21c' size-in-bits='64' id='2804914e'/>
    <qualified-type-def type-id='7e579d76' const='yes' id='36230ae6'/>
    <reference-type-def kind='lvalue' type-id='36230ae6' size-in-bits='64' id='f929ec40'/>
    <qualified-type-def type-id='c533fe53' const='yes' id='a0a82ec3'/>
    <reference-type-def kind='lvalue' type-id='a0a82ec3' size-in-bits='64' id='cdc1d27f'/>
    <qualified-type-def type-id='1bb30a27' const='yes' id='d464d637'/>
    <reference-type-def kind='lvalue' type-id='d464d637' size-in-bits='64' id='6bbcfcc3'/>
    <qualified-type-def type-id='a9df688f' const='yes' id='4c05889f'/>
    <reference-type-def kind='lvalue' type-id='4c05889f' size-in-bits='64' id='65b63b3b'/>
    <qualified-type-def type-id='f9b78d2a' const='yes' id='ac32dcf7'/>
    <pointer-type-def type-id='ac32dcf7' size-in-bits='64' id='f111afe7'/>
    <qualified-type-def type-id='60a45a77' const='yes' id='11223392'/>
    <pointer-type-def type-id='11223392' size-in-bits='64' id='b0d76aa8'/>
    <qualified-type-def type-id='9f371d90' const='yes' id='dd8f31f7'/>
    <reference-type-def kind='lvalue' type-id='dd8f31f7' size-in-bits='64' id='996b6c03'/>
    <pointer-type-def type-id='dd8f31f7' size-in-bits='64' id='a56b7ee7'/>
    <qualified-type-def type-id='fe24d8b1' const='yes' id='8b20a91e'/>
    <reference-type-def kind='lvalue' type-id='8b20a91e' size-in-bits='64' id='3c6a6328'/>
    <pointer-type-def type-id='8b20a91e' size-in-bits='64' id='386a5cdc'/>
    <qualified-type-def type-id='9b24038f' const='yes' id='993d1042'/>
    <reference-type-def kind='lvalue' type-id='993d1042' size-in-bits='64' id='9f20cd6c'/>
    <pointer-type-def type-id='993d1042' size-in-bits='64' id='a320d3b8'/>
    <qualified-type-def type-id='0f8a821a' const='yes' id='2878ac73'/>
    <reference-type-def kind='lvalue' type-id='2878ac73' size-in-bits='64' id='0af749cf'/>
    <pointer-type-def type-id='2878ac73' size-in-bits='64' id='0ef7501b'/>
    <qualified-type-def type-id='77a2ce9b' const='yes' id='d29b1b04'/>
    <reference-type-def kind='lvalue' type-id='d29b1b04' size-in-bits='64' id='ac2bb686'/>
    <pointer-type-def type-id='d29b1b04' size-in-bits='64' id='b82bc96a'/>
    <qualified-type-def type-id='ae3b5d4b' const='yes' id='ab34868e'/>
    <reference-type-def kind='lvalue' type-id='ab34868e' size-in-bits='64' id='2baffa78'/>
    <pointer-type-def type-id='ab34868e' size-in-bits='64' id='27aff42c'/>
    <qualified-type-def type-id='9d796101' const='yes' id='4c3a05c6'/>
    <reference-type-def kind='lvalue' type-id='4c3a05c6' size-in-bits='64' id='df573fa0'/>
    <pointer-type-def type-id='4c3a05c6' size-in-bits='64' id='eb575284'/>
    <qualified-type-def type-id='5d34846c' const='yes' id='4101f001'/>
    <reference-type-def kind='lvalue' type-id='4101f001' size-in-bits='64' id='7d0d0d65'/>
    <pointer-type-def type-id='4101f001' size-in-bits='64' id='810d13b1'/>
    <qualified-type-def type-id='620fdf2a' const='yes' id='1193ce91'/>
    <reference-type-def kind='lvalue' type-id='1193ce91' size-in-bits='64' id='62ae6a15'/>
    <pointer-type-def type-id='1193ce91' size-in-bits='64' id='66ae7061'/>
    <qualified-type-def type-id='c92078d7' const='yes' id='5e438b42'/>
    <reference-type-def kind='lvalue' type-id='5e438b42' size-in-bits='64' id='c8546e6c'/>
    <pointer-type-def type-id='5e438b42' size-in-bits='64' id='cc5474b8'/>
    <qualified-type-def type-id='e5642ba0' const='yes' id='9884d963'/>
    <reference-type-def kind='lvalue' type-id='9884d963' size-in-bits='64' id='5e22079f'/>
    <pointer-type-def type-id='9884d963' size-in-bits='64' id='62220deb'/>
    <qualified-type-def type-id='4d2bcbf7' const='yes' id='a9a15220'/>
    <reference-type-def kind='lvalue' type-id='a9a15220' size-in-bits='64' id='0ef41f72'/>
    <pointer-type-def type-id='a9a15220' size-in-bits='64' id='12f425be'/>
    <qualified-type-def type-id='8401074f' const='yes' id='51e019a4'/>
    <reference-type-def kind='lvalue' type-id='51e019a4' size-in-bits='64' id='65c827a6'/>
    <pointer-type-def type-id='51e019a4' size-in-bits='64' id='71c83a8a'/>
    <qualified-type-def type-id='f1f3b078' const='yes' id='965deee7'/>
    <reference-type-def kind='lvalue' type-id='965deee7' size-in-bits='64' id='76ded9d3'/>
    <pointer-type-def type-id='965deee7' size-in-bits='64' id='82deecb7'/>
    <qualified-type-def type-id='6ccee52b' const='yes' id='8b9d5346'/>
    <reference-type-def kind='lvalue' type-id='8b9d5346' size-in-bits='64' id='28aa4020'/>
    <pointer-type-def type-id='8b9d5346' size-in-bits='64' id='34aa5304'/>
    <qualified-type-def type-id='944877b7' const='yes' id='b4d21496'/>
    <reference-type-def kind='lvalue' type-id='b4d21496' size-in-bits='64' id='56b69110'/>
    <pointer-type-def type-id='b4d21496' size-in-bits='64' id='62b6a3f4'/>
    <qualified-type-def type-id='5766dd86' const='yes' id='630d1ed3'/>
    <reference-type-def kind='lvalue' type-id='630d1ed3' size-in-bits='64' id='e2a7bbaf'/>
    <pointer-type-def type-id='630d1ed3' size-in-bits='64' id='e6a7c1fb'/>
    <qualified-type-def type-id='8c3cde51' const='yes' id='0372a6d4'/>
    <reference-type-def kind='lvalue' type-id='0372a6d4' size-in-bits='64' id='5f7ccef6'/>
    <pointer-type-def type-id='0372a6d4' size-in-bits='64' id='6b7ce1da'/>
    <qualified-type-def type-id='535450e1' const='yes' id='420e3a70'/>
    <reference-type-def kind='lvalue' type-id='420e3a70' size-in-bits='64' id='5265d562'/>
    <pointer-type-def type-id='420e3a70' size-in-bits='64' id='5665dbae'/>
    <qualified-type-def type-id='5532abfb' const='yes' id='4be0720c'/>
    <reference-type-def kind='lvalue' type-id='4be0720c' size-in-bits='64' id='9c53b81e'/>
    <pointer-type-def type-id='4be0720c' size-in-bits='64' id='9853b1d2'/>
    <qualified-type-def type-id='af8f8b57' const='yes' id='47846abc'/>
    <reference-type-def kind='lvalue' type-id='47846abc' size-in-bits='64' id='2f73d06e'/>
    <pointer-type-def type-id='47846abc' size-in-bits='64' id='2b73ca22'/>
    <qualified-type-def type-id='9a9ec5e1' const='yes' id='ac260b86'/>
    <reference-type-def kind='lvalue' type-id='ac260b86' size-in-bits='64' id='9fe44ce0'/>
    <pointer-type-def type-id='ac260b86' size-in-bits='64' id='abe45fc4'/>
    <qualified-type-def type-id='6190fe36' const='yes' id='489b4d2d'/>
    <reference-type-def kind='lvalue' type-id='489b4d2d' size-in-bits='64' id='577a4851'/>
    <pointer-type-def type-id='489b4d2d' size-in-bits='64' id='537a4205'/>
    <qualified-type-def type-id='7c37fd55' const='yes' id='192c262e'/>
    <reference-type-def kind='lvalue' type-id='192c262e' size-in-bits='64' id='a87fde98'/>
    <pointer-type-def type-id='192c262e' size-in-bits='64' id='a47fd84c'/>
    <qualified-type-def type-id='1abfd453' const='yes' id='e3933f36'/>
    <reference-type-def kind='lvalue' type-id='e3933f36' size-in-bits='64' id='50cc4630'/>
    <pointer-type-def type-id='e3933f36' size-in-bits='64' id='5ccc5914'/>
    <qualified-type-def type-id='33f57a65' const='yes' id='21fd6035'/>
    <pointer-type-def type-id='21fd6035' size-in-bits='64' id='a0de50cd'/>
    <qualified-type-def type-id='c894953d' const='yes' id='4ab96a04'/>
    <reference-type-def kind='lvalue' type-id='4ab96a04' size-in-bits='64' id='c3e21386'/>
    <pointer-type-def type-id='4ab96a04' size-in-bits='64' id='cfe2266a'/>
    <qualified-type-def type-id='93bbd91a' const='yes' id='85ea0e77'/>
    <reference-type-def kind='lvalue' type-id='85ea0e77' size-in-bits='64' id='20748983'/>
    <pointer-type-def type-id='85ea0e77' size-in-bits='64' id='2c749c67'/>
    <qualified-type-def type-id='5c4cc98b' const='yes' id='29db4f4c'/>
    <pointer-type-def type-id='29db4f4c' size-in-bits='64' id='4a3dfd92'/>
    <qualified-type-def type-id='3b57dccd' const='yes' id='316ead16'/>
    <reference-type-def kind='lvalue' type-id='316ead16' size-in-bits='64' id='013aa290'/>
    <pointer-type-def type-id='316ead16' size-in-bits='64' id='0d3ab574'/>
    <qualified-type-def type-id='0559ebd1' const='yes' id='04b6443c'/>
    <reference-type-def kind='lvalue' type-id='04b6443c' size-in-bits='64' id='84ed34ee'/>
    <pointer-type-def type-id='04b6443c' size-in-bits='64' id='80ed2ea2'/>
    <qualified-type-def type-id='5b9b5004' const='yes' id='a926c58f'/>
    <reference-type-def kind='lvalue' type-id='a926c58f' size-in-bits='64' id='f109290b'/>
    <pointer-type-def type-id='a926c58f' size-in-bits='64' id='ed0922bf'/>
    <qualified-type-def type-id='26e4c20b' const='yes' id='509e18ea'/>
    <pointer-type-def type-id='509e18ea' size-in-bits='64' id='a8e0f640'/>
    <qualified-type-def type-id='44a236b3' const='yes' id='c4890e52'/>
    <pointer-type-def type-id='c4890e52' size-in-bits='64' id='dbc1c6e8'/>
    <qualified-type-def type-id='9dfdad4e' const='yes' id='213fd8a1'/>
    <reference-type-def kind='lvalue' type-id='213fd8a1' size-in-bits='64' id='de81dc85'/>
    <pointer-type-def type-id='213fd8a1' size-in-bits='64' id='e281e2d1'/>
    <qualified-type-def type-id='f4d787bb' const='yes' id='7838947a'/>
    <reference-type-def kind='lvalue' type-id='7838947a' size-in-bits='64' id='9d118cd4'/>
    <pointer-type-def type-id='7838947a' size-in-bits='64' id='911179f0'/>
    <qualified-type-def type-id='a84c031d' const='yes' id='9b45d938'/>
    <reference-type-def kind='lvalue' type-id='9b45d938' size-in-bits='64' id='8cf4ca3a'/>
    <pointer-type-def type-id='9b45d938' size-in-bits='64' id='80f4b756'/>
    <qualified-type-def type-id='80f4b756' const='yes' id='b99c00c9'/>
    <reference-type-def kind='lvalue' type-id='b99c00c9' size-in-bits='64' id='1f95783d'/>
    <reference-type-def kind='lvalue' type-id='80f4b756' size-in-bits='64' id='713cc550'/>
    <pointer-type-def type-id='80f4b756' size-in-bits='64' id='7d3cd834'/>
    <qualified-type-def type-id='e322b6ef' const='yes' id='59d28eff'/>
    <pointer-type-def type-id='59d28eff' size-in-bits='64' id='3b76d94f'/>
    <qualified-type-def type-id='95e97e5e' const='yes' id='2448a865'/>
    <reference-type-def kind='lvalue' type-id='2448a865' size-in-bits='64' id='6160e179'/>
    <qualified-type-def type-id='e104d842' const='yes' id='7e3a1912'/>
    <qualified-type-def type-id='bd54fe1a' const='yes' id='9cb2385f'/>
    <qualified-type-def type-id='1eb56b1e' const='yes' id='ca7c9639'/>
    <qualified-type-def type-id='3a47d82b' const='yes' id='340461fe'/>
    <qualified-type-def type-id='3d7d8cbf' const='yes' id='7411c98f'/>
    <pointer-type-def type-id='7411c98f' size-in-bits='64' id='5d006ebf'/>
    <qualified-type-def type-id='a31f7002' const='yes' id='aa934055'/>
    <pointer-type-def type-id='aa934055' size-in-bits='64' id='04ce87ed'/>
    <qualified-type-def type-id='90f82cea' const='yes' id='ee4802ed'/>
    <pointer-type-def type-id='ee4802ed' size-in-bits='64' id='e25c5f45'/>
    <qualified-type-def type-id='cbc8203e' const='yes' id='a395c3c7'/>
    <reference-type-def kind='lvalue' type-id='a395c3c7' size-in-bits='64' id='65c35b33'/>
    <qualified-type-def type-id='abe206f4' const='yes' id='2893754f'/>
    <reference-type-def kind='lvalue' type-id='2893754f' size-in-bits='64' id='4921d44b'/>
    <qualified-type-def type-id='b0e52a27' const='yes' id='d7aeca0c'/>
    <reference-type-def kind='lvalue' type-id='d7aeca0c' size-in-bits='64' id='b228401e'/>
    <qualified-type-def type-id='c08878fc' const='yes' id='0cd60a4d'/>
    <reference-type-def kind='lvalue' type-id='0cd60a4d' size-in-bits='64' id='9ff26671'/>
    <qualified-type-def type-id='80b859f7' const='yes' id='6c0a585a'/>
    <reference-type-def kind='lvalue' type-id='6c0a585a' size-in-bits='64' id='90494b34'/>
    <pointer-type-def type-id='6c0a585a' size-in-bits='64' id='84493850'/>
    <qualified-type-def type-id='b91a817a' const='yes' id='9ee91d3f'/>
    <reference-type-def kind='lvalue' type-id='9ee91d3f' size-in-bits='64' id='41f8ce5b'/>
    <pointer-type-def type-id='9ee91d3f' size-in-bits='64' id='3df8c80f'/>
    <qualified-type-def type-id='8d435d09' const='yes' id='2b19e88e'/>
    <reference-type-def kind='lvalue' type-id='2b19e88e' size-in-bits='64' id='81c94078'/>
    <qualified-type-def type-id='0a6a8535' const='yes' id='9b62b566'/>
    <reference-type-def kind='lvalue' type-id='9b62b566' size-in-bits='64' id='dc6353c0'/>
    <pointer-type-def type-id='9b62b566' size-in-bits='64' id='e86366a4'/>
    <qualified-type-def type-id='269b1e42' const='yes' id='c8a059f7'/>
    <reference-type-def kind='lvalue' type-id='c8a059f7' size-in-bits='64' id='a56d6403'/>
    <pointer-type-def type-id='c8a059f7' size-in-bits='64' id='b16d76e7'/>
    <qualified-type-def type-id='655a4620' const='yes' id='f7e614e5'/>
    <reference-type-def kind='lvalue' type-id='f7e614e5' size-in-bits='64' id='0232aef9'/>
    <qualified-type-def type-id='36b1cc98' const='yes' id='2fcfbe2d'/>
    <reference-type-def kind='lvalue' type-id='2fcfbe2d' size-in-bits='64' id='4f082b51'/>
    <qualified-type-def type-id='1ffda070' const='yes' id='74b8929d'/>
    <reference-type-def kind='lvalue' type-id='74b8929d' size-in-bits='64' id='798efc61'/>
    <pointer-type-def type-id='74b8929d' size-in-bits='64' id='758ef615'/>
    <qualified-type-def type-id='9bce7bd1' const='yes' id='07f59892'/>
    <reference-type-def kind='lvalue' type-id='07f59892' size-in-bits='64' id='3b9f635c'/>
    <qualified-type-def type-id='1c5d2153' const='yes' id='a6852f76'/>
    <reference-type-def kind='lvalue' type-id='a6852f76' size-in-bits='64' id='73a97af0'/>
    <pointer-type-def type-id='a6852f76' size-in-bits='64' id='7fa98dd4'/>
    <qualified-type-def type-id='3d3cfec3' const='yes' id='9f3d2386'/>
    <reference-type-def kind='lvalue' type-id='9f3d2386' size-in-bits='64' id='4d3f14e0'/>
    <pointer-type-def type-id='9f3d2386' size-in-bits='64' id='593f27c4'/>
    <qualified-type-def type-id='de9e067a' const='yes' id='5838e2ab'/>
    <pointer-type-def type-id='5838e2ab' size-in-bits='64' id='628c9113'/>
    <qualified-type-def type-id='92f4e602' const='yes' id='ff2ab831'/>
    <pointer-type-def type-id='ff2ab831' size-in-bits='64' id='cb3fd281'/>
    <qualified-type-def type-id='90cae49e' const='yes' id='ca2f6f05'/>
    <reference-type-def kind='lvalue' type-id='ca2f6f05' size-in-bits='64' id='6babf419'/>
    <qualified-type-def type-id='9e57f7a8' const='yes' id='18bc6627'/>
    <pointer-type-def type-id='18bc6627' size-in-bits='64' id='fd94a677'/>
    <qualified-type-def type-id='a260b71f' const='yes' id='14bf96d0'/>
    <reference-type-def kind='lvalue' type-id='14bf96d0' size-in-bits='64' id='9f9aa542'/>
    <pointer-type-def type-id='14bf96d0' size-in-bits='64' id='a39aab8e'/>
    <qualified-type-def type-id='4a1ccd3e' const='yes' id='0601725a'/>
    <qualified-type-def type-id='a9d0f294' const='yes' id='45b6ffe1'/>
    <reference-type-def kind='lvalue' type-id='45b6ffe1' size-in-bits='64' id='8614a645'/>
    <pointer-type-def type-id='45b6ffe1' size-in-bits='64' id='8a14ac91'/>
    <qualified-type-def type-id='23b4a1a3' const='yes' id='c7728a80'/>
    <pointer-type-def type-id='c7728a80' size-in-bits='64' id='a350499e'/>
    <qualified-type-def type-id='b5945972' const='yes' id='d160fdc9'/>
    <pointer-type-def type-id='d160fdc9' size-in-bits='64' id='7eafac59'/>
    <qualified-type-def type-id='16ebd464' const='yes' id='bfe180a5'/>
    <pointer-type-def type-id='bfe180a5' size-in-bits='64' id='9efd611d'/>
    <qualified-type-def type-id='bba4551c' const='yes' id='a040ec97'/>
    <reference-type-def kind='lvalue' type-id='a040ec97' size-in-bits='64' id='f7349aa3'/>
    <pointer-type-def type-id='a040ec97' size-in-bits='64' id='0334ad87'/>
    <qualified-type-def type-id='0bbeac63' const='yes' id='ab4d7b13'/>
    <reference-type-def kind='lvalue' type-id='ab4d7b13' size-in-bits='64' id='dff8f46f'/>
    <qualified-type-def type-id='d16ef896' const='yes' id='2297ec46'/>
    <reference-type-def kind='lvalue' type-id='2297ec46' size-in-bits='64' id='d5291b20'/>
    <qualified-type-def type-id='6bd002c6' const='yes' id='285d80d9'/>
    <reference-type-def kind='lvalue' type-id='285d80d9' size-in-bits='64' id='8a32116d'/>
    <qualified-type-def type-id='79ec9d92' const='yes' id='ee74f305'/>
    <reference-type-def kind='lvalue' type-id='ee74f305' size-in-bits='64' id='851ac019'/>
    <pointer-type-def type-id='ee74f305' size-in-bits='64' id='911ad2fd'/>
    <qualified-type-def type-id='627edbe1' const='yes' id='314be2b4'/>
    <reference-type-def kind='lvalue' type-id='314be2b4' size-in-bits='64' id='2c75abd6'/>
    <pointer-type-def type-id='314be2b4' size-in-bits='64' id='3875beba'/>
    <qualified-type-def type-id='e41c73b3' const='yes' id='ab9a4666'/>
    <reference-type-def kind='lvalue' type-id='ab9a4666' size-in-bits='64' id='63dc96c0'/>
    <qualified-type-def type-id='11e0c1d9' const='yes' id='5f904a98'/>
    <reference-type-def kind='lvalue' type-id='5f904a98' size-in-bits='64' id='2e25a91a'/>
    <qualified-type-def type-id='f1b945df' const='yes' id='7c131b5e'/>
    <reference-type-def kind='lvalue' type-id='7c131b5e' size-in-bits='64' id='ca143de8'/>
    <qualified-type-def type-id='5beda56d' const='yes' id='7248aaf0'/>
    <reference-type-def kind='lvalue' type-id='7248aaf0' size-in-bits='64' id='be64eee2'/>
    <pointer-type-def type-id='7248aaf0' size-in-bits='64' id='c264f52e'/>
    <qualified-type-def type-id='b085e78f' const='yes' id='917a6938'/>
    <reference-type-def kind='lvalue' type-id='917a6938' size-in-bits='64' id='21b37a3a'/>
    <pointer-type-def type-id='917a6938' size-in-bits='64' id='15b36756'/>
    <qualified-type-def type-id='4a88c8c9' const='yes' id='8489a16a'/>
    <pointer-type-def type-id='8489a16a' size-in-bits='64' id='e4a8d7c0'/>
    <qualified-type-def type-id='e3662e68' const='yes' id='9148b498'/>
    <reference-type-def kind='lvalue' type-id='9148b498' size-in-bits='64' id='7374871a'/>
    <qualified-type-def type-id='689b2ca0' const='yes' id='4568937b'/>
    <reference-type-def kind='lvalue' type-id='4568937b' size-in-bits='64' id='a09ffb67'/>
    <pointer-type-def type-id='4568937b' size-in-bits='64' id='949fe883'/>
    <qualified-type-def type-id='71a192ba' const='yes' id='45d13b7d'/>
    <pointer-type-def type-id='45d13b7d' size-in-bits='64' id='3f6069f5'/>
    <qualified-type-def type-id='d74f2c29' const='yes' id='ea38edda'/>
    <reference-type-def kind='lvalue' type-id='ea38edda' size-in-bits='64' id='b39ea3b4'/>
    <pointer-type-def type-id='ea38edda' size-in-bits='64' id='a79e90d0'/>
    <qualified-type-def type-id='259719e9' const='yes' id='71996aba'/>
    <reference-type-def kind='lvalue' type-id='71996aba' size-in-bits='64' id='7082d394'/>
    <pointer-type-def type-id='71996aba' size-in-bits='64' id='6482c0b0'/>
    <qualified-type-def type-id='2679567a' const='yes' id='e62a8531'/>
    <reference-type-def kind='lvalue' type-id='e62a8531' size-in-bits='64' id='6bef8335'/>
    <pointer-type-def type-id='e62a8531' size-in-bits='64' id='6fef8981'/>
    <qualified-type-def type-id='04f6a9ad' const='yes' id='713b1208'/>
    <reference-type-def kind='lvalue' type-id='713b1208' size-in-bits='64' id='6dfd9e6a'/>
    <pointer-type-def type-id='713b1208' size-in-bits='64' id='61fd8b86'/>
    <qualified-type-def type-id='a2faeff6' const='yes' id='c4ebaf8d'/>
    <reference-type-def kind='lvalue' type-id='c4ebaf8d' size-in-bits='64' id='aa058a31'/>
    <qualified-type-def type-id='50e58ae8' const='yes' id='7c49bd2f'/>
    <reference-type-def kind='lvalue' type-id='7c49bd2f' size-in-bits='64' id='b114952b'/>
    <pointer-type-def type-id='7c49bd2f' size-in-bits='64' id='ad148edf'/>
    <qualified-type-def type-id='155b4039' const='yes' id='80ebb4a8'/>
    <reference-type-def kind='lvalue' type-id='80ebb4a8' size-in-bits='64' id='810d3b8a'/>
    <pointer-type-def type-id='80ebb4a8' size-in-bits='64' id='750d28a6'/>
    <qualified-type-def type-id='42884d44' const='yes' id='d7ddc9a7'/>
    <reference-type-def kind='lvalue' type-id='d7ddc9a7' size-in-bits='64' id='53243613'/>
    <pointer-type-def type-id='d7ddc9a7' size-in-bits='64' id='5f2448f7'/>
    <qualified-type-def type-id='5ce21cfa' const='yes' id='780b9159'/>
    <pointer-type-def type-id='780b9159' size-in-bits='64' id='6d35f809'/>
    <qualified-type-def type-id='b55c595f' const='yes' id='e4ca5f44'/>
    <reference-type-def kind='lvalue' type-id='e4ca5f44' size-in-bits='64' id='8c942746'/>
    <pointer-type-def type-id='e4ca5f44' size-in-bits='64' id='98943a2a'/>
    <qualified-type-def type-id='7d880de5' const='yes' id='97cd6bf8'/>
    <reference-type-def kind='lvalue' type-id='97cd6bf8' size-in-bits='64' id='d660ce7a'/>
    <pointer-type-def type-id='97cd6bf8' size-in-bits='64' id='ca60bb96'/>
    <qualified-type-def type-id='e7d9285c' const='yes' id='8c24a94c'/>
    <reference-type-def kind='lvalue' type-id='8c24a94c' size-in-bits='64' id='07b6b1de'/>
    <qualified-type-def type-id='18ea6296' const='yes' id='3ea48ca1'/>
    <reference-type-def kind='lvalue' type-id='3ea48ca1' size-in-bits='64' id='24093885'/>
    <qualified-type-def type-id='5aba0530' const='yes' id='7281d825'/>
    <pointer-type-def type-id='7281d825' size-in-bits='64' id='51671f9d'/>
    <qualified-type-def type-id='4e934539' const='yes' id='ba5548e4'/>
    <pointer-type-def type-id='ba5548e4' size-in-bits='64' id='22419c4a'/>
    <qualified-type-def type-id='347905f0' const='yes' id='9ce6e367'/>
    <reference-type-def kind='lvalue' type-id='9ce6e367' size-in-bits='64' id='4077bf53'/>
    <pointer-type-def type-id='9ce6e367' size-in-bits='64' id='4c77d237'/>
    <qualified-type-def type-id='e113b321' const='yes' id='c24ac111'/>
    <reference-type-def kind='lvalue' type-id='c24ac111' size-in-bits='64' id='12ae2995'/>
    <qualified-type-def type-id='5065f754' const='yes' id='3f0ef783'/>
    <reference-type-def kind='lvalue' type-id='3f0ef783' size-in-bits='64' id='e98fd8bf'/>
    <pointer-type-def type-id='3f0ef783' size-in-bits='64' id='ed8fdf0b'/>
    <qualified-type-def type-id='29a39e7d' const='yes' id='dd81deaa'/>
    <reference-type-def kind='lvalue' type-id='dd81deaa' size-in-bits='64' id='3f715664'/>
    <pointer-type-def type-id='dd81deaa' size-in-bits='64' id='33714380'/>
    <qualified-type-def type-id='e97c972c' const='yes' id='811d4c23'/>
    <reference-type-def kind='lvalue' type-id='811d4c23' size-in-bits='64' id='461eabdf'/>
    <pointer-type-def type-id='811d4c23' size-in-bits='64' id='4a1eb22b'/>
    <qualified-type-def type-id='e0047c3b' const='yes' id='86a5e330'/>
    <pointer-type-def type-id='86a5e330' size-in-bits='64' id='112481ee'/>
    <qualified-type-def type-id='7c769fd5' const='yes' id='ab3545e8'/>
    <pointer-type-def type-id='ab3545e8' size-in-bits='64' id='46dcd066'/>
    <qualified-type-def type-id='8a5c8b50' const='yes' id='df5a6aff'/>
    <pointer-type-def type-id='df5a6aff' size-in-bits='64' id='70562d4f'/>
    <qualified-type-def type-id='a9ff3d93' const='yes' id='704d142a'/>
    <pointer-type-def type-id='704d142a' size-in-bits='64' id='c9567c00'/>
    <qualified-type-def type-id='b5367957' const='yes' id='0069cce4'/>
    <pointer-type-def type-id='0069cce4' size-in-bits='64' id='748d684a'/>
    <qualified-type-def type-id='bf1104ea' const='yes' id='70492e43'/>
    <pointer-type-def type-id='70492e43' size-in-bits='64' id='2c340f4b'/>
    <qualified-type-def type-id='c11346a7' const='yes' id='6e46ec86'/>
    <pointer-type-def type-id='6e46ec86' size-in-bits='64' id='45a692c4'/>
    <qualified-type-def type-id='bf158218' const='yes' id='f04e74f1'/>
    <pointer-type-def type-id='f04e74f1' size-in-bits='64' id='2681f4c1'/>
    <qualified-type-def type-id='41188d55' const='yes' id='ee4c3334'/>
    <pointer-type-def type-id='ee4c3334' size-in-bits='64' id='3ff4783a'/>
    <qualified-type-def type-id='b334379a' const='yes' id='826cd821'/>
    <pointer-type-def type-id='826cd821' size-in-bits='64' id='5c581951'/>
    <qualified-type-def type-id='b53af685' const='yes' id='00654fb6'/>
    <pointer-type-def type-id='00654fb6' size-in-bits='64' id='3b7c5294'/>
    <qualified-type-def type-id='b338b4c8' const='yes' id='02679173'/>
    <pointer-type-def type-id='02679173' size-in-bits='64' id='2209cf1b'/>
    <qualified-type-def type-id='35403d33' const='yes' id='80600908'/>
    <pointer-type-def type-id='80600908' size-in-bits='64' id='392e6086'/>
    <qualified-type-def type-id='333dfb76' const='yes' id='82624ac5'/>
    <pointer-type-def type-id='82624ac5' size-in-bits='64' id='2fbbf63d'/>
    <qualified-type-def type-id='b54583e1' const='yes' id='805b8bda'/>
    <pointer-type-def type-id='805b8bda' size-in-bits='64' id='001d4ad0'/>
    <qualified-type-def type-id='334278a4' const='yes' id='825dcd97'/>
    <pointer-type-def type-id='825dcd97' size-in-bits='64' id='f6aae087'/>
    <qualified-type-def type-id='b54a010f' const='yes' id='807e1e1c'/>
    <pointer-type-def type-id='807e1e1c' size-in-bits='64' id='7c898f02'/>
    <qualified-type-def type-id='b347bf52' const='yes' id='82805fd9'/>
    <pointer-type-def type-id='82805fd9' size-in-bits='64' id='63170b89'/>
    <qualified-type-def type-id='b079946a' const='yes' id='d099e7bf'/>
    <pointer-type-def type-id='d099e7bf' size-in-bits='64' id='f7478f8f'/>
    <qualified-type-def type-id='7f99835d' const='yes' id='849904d2'/>
    <pointer-type-def type-id='849904d2' size-in-bits='64' id='b4e2d268'/>
    <qualified-type-def type-id='18ebc9a2' const='yes' id='859c5167'/>
    <pointer-type-def type-id='859c5167' size-in-bits='64' id='a213fc37'/>
    <qualified-type-def type-id='a2185560' const='yes' id='c818c24b'/>
    <qualified-type-def type-id='28577a57' const='yes' id='4274aea8'/>
    <qualified-type-def type-id='b59d7dce' const='yes' id='d0fa5dde'/>
    <qualified-type-def type-id='db5b25b5' const='yes' id='00e3fbd5'/>
    <reference-type-def kind='lvalue' type-id='00e3fbd5' size-in-bits='64' id='59e59f89'/>
    <pointer-type-def type-id='00e3fbd5' size-in-bits='64' id='65e5b26d'/>
    <qualified-type-def type-id='65e5b26d' const='yes' id='88d510c2'/>
    <qualified-type-def type-id='1ba823a9' const='yes' id='bd669010'/>
    <pointer-type-def type-id='bd669010' size-in-bits='64' id='62750b4e'/>
    <qualified-type-def type-id='2e59ea49' const='yes' id='2e6ac360'/>
    <reference-type-def kind='lvalue' type-id='2e6ac360' size-in-bits='64' id='58116732'/>
    <pointer-type-def type-id='2e6ac360' size-in-bits='64' id='5c116d7e'/>
    <qualified-type-def type-id='0fe6b87f' const='yes' id='45a7e620'/>
    <reference-type-def kind='lvalue' type-id='45a7e620' size-in-bits='64' id='ad4f1b72'/>
    <pointer-type-def type-id='45a7e620' size-in-bits='64' id='b14f21be'/>
    <qualified-type-def type-id='dbc41e38' const='yes' id='de34232f'/>
    <reference-type-def kind='lvalue' type-id='de34232f' size-in-bits='64' id='d513272b'/>
    <pointer-type-def type-id='de34232f' size-in-bits='64' id='d11320df'/>
    <qualified-type-def type-id='989aa642' const='yes' id='abff18ed'/>
    <pointer-type-def type-id='abff18ed' size-in-bits='64' id='89940145'/>
    <qualified-type-def type-id='3a2cb094' const='yes' id='372ccf04'/>
    <reference-type-def kind='lvalue' type-id='372ccf04' size-in-bits='64' id='fd8a1286'/>
    <qualified-type-def type-id='ecca0a17' const='yes' id='e9c39d87'/>
    <reference-type-def kind='lvalue' type-id='e9c39d87' size-in-bits='64' id='9ff12473'/>
    <qualified-type-def type-id='cde98eb1' const='yes' id='7f681f52'/>
    <pointer-type-def type-id='7f681f52' size-in-bits='64' id='08e989e8'/>
    <qualified-type-def type-id='54510924' const='yes' id='013509b5'/>
    <reference-type-def kind='lvalue' type-id='013509b5' size-in-bits='64' id='797e1269'/>
    <pointer-type-def type-id='013509b5' size-in-bits='64' id='857e254d'/>
    <qualified-type-def type-id='968f0aac' const='yes' id='d8e2ccdc'/>
    <reference-type-def kind='lvalue' type-id='d8e2ccdc' size-in-bits='64' id='6708ad8e'/>
    <qualified-type-def type-id='c87ae2df' const='yes' id='c7dc6fcf'/>
    <reference-type-def kind='lvalue' type-id='c7dc6fcf' size-in-bits='64' id='89042bcb'/>
    <qualified-type-def type-id='be7b0733' const='yes' id='02056943'/>
    <reference-type-def kind='lvalue' type-id='02056943' size-in-bits='64' id='9384e9ff'/>
    <qualified-type-def type-id='ca7ccf71' const='yes' id='406a8c81'/>
    <reference-type-def kind='lvalue' type-id='406a8c81' size-in-bits='64' id='0ebb6ae5'/>
    <qualified-type-def type-id='cda1041d' const='yes' id='ba38cbe2'/>
    <reference-type-def kind='lvalue' type-id='ba38cbe2' size-in-bits='64' id='eb68c58c'/>
    <qualified-type-def type-id='f68892e8' const='yes' id='51a5d453'/>
    <reference-type-def kind='lvalue' type-id='51a5d453' size-in-bits='64' id='fd0d742f'/>
    <qualified-type-def type-id='6a481acb' const='yes' id='c447f664'/>
    <reference-type-def kind='lvalue' type-id='c447f664' size-in-bits='64' id='3f48a9e6'/>
    <qualified-type-def type-id='32b70dcd' const='yes' id='9d8a7bbc'/>
    <reference-type-def kind='lvalue' type-id='9d8a7bbc' size-in-bits='64' id='9b00936e'/>
    <qualified-type-def type-id='ba0c08f6' const='yes' id='c4862a75'/>
    <reference-type-def kind='lvalue' type-id='c4862a75' size-in-bits='64' id='b234a0a9'/>
    <qualified-type-def type-id='0a75a6f0' const='yes' id='f4e5f97f'/>
    <reference-type-def kind='lvalue' type-id='f4e5f97f' size-in-bits='64' id='df07871b'/>
    <qualified-type-def type-id='3d22250d' const='yes' id='18e95c80'/>
    <pointer-type-def type-id='18e95c80' size-in-bits='64' id='e15cdf9e'/>
    <qualified-type-def type-id='ad5e76c4' const='yes' id='d053a2b4'/>
    <reference-type-def kind='lvalue' type-id='d053a2b4' size-in-bits='64' id='85a8ebd6'/>
    <qualified-type-def type-id='1f70009d' const='yes' id='fc9a86a0'/>
    <pointer-type-def type-id='fc9a86a0' size-in-bits='64' id='3141cb3e'/>
    <qualified-type-def type-id='a4696aa4' const='yes' id='af653254'/>
    <reference-type-def kind='lvalue' type-id='af653254' size-in-bits='64' id='8e4e6976'/>
    <qualified-type-def type-id='cd342967' const='yes' id='5ebb0ef2'/>
    <reference-type-def kind='lvalue' type-id='5ebb0ef2' size-in-bits='64' id='f47857bc'/>
    <pointer-type-def type-id='5ebb0ef2' size-in-bits='64' id='f8785e08'/>
    <qualified-type-def type-id='8c85715c' const='yes' id='65b43315'/>
    <reference-type-def kind='lvalue' type-id='65b43315' size-in-bits='64' id='4dac9949'/>
    <pointer-type-def type-id='65b43315' size-in-bits='64' id='59acac2d'/>
    <qualified-type-def type-id='342201c4' const='yes' id='08743f95'/>
    <reference-type-def kind='lvalue' type-id='08743f95' size-in-bits='64' id='020046c9'/>
    <pointer-type-def type-id='08743f95' size-in-bits='64' id='0e0059ad'/>
    <qualified-type-def type-id='fca69d38' const='yes' id='680a3748'/>
    <reference-type-def kind='lvalue' type-id='680a3748' size-in-bits='64' id='3615422a'/>
    <qualified-type-def type-id='7d90703f' const='yes' id='5ee3196f'/>
    <reference-type-def kind='lvalue' type-id='5ee3196f' size-in-bits='64' id='a880cdeb'/>
    <qualified-type-def type-id='1b471d51' const='yes' id='7f9f77a1'/>
    <reference-type-def kind='lvalue' type-id='7f9f77a1' size-in-bits='64' id='6f092985'/>
    <qualified-type-def type-id='234e3f47' const='yes' id='dc9ebe77'/>
    <reference-type-def kind='lvalue' type-id='dc9ebe77' size-in-bits='64' id='9ee59983'/>
    <qualified-type-def type-id='bd9f9d66' const='yes' id='1a907ed5'/>
    <reference-type-def kind='lvalue' type-id='1a907ed5' size-in-bits='64' id='c477d889'/>
    <pointer-type-def type-id='1a907ed5' size-in-bits='64' id='d077eb6d'/>
    <qualified-type-def type-id='bd260598' const='yes' id='ef659888'/>
    <reference-type-def kind='lvalue' type-id='ef659888' size-in-bits='64' id='8aef59ea'/>
    <qualified-type-def type-id='4e43ba1f' const='yes' id='ea7b35af'/>
    <reference-type-def kind='lvalue' type-id='ea7b35af' size-in-bits='64' id='a8f546ab'/>
    <qualified-type-def type-id='7c1137b1' const='yes' id='aa7711e1'/>
    <reference-type-def kind='lvalue' type-id='aa7711e1' size-in-bits='64' id='2070fc45'/>
    <qualified-type-def type-id='9effa5a7' const='yes' id='e842f1b7'/>
    <reference-type-def kind='lvalue' type-id='e842f1b7' size-in-bits='64' id='32624743'/>
    <qualified-type-def type-id='fc00fa33' const='yes' id='17c18cd0'/>
    <reference-type-def kind='lvalue' type-id='17c18cd0' size-in-bits='64' id='5bb0e742'/>
    <pointer-type-def type-id='17c18cd0' size-in-bits='64' id='5fb0ed8e'/>
    <qualified-type-def type-id='09f366c3' const='yes' id='f5ca7a93'/>
    <reference-type-def kind='lvalue' type-id='f5ca7a93' size-in-bits='64' id='a2bf2aef'/>
    <qualified-type-def type-id='d9ca5fba' const='yes' id='40093faa'/>
    <reference-type-def kind='lvalue' type-id='40093faa' size-in-bits='64' id='5a8f0964'/>
    <qualified-type-def type-id='93eb21f4' const='yes' id='1c3cad44'/>
    <reference-type-def kind='lvalue' type-id='1c3cad44' size-in-bits='64' id='d584f146'/>
    <qualified-type-def type-id='04f3e19e' const='yes' id='672bff0e'/>
    <reference-type-def kind='lvalue' type-id='672bff0e' size-in-bits='64' id='9242abf8'/>
    <qualified-type-def type-id='b727fac8' const='yes' id='63ec0c6b'/>
    <reference-type-def kind='lvalue' type-id='63ec0c6b' size-in-bits='64' id='99975d37'/>
    <pointer-type-def type-id='63ec0c6b' size-in-bits='64' id='8d974a53'/>
    <qualified-type-def type-id='c1d91732' const='yes' id='46198da2'/>
    <reference-type-def kind='lvalue' type-id='46198da2' size-in-bits='64' id='de39c6cc'/>
    <qualified-type-def type-id='71b1b719' const='yes' id='f21277e9'/>
    <reference-type-def kind='lvalue' type-id='f21277e9' size-in-bits='64' id='e2129add'/>
    <qualified-type-def type-id='c0a575cf' const='yes' id='863fc77f'/>
    <reference-type-def kind='lvalue' type-id='863fc77f' size-in-bits='64' id='af66d11b'/>
    <qualified-type-def type-id='c7c5c5fd' const='yes' id='86f9244d'/>
    <reference-type-def kind='lvalue' type-id='86f9244d' size-in-bits='64' id='e5345471'/>
    <qualified-type-def type-id='bf7a2a67' const='yes' id='696417b8'/>
    <pointer-type-def type-id='696417b8' size-in-bits='64' id='7a911ad6'/>
    <qualified-type-def type-id='dd7bf01b' const='yes' id='ddda638b'/>
    <reference-type-def kind='lvalue' type-id='ddda638b' size-in-bits='64' id='ebcae957'/>
    <qualified-type-def type-id='28e41d1e' const='yes' id='64ebd4ae'/>
    <reference-type-def kind='lvalue' type-id='64ebd4ae' size-in-bits='64' id='673f9218'/>
    <qualified-type-def type-id='9cf114e3' const='yes' id='3125072c'/>
    <pointer-type-def type-id='3125072c' size-in-bits='64' id='634a0e72'/>
    <qualified-type-def type-id='b3c2d357' const='yes' id='11ff0f67'/>
    <reference-type-def kind='lvalue' type-id='11ff0f67' size-in-bits='64' id='95850353'/>
    <qualified-type-def type-id='f62d42bb' const='yes' id='74856360'/>
    <reference-type-def kind='lvalue' type-id='74856360' size-in-bits='64' id='b3fb4732'/>
    <pointer-type-def type-id='74856360' size-in-bits='64' id='b7fb4d7e'/>
    <qualified-type-def type-id='e1a99517' const='yes' id='54c40bc0'/>
    <reference-type-def kind='lvalue' type-id='54c40bc0' size-in-bits='64' id='569ebb12'/>
    <pointer-type-def type-id='54c40bc0' size-in-bits='64' id='5a9ec15e'/>
    <qualified-type-def type-id='e3836d76' const='yes' id='c7260ed1'/>
    <reference-type-def kind='lvalue' type-id='c7260ed1' size-in-bits='64' id='77e98ed5'/>
    <pointer-type-def type-id='c7260ed1' size-in-bits='64' id='7be99521'/>
    <qualified-type-def type-id='ef463c95' const='yes' id='bd2e9a12'/>
    <reference-type-def kind='lvalue' type-id='bd2e9a12' size-in-bits='64' id='045cbfdc'/>
    <pointer-type-def type-id='bd2e9a12' size-in-bits='64' id='085cc628'/>
    <qualified-type-def type-id='2ca858ff' const='yes' id='2704f2e0'/>
    <pointer-type-def type-id='2704f2e0' size-in-bits='64' id='36ca33fe'/>
    <qualified-type-def type-id='cda954c4' const='yes' id='e6bd0a21'/>
    <reference-type-def kind='lvalue' type-id='e6bd0a21' size-in-bits='64' id='4296c905'/>
    <pointer-type-def type-id='e6bd0a21' size-in-bits='64' id='4696cf51'/>
    <qualified-type-def type-id='aa51721d' const='yes' id='df165a40'/>
    <reference-type-def kind='lvalue' type-id='df165a40' size-in-bits='64' id='96304e92'/>
    <qualified-type-def type-id='bb577165' const='yes' id='cfac5e15'/>
    <reference-type-def kind='lvalue' type-id='cfac5e15' size-in-bits='64' id='1f584a49'/>
    <qualified-type-def type-id='4099a043' const='yes' id='7b0726c4'/>
    <reference-type-def kind='lvalue' type-id='7b0726c4' size-in-bits='64' id='8e4235c6'/>
    <qualified-type-def type-id='13aaf129' const='yes' id='a8fc2b79'/>
    <reference-type-def kind='lvalue' type-id='a8fc2b79' size-in-bits='64' id='63f8468d'/>
    <qualified-type-def type-id='6900e603' const='yes' id='a029fc5c'/>
    <reference-type-def kind='lvalue' type-id='a029fc5c' size-in-bits='64' id='9c18740e'/>
    <qualified-type-def type-id='91391511' const='yes' id='adb73161'/>
    <reference-type-def kind='lvalue' type-id='adb73161' size-in-bits='64' id='be6292c5'/>
    <qualified-type-def type-id='33544102' const='yes' id='4caa6e7b'/>
    <reference-type-def kind='lvalue' type-id='4caa6e7b' size-in-bits='64' id='0d4bbc67'/>
    <qualified-type-def type-id='49cd40b6' const='yes' id='fcade586'/>
    <reference-type-def kind='lvalue' type-id='fcade586' size-in-bits='64' id='65c07ae0'/>
    <qualified-type-def type-id='499eed0d' const='yes' id='462e2f7a'/>
    <reference-type-def kind='lvalue' type-id='462e2f7a' size-in-bits='64' id='d6b48dd4'/>
    <qualified-type-def type-id='dd7fc543' const='yes' id='c58621b3'/>
    <reference-type-def kind='lvalue' type-id='c58621b3' size-in-bits='64' id='8726dd8f'/>
    <qualified-type-def type-id='ac13fdb4' const='yes' id='5f0984ff'/>
    <reference-type-def kind='lvalue' type-id='5f0984ff' size-in-bits='64' id='74fc219b'/>
    <qualified-type-def type-id='5968e51a' const='yes' id='dd99048a'/>
    <reference-type-def kind='lvalue' type-id='dd99048a' size-in-bits='64' id='83e25ac4'/>
    <qualified-type-def type-id='f7bab28a' const='yes' id='353b9a65'/>
    <pointer-type-def type-id='353b9a65' size-in-bits='64' id='1bd3ea5d'/>
    <qualified-type-def type-id='ecc84eb9' const='yes' id='ecfdf9e9'/>
    <reference-type-def kind='lvalue' type-id='ecfdf9e9' size-in-bits='64' id='e2d040dd'/>
    <qualified-type-def type-id='2f0e710f' const='yes' id='6a5c46bf'/>
    <reference-type-def kind='lvalue' type-id='6a5c46bf' size-in-bits='64' id='084322db'/>
    <qualified-type-def type-id='8a2a50c2' const='yes' id='b67a0ae9'/>
    <pointer-type-def type-id='b67a0ae9' size-in-bits='64' id='051ef0f9'/>
    <qualified-type-def type-id='1111f725' const='yes' id='c1124a15'/>
    <reference-type-def kind='lvalue' type-id='c1124a15' size-in-bits='64' id='22cace49'/>
    <qualified-type-def type-id='d5178e93' const='yes' id='0403b283'/>
    <reference-type-def kind='lvalue' type-id='0403b283' size-in-bits='64' id='f6d239bf'/>
    <qualified-type-def type-id='2f38be8c' const='yes' id='63f0ec45'/>
    <pointer-type-def type-id='63f0ec45' size-in-bits='64' id='c34432bd'/>
    <qualified-type-def type-id='da3d5539' const='yes' id='c60f84c9'/>
    <reference-type-def kind='lvalue' type-id='c60f84c9' size-in-bits='64' id='b96e443d'/>
    <qualified-type-def type-id='1c83778f' const='yes' id='f70f53df'/>
    <reference-type-def kind='lvalue' type-id='f70f53df' size-in-bits='64' id='e62130fb'/>
    <qualified-type-def type-id='9e8a7eba' const='yes' id='6e76b9f3'/>
    <pointer-type-def type-id='6e76b9f3' size-in-bits='64' id='bde6909b'/>
    <qualified-type-def type-id='ef46354b' const='yes' id='4d57e21b'/>
    <reference-type-def kind='lvalue' type-id='4d57e21b' size-in-bits='64' id='fe592607'/>
    <qualified-type-def type-id='cf720ba1' const='yes' id='8d2208f1'/>
    <reference-type-def kind='lvalue' type-id='8d2208f1' size-in-bits='64' id='0393ea75'/>
    <qualified-type-def type-id='174fb8a6' const='yes' id='c35d7c8f'/>
    <pointer-type-def type-id='c35d7c8f' size-in-bits='64' id='312b37bf'/>
    <qualified-type-def type-id='da54f4ff' const='yes' id='f288378f'/>
    <reference-type-def kind='lvalue' type-id='f288378f' size-in-bits='64' id='756f9f0b'/>
    <qualified-type-def type-id='43e69d5d' const='yes' id='4324d2ed'/>
    <reference-type-def kind='lvalue' type-id='4324d2ed' size-in-bits='64' id='7df7d591'/>
    <qualified-type-def type-id='8a6d7f42' const='yes' id='057611c5'/>
    <pointer-type-def type-id='057611c5' size-in-bits='64' id='87de3b3d'/>
    <qualified-type-def type-id='d230e259' const='yes' id='ba690a49'/>
    <reference-type-def kind='lvalue' type-id='ba690a49' size-in-bits='64' id='e25b6cbd'/>
    <qualified-type-def type-id='c5e204ef' const='yes' id='eb68d95f'/>
    <reference-type-def kind='lvalue' type-id='eb68d95f' size-in-bits='64' id='0f0e597b'/>
    <qualified-type-def type-id='5cf278ae' const='yes' id='1ab07a59'/>
    <pointer-type-def type-id='1ab07a59' size-in-bits='64' id='76d0c309'/>
    <qualified-type-def type-id='9fca5015' const='yes' id='04fd8f05'/>
    <reference-type-def kind='lvalue' type-id='04fd8f05' size-in-bits='64' id='fe285419'/>
    <qualified-type-def type-id='e2bbb883' const='yes' id='3b8cd033'/>
    <reference-type-def kind='lvalue' type-id='3b8cd033' size-in-bits='64' id='d3ab910f'/>
    <qualified-type-def type-id='671ca727' const='yes' id='a33cab2a'/>
    <reference-type-def kind='lvalue' type-id='a33cab2a' size-in-bits='64' id='048143e4'/>
    <pointer-type-def type-id='a33cab2a' size-in-bits='64' id='f8813100'/>
    <qualified-type-def type-id='d08f3348' const='yes' id='e48f09c3'/>
    <reference-type-def kind='lvalue' type-id='e48f09c3' size-in-bits='64' id='b22c937f'/>
    <qualified-type-def type-id='e03c27e3' const='yes' id='5f90b762'/>
    <pointer-type-def type-id='5f90b762' size-in-bits='64' id='b8d08658'/>
    <qualified-type-def type-id='0c8aeb00' const='yes' id='dd030e90'/>
    <reference-type-def kind='lvalue' type-id='dd030e90' size-in-bits='64' id='a1d02882'/>
    <qualified-type-def type-id='ea947be9' const='yes' id='0cd91562'/>
    <pointer-type-def type-id='0cd91562' size-in-bits='64' id='81bc8058'/>
    <qualified-type-def type-id='7525887d' const='yes' id='51d1cd2d'/>
    <pointer-type-def type-id='51d1cd2d' size-in-bits='64' id='d445c205'/>
    <qualified-type-def type-id='3ae61ff9' const='yes' id='cdfa6bde'/>
    <reference-type-def kind='lvalue' type-id='cdfa6bde' size-in-bits='64' id='3937f768'/>
    <pointer-type-def type-id='cdfa6bde' size-in-bits='64' id='3537f11c'/>
    <qualified-type-def type-id='84539277' const='yes' id='728e5b64'/>
    <pointer-type-def type-id='728e5b64' size-in-bits='64' id='a419bbca'/>
    <qualified-type-def type-id='f825a5b0' const='yes' id='e54ff421'/>
    <reference-type-def kind='lvalue' type-id='e54ff421' size-in-bits='64' id='03dd2705'/>
    <pointer-type-def type-id='e54ff421' size-in-bits='64' id='07dd2d51'/>
    <qualified-type-def type-id='21b9000e' const='yes' id='a98162de'/>
    <reference-type-def kind='lvalue' type-id='a98162de' size-in-bits='64' id='ceaecc68'/>
    <qualified-type-def type-id='f8fcf572' const='yes' id='8d62d299'/>
    <pointer-type-def type-id='8d62d299' size-in-bits='64' id='4591afc9'/>
    <qualified-type-def type-id='882f1f6b' const='yes' id='91300be6'/>
    <reference-type-def kind='lvalue' type-id='91300be6' size-in-bits='64' id='4ea27f40'/>
    <qualified-type-def type-id='fc2ddc06' const='yes' id='264fcc41'/>
    <reference-type-def kind='lvalue' type-id='264fcc41' size-in-bits='64' id='b69ec625'/>
    <qualified-type-def type-id='05eed095' const='yes' id='090d379e'/>
    <reference-type-def kind='lvalue' type-id='090d379e' size-in-bits='64' id='f7ceb6a8'/>
    <qualified-type-def type-id='b3bf6f88' const='yes' id='b0edd8f3'/>
    <reference-type-def kind='lvalue' type-id='b0edd8f3' size-in-bits='64' id='5b6c574f'/>
    <qualified-type-def type-id='486d1b46' const='yes' id='41376893'/>
    <reference-type-def kind='lvalue' type-id='41376893' size-in-bits='64' id='5f39d4ef'/>
    <qualified-type-def type-id='da048913' const='yes' id='757d2b43'/>
    <reference-type-def kind='lvalue' type-id='757d2b43' size-in-bits='64' id='590b4fff'/>
    <qualified-type-def type-id='1cd8dc81' const='yes' id='081c35c4'/>
    <pointer-type-def type-id='081c35c4' size-in-bits='64' id='b268e5aa'/>
    <qualified-type-def type-id='5223ee98' const='yes' id='f0c84f48'/>
    <reference-type-def kind='lvalue' type-id='f0c84f48' size-in-bits='64' id='79550a2a'/>
    <qualified-type-def type-id='038a69ec' const='yes' id='93f803dc'/>
    <reference-type-def kind='lvalue' type-id='93f803dc' size-in-bits='64' id='e96e428e'/>
    <qualified-type-def type-id='a2bd16cb' const='yes' id='f6826610'/>
    <reference-type-def kind='lvalue' type-id='f6826610' size-in-bits='64' id='4546e702'/>
    <pointer-type-def type-id='f6826610' size-in-bits='64' id='4946ed4e'/>
    <qualified-type-def type-id='209bdce6' const='yes' id='f16016cd'/>
    <reference-type-def kind='lvalue' type-id='f16016cd' size-in-bits='64' id='e54413f1'/>
    <pointer-type-def type-id='f16016cd' size-in-bits='64' id='e1440da5'/>
    <qualified-type-def type-id='7151ab78' const='yes' id='c684adcd'/>
    <pointer-type-def type-id='c684adcd' size-in-bits='64' id='69ddc2a5'/>
    <qualified-type-def type-id='95938bc2' const='yes' id='d4572681'/>
    <reference-type-def kind='lvalue' type-id='d4572681' size-in-bits='64' id='ec31d8e5'/>
    <qualified-type-def type-id='e386d682' const='yes' id='570a13cb'/>
    <reference-type-def kind='lvalue' type-id='570a13cb' size-in-bits='64' id='f1dd5e17'/>
    <pointer-type-def type-id='570a13cb' size-in-bits='64' id='e5dd4b33'/>
    <qualified-type-def type-id='5a9e6648' const='yes' id='584695b9'/>
    <reference-type-def kind='lvalue' type-id='584695b9' size-in-bits='64' id='961d894d'/>
    <pointer-type-def type-id='584695b9' size-in-bits='64' id='8a1d7669'/>
    <qualified-type-def type-id='32b0678d' const='yes' id='5c7e16d0'/>
    <reference-type-def kind='lvalue' type-id='5c7e16d0' size-in-bits='64' id='907e2542'/>
    <qualified-type-def type-id='cac496cf' const='yes' id='f346dc0a'/>
    <reference-type-def kind='lvalue' type-id='f346dc0a' size-in-bits='64' id='248c9944'/>
    <qualified-type-def type-id='18a15b7d' const='yes' id='741f11f0'/>
    <reference-type-def kind='lvalue' type-id='741f11f0' size-in-bits='64' id='a2e913e2'/>
    <qualified-type-def type-id='79b343c0' const='yes' id='34c9e2b9'/>
    <reference-type-def kind='lvalue' type-id='34c9e2b9' size-in-bits='64' id='b8cfc04d'/>
    <qualified-type-def type-id='f2fa6699' const='yes' id='3e38eeba'/>
    <reference-type-def kind='lvalue' type-id='3e38eeba' size-in-bits='64' id='8f9f9f94'/>
    <qualified-type-def type-id='eb166b35' const='yes' id='43f3d2f8'/>
    <reference-type-def kind='lvalue' type-id='43f3d2f8' size-in-bits='64' id='d6d4f37a'/>
    <qualified-type-def type-id='a67ba367' const='yes' id='8013025c'/>
    <reference-type-def kind='lvalue' type-id='8013025c' size-in-bits='64' id='17ece60e'/>
    <qualified-type-def type-id='25deba76' const='yes' id='c9f3ef03'/>
    <reference-type-def kind='lvalue' type-id='c9f3ef03' size-in-bits='64' id='1001773f'/>
    <qualified-type-def type-id='92377e58' const='yes' id='3115a5ff'/>
    <reference-type-def kind='lvalue' type-id='3115a5ff' size-in-bits='64' id='1e14149b'/>
    <qualified-type-def type-id='7a54f84d' const='yes' id='73255f70'/>
    <reference-type-def kind='lvalue' type-id='73255f70' size-in-bits='64' id='99d51462'/>
    <qualified-type-def type-id='052d8e22' const='yes' id='9f5a7b7d'/>
    <reference-type-def kind='lvalue' type-id='9f5a7b7d' size-in-bits='64' id='36703041'/>
    <qualified-type-def type-id='8122aa85' const='yes' id='2a734ace'/>
    <reference-type-def kind='lvalue' type-id='2a734ace' size-in-bits='64' id='bb7eeb38'/>
    <qualified-type-def type-id='b449e105' const='yes' id='430feae2'/>
    <reference-type-def kind='lvalue' type-id='430feae2' size-in-bits='64' id='560e928c'/>
    <qualified-type-def type-id='f9660eda' const='yes' id='40b78a49'/>
    <reference-type-def kind='lvalue' type-id='40b78a49' size-in-bits='64' id='4feeecbd'/>
    <qualified-type-def type-id='f0568441' const='yes' id='731170d4'/>
    <reference-type-def kind='lvalue' type-id='731170d4' size-in-bits='64' id='1674ccf6'/>
    <qualified-type-def type-id='bf493335' const='yes' id='b3e8431c'/>
    <reference-type-def kind='lvalue' type-id='b3e8431c' size-in-bits='64' id='70a1d44e'/>
    <qualified-type-def type-id='ab242dd8' const='yes' id='bfe638ad'/>
    <reference-type-def kind='lvalue' type-id='bfe638ad' size-in-bits='64' id='a26b02d1'/>
    <qualified-type-def type-id='59a87d47' const='yes' id='a0dfca72'/>
    <reference-type-def kind='lvalue' type-id='a0dfca72' size-in-bits='64' id='944b823c'/>
    <qualified-type-def type-id='51120c8b' const='yes' id='26dc9cb2'/>
    <reference-type-def kind='lvalue' type-id='26dc9cb2' size-in-bits='64' id='c14a7cfc'/>
    <qualified-type-def type-id='8c16474d' const='yes' id='836c703e'/>
    <reference-type-def kind='lvalue' type-id='836c703e' size-in-bits='64' id='fbb475c8'/>
    <qualified-type-def type-id='46c7c4e1' const='yes' id='bcca1416'/>
    <reference-type-def kind='lvalue' type-id='bcca1416' size-in-bits='64' id='621dc790'/>
    <qualified-type-def type-id='2f965b5f' const='yes' id='93c351a4'/>
    <reference-type-def kind='lvalue' type-id='93c351a4' size-in-bits='64' id='1e794fa6'/>
    <qualified-type-def type-id='accb8af4' const='yes' id='7dce9073'/>
    <reference-type-def kind='lvalue' type-id='7dce9073' size-in-bits='64' id='612d35cf'/>
    <qualified-type-def type-id='e0f0e597' const='yes' id='bfc155d0'/>
    <reference-type-def kind='lvalue' type-id='bfc155d0' size-in-bits='64' id='d35a5242'/>
    <qualified-type-def type-id='93bf8a31' const='yes' id='4aaeddcc'/>
    <reference-type-def kind='lvalue' type-id='4aaeddcc' size-in-bits='64' id='7b47575e'/>
    <qualified-type-def type-id='86de309b' const='yes' id='6a71e6d4'/>
    <reference-type-def kind='lvalue' type-id='6a71e6d4' size-in-bits='64' id='834e8ef6'/>
    <qualified-type-def type-id='c2931f67' const='yes' id='69463a72'/>
    <reference-type-def kind='lvalue' type-id='69463a72' size-in-bits='64' id='0d8dd23c'/>
    <pointer-type-def type-id='69463a72' size-in-bits='64' id='118dd888'/>
    <qualified-type-def type-id='118dd888' const='yes' id='d9664a5b'/>
    <reference-type-def kind='lvalue' type-id='d9664a5b' size-in-bits='64' id='b90742c7'/>
    <qualified-type-def type-id='34601093' const='yes' id='08a514ce'/>
    <pointer-type-def type-id='08a514ce' size-in-bits='64' id='7fdfe2ec'/>
    <qualified-type-def type-id='4ababdf0' const='yes' id='b5b164a0'/>
    <qualified-type-def type-id='8a7aa40f' const='yes' id='a91b373f'/>
    <reference-type-def kind='lvalue' type-id='a91b373f' size-in-bits='64' id='4ed7bc5b'/>
    <qualified-type-def type-id='92196c4c' const='yes' id='e19b8417'/>
    <reference-type-def kind='lvalue' type-id='e19b8417' size-in-bits='64' id='58d11923'/>
    <pointer-type-def type-id='e19b8417' size-in-bits='64' id='64d12c07'/>
    <qualified-type-def type-id='189f63aa' const='yes' id='41966c3a'/>
    <reference-type-def kind='lvalue' type-id='41966c3a' size-in-bits='64' id='5bcc3014'/>
    <qualified-type-def type-id='54d2acac' const='yes' id='aba44bff'/>
    <reference-type-def kind='lvalue' type-id='aba44bff' size-in-bits='64' id='0ca3669b'/>
    <pointer-type-def type-id='aba44bff' size-in-bits='64' id='08a3604f'/>
    <qualified-type-def type-id='c812bc42' const='yes' id='3e970992'/>
    <reference-type-def kind='lvalue' type-id='3e970992' size-in-bits='64' id='3bc4465c'/>
    <qualified-type-def type-id='9c9d7afc' const='yes' id='af1796a5'/>
    <reference-type-def kind='lvalue' type-id='af1796a5' size-in-bits='64' id='2521f039'/>
    <pointer-type-def type-id='af1796a5' size-in-bits='64' id='3122031d'/>
    <qualified-type-def type-id='6eafd380' const='yes' id='f04b5a50'/>
    <reference-type-def kind='lvalue' type-id='f04b5a50' size-in-bits='64' id='bc9f67c2'/>
    <qualified-type-def type-id='f74f1ea1' const='yes' id='4118444e'/>
    <pointer-type-def type-id='4118444e' size-in-bits='64' id='dd33a96c'/>
    <qualified-type-def type-id='2bac631e' const='yes' id='d32fa2ee'/>
    <reference-type-def kind='lvalue' type-id='d32fa2ee' size-in-bits='64' id='3bfd40d8'/>
    <qualified-type-def type-id='272904c5' const='yes' id='3671ae08'/>
    <reference-type-def kind='lvalue' type-id='3671ae08' size-in-bits='64' id='e2f5326a'/>
    <pointer-type-def type-id='3671ae08' size-in-bits='64' id='d6f51f86'/>
    <qualified-type-def type-id='eee0aef8' const='yes' id='3bb5ae4b'/>
    <reference-type-def kind='lvalue' type-id='3bb5ae4b' size-in-bits='64' id='6c019597'/>
    <pointer-type-def type-id='3bb5ae4b' size-in-bits='64' id='600182b3'/>
    <qualified-type-def type-id='32496eb6' const='yes' id='ddb61593'/>
    <reference-type-def kind='lvalue' type-id='ddb61593' size-in-bits='64' id='baa42bef'/>
    <pointer-type-def type-id='ddb61593' size-in-bits='64' id='bea4323b'/>
    <qualified-type-def type-id='13cb82bc' const='yes' id='a46f34bd'/>
    <reference-type-def kind='lvalue' type-id='a46f34bd' size-in-bits='64' id='760fd001'/>
    <pointer-type-def type-id='a46f34bd' size-in-bits='64' id='720fc9b5'/>
    <qualified-type-def type-id='20a4a626' const='yes' id='fed2df8b'/>
    <reference-type-def kind='lvalue' type-id='fed2df8b' size-in-bits='64' id='d2f61d57'/>
    <pointer-type-def type-id='fed2df8b' size-in-bits='64' id='c6f60a73'/>
    <qualified-type-def type-id='330de355' const='yes' id='0152791a'/>
    <pointer-type-def type-id='0152791a' size-in-bits='64' id='44d4c690'/>
    <qualified-type-def type-id='5580186d' const='yes' id='fa0e1de6'/>
    <pointer-type-def type-id='fa0e1de6' size-in-bits='64' id='7038e824'/>
    <qualified-type-def type-id='2e1870a5' const='yes' id='d2396824'/>
    <pointer-type-def type-id='d2396824' size-in-bits='64' id='fe5ece0a'/>
    <qualified-type-def type-id='fcfdd9af' const='yes' id='03164b46'/>
    <pointer-type-def type-id='03164b46' size-in-bits='64' id='4818bb04'/>
    <qualified-type-def type-id='49a160da' const='yes' id='4b512c31'/>
    <pointer-type-def type-id='4b512c31' size-in-bits='64' id='abc86e81'/>
    <qualified-type-def type-id='125a41c9' const='yes' id='e9cc9674'/>
    <pointer-type-def type-id='e9cc9674' size-in-bits='64' id='6b10b5fa'/>
    <qualified-type-def type-id='ab0ead81' const='yes' id='09f8965a'/>
    <pointer-type-def type-id='09f8965a' size-in-bits='64' id='2254d250'/>
    <qualified-type-def type-id='8c5e181b' const='yes' id='b67db162'/>
    <pointer-type-def type-id='b67db162' size-in-bits='64' id='8fde1458'/>
    <qualified-type-def type-id='d7dd56d9' const='yes' id='033bd0da'/>
    <pointer-type-def type-id='033bd0da' size-in-bits='64' id='0729e9d0'/>
    <qualified-type-def type-id='932b3be3' const='yes' id='856850e2'/>
    <pointer-type-def type-id='856850e2' size-in-bits='64' id='cb372ad8'/>
    <qualified-type-def type-id='e4b1e850' const='yes' id='e95d7ce5'/>
    <pointer-type-def type-id='e95d7ce5' size-in-bits='64' id='2d2b79dd'/>
    <qualified-type-def type-id='6c232bce' const='yes' id='7239051b'/>
    <pointer-type-def type-id='7239051b' size-in-bits='64' id='00c32c23'/>
    <qualified-type-def type-id='9bd67fbc' const='yes' id='2f145a8c'/>
    <qualified-type-def type-id='cb46fb1f' const='yes' id='90f0afaf'/>
    <qualified-type-def type-id='8c8d9e41' const='yes' id='523e2731'/>
    <qualified-type-def type-id='c6506d11' const='yes' id='4ece2bc1'/>
    <qualified-type-def type-id='39a2107d' const='yes' id='0915f370'/>
    <reference-type-def kind='lvalue' type-id='0915f370' size-in-bits='64' id='a38e1062'/>
    <pointer-type-def type-id='0915f370' size-in-bits='64' id='a78e16ae'/>
    <qualified-type-def type-id='739d8600' const='yes' id='210bae1d'/>
    <reference-type-def kind='lvalue' type-id='210bae1d' size-in-bits='64' id='406346e1'/>
    <pointer-type-def type-id='210bae1d' size-in-bits='64' id='3c634095'/>
    <qualified-type-def type-id='6a7b80e7' const='yes' id='6ca8d4f7'/>
    <reference-type-def kind='lvalue' type-id='6ca8d4f7' size-in-bits='64' id='dec70503'/>
    <qualified-type-def type-id='8c3554bf' const='yes' id='261ada4f'/>
    <reference-type-def kind='lvalue' type-id='261ada4f' size-in-bits='64' id='6545d34b'/>
    <qualified-type-def type-id='a4e90020' const='yes' id='16e410ad'/>
    <reference-type-def kind='lvalue' type-id='16e410ad' size-in-bits='64' id='94060ad1'/>
    <pointer-type-def type-id='16e410ad' size-in-bits='64' id='90060485'/>
    <qualified-type-def type-id='cca4ee77' const='yes' id='16e3dd47'/>
    <reference-type-def kind='lvalue' type-id='16e3dd47' size-in-bits='64' id='69b57fb3'/>
    <qualified-type-def type-id='3ce05bcf' const='yes' id='7ec49b1f'/>
    <reference-type-def kind='lvalue' type-id='7ec49b1f' size-in-bits='64' id='c8805abb'/>
    <qualified-type-def type-id='1c3fe98e' const='yes' id='bee4de11'/>
    <reference-type-def kind='lvalue' type-id='bee4de11' size-in-bits='64' id='b949d095'/>
    <pointer-type-def type-id='bee4de11' size-in-bits='64' id='bd49d6e1'/>
    <qualified-type-def type-id='04f988db' const='yes' id='737df76b'/>
    <reference-type-def kind='lvalue' type-id='737df76b' size-in-bits='64' id='1c4c4e37'/>
    <qualified-type-def type-id='2653955d' const='yes' id='f1baef8d'/>
    <reference-type-def kind='lvalue' type-id='f1baef8d' size-in-bits='64' id='34474a31'/>
    <qualified-type-def type-id='bbf7a6b3' const='yes' id='38c4e563'/>
    <reference-type-def kind='lvalue' type-id='38c4e563' size-in-bits='64' id='a2f4eb9f'/>
    <qualified-type-def type-id='6cc3efdb' const='yes' id='af15056b'/>
    <reference-type-def kind='lvalue' type-id='af15056b' size-in-bits='64' id='eb175837'/>
    <qualified-type-def type-id='072b9002' const='yes' id='baf8b115'/>
    <reference-type-def kind='lvalue' type-id='baf8b115' size-in-bits='64' id='887ef349'/>
    <pointer-type-def type-id='baf8b115' size-in-bits='64' id='947f062d'/>
    <qualified-type-def type-id='8b26c5df' const='yes' id='4ca6eaef'/>
    <reference-type-def kind='lvalue' type-id='4ca6eaef' size-in-bits='64' id='73c39a6b'/>
    <qualified-type-def type-id='018e8a71' const='yes' id='2f3d3521'/>
    <reference-type-def kind='lvalue' type-id='2f3d3521' size-in-bits='64' id='645a7a05'/>
    <qualified-type-def type-id='a9f5b87f' const='yes' id='7b5189ef'/>
    <reference-type-def kind='lvalue' type-id='7b5189ef' size-in-bits='64' id='ea5be76b'/>
    <qualified-type-def type-id='2acb9167' const='yes' id='8ba077f7'/>
    <reference-type-def kind='lvalue' type-id='8ba077f7' size-in-bits='64' id='9e9c9e03'/>
    <qualified-type-def type-id='a8a8a4b2' const='yes' id='e4be9b57'/>
    <reference-type-def kind='lvalue' type-id='e4be9b57' size-in-bits='64' id='890eb2e3'/>
    <pointer-type-def type-id='e4be9b57' size-in-bits='64' id='950ec5c7'/>
    <qualified-type-def type-id='14289745' const='yes' id='63468d35'/>
    <reference-type-def kind='lvalue' type-id='63468d35' size-in-bits='64' id='5b1014e9'/>
    <qualified-type-def type-id='593b6beb' const='yes' id='fd57f37b'/>
    <reference-type-def kind='lvalue' type-id='fd57f37b' size-in-bits='64' id='2e741b67'/>
    <qualified-type-def type-id='5eb06c31' const='yes' id='a93bce81'/>
    <reference-type-def kind='lvalue' type-id='a93bce81' size-in-bits='64' id='102650e5'/>
    <qualified-type-def type-id='5aeaf4d1' const='yes' id='3ffaf541'/>
    <reference-type-def kind='lvalue' type-id='3ffaf541' size-in-bits='64' id='1f105125'/>
    <qualified-type-def type-id='850fea19' const='yes' id='66b0a789'/>
    <qualified-type-def type-id='932fa588' const='yes' id='35bea17b'/>
    <reference-type-def kind='lvalue' type-id='35bea17b' size-in-bits='64' id='f8180567'/>
    <pointer-type-def type-id='35bea17b' size-in-bits='64' id='ec17f283'/>
    <qualified-type-def type-id='1e22d1c8' const='yes' id='838365f1'/>
    <reference-type-def kind='lvalue' type-id='838365f1' size-in-bits='64' id='ded95175'/>
    <qualified-type-def type-id='70c6ed63' const='yes' id='290920f2'/>
    <reference-type-def kind='lvalue' type-id='290920f2' size-in-bits='64' id='6d5eadbc'/>
    <pointer-type-def type-id='290920f2' size-in-bits='64' id='715eb408'/>
    <qualified-type-def type-id='e21d274d' const='yes' id='faa9df90'/>
    <reference-type-def kind='lvalue' type-id='faa9df90' size-in-bits='64' id='4f6b2b82'/>
    <pointer-type-def type-id='faa9df90' size-in-bits='64' id='536b31ce'/>
    <qualified-type-def type-id='cb3bf8e2' const='yes' id='1c1a096f'/>
    <reference-type-def kind='lvalue' type-id='1c1a096f' size-in-bits='64' id='85fc9deb'/>
    <pointer-type-def type-id='1c1a096f' size-in-bits='64' id='81fc979f'/>
    <qualified-type-def type-id='05b7d99d' const='yes' id='bd5fcdb0'/>
    <reference-type-def kind='lvalue' type-id='bd5fcdb0' size-in-bits='64' id='b3d0a322'/>
    <pointer-type-def type-id='bd5fcdb0' size-in-bits='64' id='b7d0a96e'/>
    <qualified-type-def type-id='51f53c2c' const='yes' id='da433c17'/>
    <reference-type-def kind='lvalue' type-id='da433c17' size-in-bits='64' id='c8d7c123'/>
    <qualified-type-def type-id='711dbda1' const='yes' id='cbb87e56'/>
    <reference-type-def kind='lvalue' type-id='cbb87e56' size-in-bits='64' id='236f0a50'/>
    <pointer-type-def type-id='cbb87e56' size-in-bits='64' id='2f6f1d34'/>
    <qualified-type-def type-id='3dfa3ea1' const='yes' id='3aa66386'/>
    <reference-type-def kind='lvalue' type-id='3aa66386' size-in-bits='64' id='f3eed4e0'/>
    <pointer-type-def type-id='3aa66386' size-in-bits='64' id='ffeee7c4'/>
    <qualified-type-def type-id='4b347984' const='yes' id='5a56f3f5'/>
    <reference-type-def kind='lvalue' type-id='5a56f3f5' size-in-bits='64' id='09e1d529'/>
    <pointer-type-def type-id='5a56f3f5' size-in-bits='64' id='15e1e80d'/>
    <qualified-type-def type-id='cb4d277f' const='yes' id='4f327e0f'/>
    <reference-type-def kind='lvalue' type-id='4f327e0f' size-in-bits='64' id='d57c9a8b'/>
    <qualified-type-def type-id='bf50e091' const='yes' id='8a8b4fc1'/>
    <reference-type-def kind='lvalue' type-id='8a8b4fc1' size-in-bits='64' id='004ec8a5'/>
    <qualified-type-def type-id='f2d07c87' const='yes' id='0b246617'/>
    <reference-type-def kind='lvalue' type-id='0b246617' size-in-bits='64' id='bb4cdf23'/>
    <qualified-type-def type-id='0bfbb723' const='yes' id='5c96f938'/>
    <reference-type-def kind='lvalue' type-id='5c96f938' size-in-bits='64' id='dfaa2a3a'/>
    <pointer-type-def type-id='5c96f938' size-in-bits='64' id='d3aa1756'/>
    <qualified-type-def type-id='7a51dc7f' const='yes' id='ce1751af'/>
    <qualified-type-def type-id='4a30a7f0' const='yes' id='24010e40'/>
    <reference-type-def kind='lvalue' type-id='24010e40' size-in-bits='64' id='13a9aa92'/>
    <qualified-type-def type-id='279ca5fe' const='yes' id='94f17041'/>
    <reference-type-def kind='lvalue' type-id='94f17041' size-in-bits='64' id='df13f225'/>
    <qualified-type-def type-id='b49021de' const='yes' id='607efdbf'/>
    <reference-type-def kind='lvalue' type-id='607efdbf' size-in-bits='64' id='80e937db'/>
    <qualified-type-def type-id='3d7e5a22' const='yes' id='f66264a7'/>
    <reference-type-def kind='lvalue' type-id='f66264a7' size-in-bits='64' id='5de43713'/>
    <qualified-type-def type-id='8f2b8067' const='yes' id='439fb9ee'/>
    <reference-type-def kind='lvalue' type-id='439fb9ee' size-in-bits='64' id='3c7175d8'/>
    <pointer-type-def type-id='439fb9ee' size-in-bits='64' id='38716f8c'/>
    <reference-type-def kind='lvalue' type-id='38716f8c' size-in-bits='64' id='8492c89e'/>
    <qualified-type-def type-id='e0b281f4' const='yes' id='5138de13'/>
    <reference-type-def kind='lvalue' type-id='5138de13' size-in-bits='64' id='1185cd6f'/>
    <pointer-type-def type-id='5138de13' size-in-bits='64' id='1585d3bb'/>
    <qualified-type-def type-id='a61af0c3' const='yes' id='9de8bad3'/>
    <reference-type-def kind='lvalue' type-id='9de8bad3' size-in-bits='64' id='8a5e4faf'/>
    <qualified-type-def type-id='fdcd4c92' const='yes' id='fb46a8ef'/>
    <reference-type-def kind='lvalue' type-id='fb46a8ef' size-in-bits='64' id='593bb46b'/>
    <pointer-type-def type-id='fb46a8ef' size-in-bits='64' id='553bae1f'/>
    <qualified-type-def type-id='d3db4a17' const='yes' id='0e2df047'/>
    <reference-type-def kind='lvalue' type-id='0e2df047' size-in-bits='64' id='b35168b3'/>
    <qualified-type-def type-id='78700f6f' const='yes' id='f0ed5808'/>
    <reference-type-def kind='lvalue' type-id='f0ed5808' size-in-bits='64' id='73a1d06a'/>
    <pointer-type-def type-id='f0ed5808' size-in-bits='64' id='67a1bd86'/>
    <qualified-type-def type-id='8fef7ad2' const='yes' id='a03618c2'/>
    <reference-type-def kind='lvalue' type-id='a03618c2' size-in-bits='64' id='19292eec'/>
    <qualified-type-def type-id='09115523' const='yes' id='a8d9fd13'/>
    <reference-type-def kind='lvalue' type-id='a8d9fd13' size-in-bits='64' id='04299a6f'/>
    <qualified-type-def type-id='2ee1f53c' const='yes' id='ccbf4dcc'/>
    <reference-type-def kind='lvalue' type-id='ccbf4dcc' size-in-bits='64' id='3b27a75e'/>
    <qualified-type-def type-id='27d95d2c' const='yes' id='b97e3cfc'/>
    <reference-type-def kind='lvalue' type-id='b97e3cfc' size-in-bits='64' id='dbb9cb2e'/>
    <qualified-type-def type-id='15074868' const='yes' id='34225ff8'/>
    <reference-type-def kind='lvalue' type-id='34225ff8' size-in-bits='64' id='f01cea7a'/>
    <qualified-type-def type-id='0e27d686' const='yes' id='ba6de3b6'/>
    <reference-type-def kind='lvalue' type-id='ba6de3b6' size-in-bits='64' id='0afd3bb0'/>
    <qualified-type-def type-id='19cbbdd1' const='yes' id='20d51800'/>
    <reference-type-def kind='lvalue' type-id='20d51800' size-in-bits='64' id='d57503d2'/>
    <pointer-type-def type-id='20d51800' size-in-bits='64' id='d9750a1e'/>
    <qualified-type-def type-id='4d78fbea' const='yes' id='7bb6eb5a'/>
    <reference-type-def kind='lvalue' type-id='7bb6eb5a' size-in-bits='64' id='3cf4b434'/>
    <qualified-type-def type-id='55a081cb' const='yes' id='4b3c8c88'/>
    <reference-type-def kind='lvalue' type-id='4b3c8c88' size-in-bits='64' id='1e5175ea'/>
    <pointer-type-def type-id='4b3c8c88' size-in-bits='64' id='12516306'/>
    <qualified-type-def type-id='ebf00332' const='yes' id='707b6d42'/>
    <reference-type-def kind='lvalue' type-id='707b6d42' size-in-bits='64' id='764d346c'/>
    <qualified-type-def type-id='cf4aa3e6' const='yes' id='e08ef036'/>
    <reference-type-def kind='lvalue' type-id='e08ef036' size-in-bits='64' id='9103e930'/>
    <qualified-type-def type-id='978dcc6f' const='yes' id='26a97ef0'/>
    <reference-type-def kind='lvalue' type-id='26a97ef0' size-in-bits='64' id='b2d2aae2'/>
    <pointer-type-def type-id='26a97ef0' size-in-bits='64' id='b6d2b12e'/>
    <qualified-type-def type-id='7399163a' const='yes' id='4032608a'/>
    <reference-type-def kind='lvalue' type-id='4032608a' size-in-bits='64' id='bb4e2ec4'/>
    <qualified-type-def type-id='f5ec301e' const='yes' id='a99075ee'/>
    <reference-type-def kind='lvalue' type-id='a99075ee' size-in-bits='64' id='b66969d8'/>
    <qualified-type-def type-id='83a8b947' const='yes' id='c2b600b6'/>
    <reference-type-def kind='lvalue' type-id='c2b600b6' size-in-bits='64' id='1482e2b0'/>
    <pointer-type-def type-id='c2b600b6' size-in-bits='64' id='2082f594'/>
    <qualified-type-def type-id='6ceeeb4c' const='yes' id='3c11f4fc'/>
    <reference-type-def kind='lvalue' type-id='3c11f4fc' size-in-bits='64' id='6a44732e'/>
    <qualified-type-def type-id='dfb47f8c' const='yes' id='0da3a47c'/>
    <reference-type-def kind='lvalue' type-id='0da3a47c' size-in-bits='64' id='d29bb9ae'/>
    <qualified-type-def type-id='266420fd' const='yes' id='67256d7c'/>
    <reference-type-def kind='lvalue' type-id='67256d7c' size-in-bits='64' id='b9eb24ae'/>
    <pointer-type-def type-id='67256d7c' size-in-bits='64' id='b5eb1e62'/>
    <qualified-type-def type-id='1ef62cd6' const='yes' id='775757c6'/>
    <reference-type-def kind='lvalue' type-id='775757c6' size-in-bits='64' id='be7f55a0'/>
    <qualified-type-def type-id='a128aa22' const='yes' id='2dc44d12'/>
    <reference-type-def kind='lvalue' type-id='2dc44d12' size-in-bits='64' id='400588dc'/>
    <qualified-type-def type-id='b3dc1d99' const='yes' id='5a590520'/>
    <reference-type-def kind='lvalue' type-id='5a590520' size-in-bits='64' id='4022e872'/>
    <pointer-type-def type-id='5a590520' size-in-bits='64' id='4422eebe'/>
    <qualified-type-def type-id='5ab16aca' const='yes' id='15e3cdba'/>
    <reference-type-def kind='lvalue' type-id='15e3cdba' size-in-bits='64' id='119cac94'/>
    <qualified-type-def type-id='52c2492e' const='yes' id='c0326f9e'/>
    <reference-type-def kind='lvalue' type-id='c0326f9e' size-in-bits='64' id='4765dea8'/>
    <qualified-type-def type-id='04d1985b' const='yes' id='6f113dd8'/>
    <reference-type-def kind='lvalue' type-id='6f113dd8' size-in-bits='64' id='d62496da'/>
    <pointer-type-def type-id='6f113dd8' size-in-bits='64' id='ca2483f6'/>
    <qualified-type-def type-id='53365382' const='yes' id='966e8e12'/>
    <reference-type-def kind='lvalue' type-id='966e8e12' size-in-bits='64' id='0409dbdc'/>
    <qualified-type-def type-id='c3752416' const='yes' id='5ff991c6'/>
    <qualified-type-def type-id='45914776' const='yes' id='73b862c6'/>
    <reference-type-def kind='lvalue' type-id='73b862c6' size-in-bits='64' id='0b43a6a0'/>
    <qualified-type-def type-id='9dbe232f' const='yes' id='0dbf8b0c'/>
    <reference-type-def kind='lvalue' type-id='0dbf8b0c' size-in-bits='64' id='ce88131e'/>
    <pointer-type-def type-id='0dbf8b0c' size-in-bits='64' id='ca880cd2'/>
    <qualified-type-def type-id='96cf1786' const='yes' id='4f01dd16'/>
    <reference-type-def kind='lvalue' type-id='4f01dd16' size-in-bits='64' id='8fef3290'/>
    <qualified-type-def type-id='4dd03ad2' const='yes' id='1f8ed362'/>
    <reference-type-def kind='lvalue' type-id='1f8ed362' size-in-bits='64' id='f1d6940c'/>
    <qualified-type-def type-id='acb4a7aa' const='yes' id='eda92d29'/>
    <reference-type-def kind='lvalue' type-id='eda92d29' size-in-bits='64' id='3051ee9d'/>
    <qualified-type-def type-id='c9d12d66' const='yes' id='588b3216'/>
    <pointer-type-def type-id='588b3216' size-in-bits='64' id='9f201474'/>
    <qualified-type-def type-id='dddf6ca2' const='yes' id='e824a34f'/>
    <pointer-type-def type-id='e824a34f' size-in-bits='64' id='d6ad37ff'/>
    <qualified-type-def type-id='002ac4a6' const='yes' id='ea86de29'/>
    <qualified-type-def type-id='f0981eeb' const='yes' id='20f5f452'/>
    <reference-type-def kind='lvalue' type-id='20f5f452' size-in-bits='64' id='572fd29c'/>
    <qualified-type-def type-id='7359adad' const='yes' id='9cbd1c16'/>
    <reference-type-def kind='lvalue' type-id='9cbd1c16' size-in-bits='64' id='edb35f90'/>
    <pointer-type-def type-id='9cbd1c16' size-in-bits='64' id='f9b37274'/>
    <qualified-type-def type-id='8efea9e5' const='yes' id='3beb2af4'/>
    <qualified-type-def type-id='59f217f1' const='yes' id='d4ed9e46'/>
    <pointer-type-def type-id='d4ed9e46' size-in-bits='64' id='9e106404'/>
    <qualified-type-def type-id='c523b9f1' const='yes' id='effb3702'/>
    <pointer-type-def type-id='effb3702' size-in-bits='64' id='f077d3f8'/>
    <pointer-type-def type-id='f077d3f8' size-in-bits='64' id='5ea27396'/>
    <reference-type-def kind='lvalue' type-id='a0eb0f08' size-in-bits='64' id='8008e56a'/>
    <pointer-type-def type-id='a0eb0f08' size-in-bits='64' id='7408d286'/>
    <pointer-type-def type-id='e322b6ef' size-in-bits='64' id='c5f12884'/>
    <pointer-type-def type-id='96ee24a5' size-in-bits='64' id='585e1de9'/>
    <reference-type-def kind='lvalue' type-id='95e97e5e' size-in-bits='64' id='769216e8'/>
    <pointer-type-def type-id='95e97e5e' size-in-bits='64' id='7292109c'/>
    <pointer-type-def type-id='58591d3d' size-in-bits='64' id='d83ac36d'/>
    <pointer-type-def type-id='bd54fe1a' size-in-bits='64' id='3ccc2590'/>
    <reference-type-def kind='lvalue' type-id='1eb56b1e' size-in-bits='64' id='8f97c928'/>
    <pointer-type-def type-id='3a47d82b' size-in-bits='64' id='c0190993'/>
    <pointer-type-def type-id='3d7d8cbf' size-in-bits='64' id='a68021ce'/>
    <pointer-type-def type-id='a31f7002' size-in-bits='64' id='92819c30'/>
    <pointer-type-def type-id='90f82cea' size-in-bits='64' id='65655038'/>
    <pointer-type-def type-id='d65b1b26' size-in-bits='64' id='08d6048c'/>
    <pointer-type-def type-id='cbc8203e' size-in-bits='64' id='ab86bfb4'/>
    <pointer-type-def type-id='abe206f4' size-in-bits='64' id='77e71252'/>
    <pointer-type-def type-id='b0e52a27' size-in-bits='64' id='5b77561f'/>
    <pointer-type-def type-id='c08878fc' size-in-bits='64' id='fe9dea5a'/>
    <reference-type-def kind='lvalue' type-id='80b859f7' size-in-bits='64' id='fef925db'/>
    <pointer-type-def type-id='80b859f7' size-in-bits='64' id='faf91f8f'/>
    <reference-type-def kind='lvalue' type-id='205ac163' size-in-bits='64' id='676a1e18'/>
    <reference-type-def kind='lvalue' type-id='cfce782a' size-in-bits='64' id='e3918c59'/>
    <reference-type-def kind='lvalue' type-id='b91a817a' size-in-bits='64' id='510e3c7c'/>
    <reference-type-def kind='rvalue' type-id='b91a817a' size-in-bits='64' id='f36901ae'/>
    <pointer-type-def type-id='b91a817a' size-in-bits='64' id='550e42c8'/>
    <reference-type-def kind='lvalue' type-id='0a6a8535' size-in-bits='64' id='8f8982c1'/>
    <pointer-type-def type-id='0a6a8535' size-in-bits='64' id='8b897c75'/>
    <qualified-type-def type-id='8b897c75' const='yes' id='bf43f3ea'/>
    <reference-type-def kind='lvalue' type-id='bf43f3ea' size-in-bits='64' id='e3f8ca24'/>
    <reference-type-def kind='lvalue' type-id='8b897c75' size-in-bits='64' id='fc6eb6a9'/>
    <reference-type-def kind='lvalue' type-id='269b1e42' size-in-bits='64' id='1fe43774'/>
    <pointer-type-def type-id='269b1e42' size-in-bits='64' id='13e42490'/>
    <reference-type-def kind='lvalue' type-id='655a4620' size-in-bits='64' id='a12353ba'/>
    <pointer-type-def type-id='655a4620' size-in-bits='64' id='952340d6'/>
    <pointer-type-def type-id='36b1cc98' size-in-bits='64' id='e197be9e'/>
    <pointer-type-def type-id='1ffda070' size-in-bits='64' id='49d5def6'/>
    <pointer-type-def type-id='9bce7bd1' size-in-bits='64' id='d95c3769'/>
    <reference-type-def kind='lvalue' type-id='12c9ded0' size-in-bits='64' id='92a0caeb'/>
    <reference-type-def kind='lvalue' type-id='1c5d2153' size-in-bits='64' id='6aa25417'/>
    <pointer-type-def type-id='1c5d2153' size-in-bits='64' id='5ea24133'/>
    <pointer-type-def type-id='3d3cfec3' size-in-bits='64' id='8f0678d3'/>
    <pointer-type-def type-id='de9e067a' size-in-bits='64' id='cf6124c8'/>
    <reference-type-def kind='lvalue' type-id='92f4e602' size-in-bits='64' id='e198a794'/>
    <pointer-type-def type-id='92f4e602' size-in-bits='64' id='d59894b0'/>
    <reference-type-def kind='lvalue' type-id='9e57f7a8' size-in-bits='64' id='4858caf2'/>
    <pointer-type-def type-id='9e57f7a8' size-in-bits='64' id='4c58d13e'/>
    <reference-type-def kind='lvalue' type-id='a260b71f' size-in-bits='64' id='5d2745d3'/>
    <pointer-type-def type-id='a260b71f' size-in-bits='64' id='692758b7'/>
    <pointer-type-def type-id='a9d0f294' size-in-bits='64' id='72464c82'/>
    <pointer-type-def type-id='99c8705f' size-in-bits='64' id='734091b7'/>
    <pointer-type-def type-id='23b4a1a3' size-in-bits='64' id='b26ceca3'/>
    <pointer-type-def type-id='b5945972' size-in-bits='64' id='7b8c2e60'/>
    <pointer-type-def type-id='16ebd464' size-in-bits='64' id='5675e992'/>
    <reference-type-def kind='lvalue' type-id='bba4551c' size-in-bits='64' id='ffd04e06'/>
    <pointer-type-def type-id='bba4551c' size-in-bits='64' id='0bd060ea'/>
    <reference-type-def kind='rvalue' type-id='0bd060ea' size-in-bits='64' id='0e30b626'/>
    <pointer-type-def type-id='73b1e9bc' size-in-bits='64' id='5cda8a3a'/>
    <pointer-type-def type-id='6bd002c6' size-in-bits='64' id='f6d4056c'/>
    <pointer-type-def type-id='79ec9d92' size-in-bits='64' id='2b82a720'/>
    <pointer-type-def type-id='627edbe1' size-in-bits='64' id='60fed809'/>
    <pointer-type-def type-id='30faa6c5' size-in-bits='64' id='125350b5'/>
    <reference-type-def kind='lvalue' type-id='5beda56d' size-in-bits='64' id='03377a19'/>
    <pointer-type-def type-id='5beda56d' size-in-bits='64' id='0f378cfd'/>
    <pointer-type-def type-id='e9d7dfdf' size-in-bits='64' id='5784de67'/>
    <pointer-type-def type-id='b085e78f' size-in-bits='64' id='67516fb7'/>
    <pointer-type-def type-id='2a59065d' size-in-bits='64' id='5555e24d'/>
    <reference-type-def kind='lvalue' type-id='3ef4dc31' size-in-bits='64' id='d1de72bd'/>
    <pointer-type-def type-id='d6c6f7db' size-in-bits='64' id='518ed06b'/>
    <pointer-type-def type-id='4a88c8c9' size-in-bits='64' id='99d3c071'/>
    <reference-type-def kind='lvalue' type-id='689b2ca0' size-in-bits='64' id='71262f7a'/>
    <reference-type-def kind='rvalue' type-id='689b2ca0' size-in-bits='64' id='7b1c8dd4'/>
    <pointer-type-def type-id='689b2ca0' size-in-bits='64' id='65261c96'/>
    <reference-type-def kind='lvalue' type-id='71a192ba' size-in-bits='64' id='ac89790c'/>
    <pointer-type-def type-id='71a192ba' size-in-bits='64' id='b0897f58'/>
    <reference-type-def kind='lvalue' type-id='d74f2c29' size-in-bits='64' id='905daad5'/>
    <reference-type-def kind='rvalue' type-id='d74f2c29' size-in-bits='64' id='36741c89'/>
    <pointer-type-def type-id='d74f2c29' size-in-bits='64' id='945db121'/>
    <pointer-type-def type-id='fae2dadd' size-in-bits='64' id='60204ecd'/>
    <reference-type-def kind='lvalue' type-id='e8264c84' size-in-bits='64' id='a8127d81'/>
    <reference-type-def kind='lvalue' type-id='259719e9' size-in-bits='64' id='1f568675'/>
    <pointer-type-def type-id='259719e9' size-in-bits='64' id='23568cc1'/>
    <pointer-type-def type-id='2679567a' size-in-bits='64' id='cfa866f8'/>
    <pointer-type-def type-id='04f6a9ad' size-in-bits='64' id='9093e1cd'/>
    <pointer-type-def type-id='3a35e2b9' size-in-bits='64' id='f78692a1'/>
    <reference-type-def kind='lvalue' type-id='50e58ae8' size-in-bits='64' id='83ffeba2'/>
    <pointer-type-def type-id='50e58ae8' size-in-bits='64' id='87fff1ee'/>
    <pointer-type-def type-id='5a649202' size-in-bits='64' id='175bd7a0'/>
    <qualified-type-def type-id='175bd7a0' const='yes' id='2a0824f3'/>
    <reference-type-def kind='lvalue' type-id='2a0824f3' size-in-bits='64' id='ffd1fb4f'/>
    <pointer-type-def type-id='2a0824f3' size-in-bits='64' id='03d2019b'/>
    <reference-type-def kind='lvalue' type-id='175bd7a0' size-in-bits='64' id='4b9447f2'/>
    <pointer-type-def type-id='175bd7a0' size-in-bits='64' id='4f944e3e'/>
    <reference-type-def kind='lvalue' type-id='155b4039' size-in-bits='64' id='e6718bd5'/>
    <pointer-type-def type-id='155b4039' size-in-bits='64' id='ea719221'/>
    <pointer-type-def type-id='42884d44' size-in-bits='64' id='e51e2cf2'/>
    <pointer-type-def type-id='5ce21cfa' size-in-bits='64' id='beab0268'/>
    <reference-type-def kind='lvalue' type-id='b55c595f' size-in-bits='64' id='fe63c0e3'/>
    <pointer-type-def type-id='b55c595f' size-in-bits='64' id='0a63d3c7'/>
    <reference-type-def kind='lvalue' type-id='7d880de5' size-in-bits='64' id='dc8c42b1'/>
    <pointer-type-def type-id='7d880de5' size-in-bits='64' id='d88c3c65'/>
    <qualified-type-def type-id='d88c3c65' const='yes' id='4bade75a'/>
    <reference-type-def kind='lvalue' type-id='4bade75a' size-in-bits='64' id='9ec36834'/>
    <reference-type-def kind='lvalue' type-id='18ea6296' size-in-bits='64' id='24e39948'/>
    <pointer-type-def type-id='18ea6296' size-in-bits='64' id='20e392fc'/>
    <pointer-type-def type-id='5aba0530' size-in-bits='64' id='d8d5c066'/>
    <reference-type-def kind='lvalue' type-id='d3330566' size-in-bits='64' id='5c3344a8'/>
    <reference-type-def kind='rvalue' type-id='d3330566' size-in-bits='64' id='b2b4eb8a'/>
    <pointer-type-def type-id='d3330566' size-in-bits='64' id='58333e5c'/>
    <pointer-type-def type-id='4e934539' size-in-bits='64' id='88259911'/>
    <pointer-type-def type-id='903e2f23' size-in-bits='64' id='96298e26'/>
    <pointer-type-def type-id='1910560b' size-in-bits='64' id='093fe70b'/>
    <reference-type-def kind='lvalue' type-id='2ae5984c' size-in-bits='64' id='813ec326'/>
    <pointer-type-def type-id='2ae5984c' size-in-bits='64' id='8d3ed60a'/>
    <qualified-type-def type-id='8d3ed60a' const='yes' id='538f6055'/>
    <reference-type-def kind='lvalue' type-id='538f6055' size-in-bits='64' id='fdb4d509'/>
    <pointer-type-def type-id='538f6055' size-in-bits='64' id='09b4e7ed'/>
    <reference-type-def kind='lvalue' type-id='8d3ed60a' size-in-bits='64' id='85eb2744'/>
    <pointer-type-def type-id='8d3ed60a' size-in-bits='64' id='79eb1460'/>
    <pointer-type-def type-id='347905f0' size-in-bits='64' id='615afb36'/>
    <pointer-type-def type-id='cc8708c5' size-in-bits='64' id='a8755305'/>
    <qualified-type-def type-id='a8755305' const='yes' id='5624297a'/>
    <reference-type-def kind='lvalue' type-id='5624297a' size-in-bits='64' id='f6ed1bd4'/>
    <pointer-type-def type-id='5624297a' size-in-bits='64' id='eaed08f0'/>
    <reference-type-def kind='lvalue' type-id='a8755305' size-in-bits='64' id='53b1e019'/>
    <pointer-type-def type-id='a8755305' size-in-bits='64' id='5fb1f2fd'/>
    <reference-type-def kind='lvalue' type-id='5065f754' size-in-bits='64' id='3dd6602e'/>
    <pointer-type-def type-id='5065f754' size-in-bits='64' id='39d659e2'/>
    <reference-type-def kind='lvalue' type-id='29a39e7d' size-in-bits='64' id='a1607329'/>
    <pointer-type-def type-id='29a39e7d' size-in-bits='64' id='ad60860d'/>
    <pointer-type-def type-id='9f994130' size-in-bits='64' id='95b7633f'/>
    <pointer-type-def type-id='b636721b' size-in-bits='64' id='0863b590'/>
    <pointer-type-def type-id='e97c972c' size-in-bits='64' id='45f0918a'/>
    <reference-type-def kind='lvalue' type-id='e0047c3b' size-in-bits='64' id='a085e3af'/>
    <pointer-type-def type-id='e0047c3b' size-in-bits='64' id='a485e9fb'/>
    <reference-type-def kind='lvalue' type-id='b59d7dce' size-in-bits='64' id='6cc00143'/>
    <pointer-type-def type-id='b59d7dce' size-in-bits='64' id='78c01427'/>
    <reference-type-def kind='lvalue' type-id='db5b25b5' size-in-bits='64' id='7080c2b6'/>
    <pointer-type-def type-id='db5b25b5' size-in-bits='64' id='7c80d59a'/>
    <qualified-type-def type-id='7c80d59a' const='yes' id='128a5e65'/>
    <pointer-type-def type-id='1ba823a9' size-in-bits='64' id='ed42da51'/>
    <reference-type-def kind='lvalue' type-id='92fd742a' size-in-bits='64' id='253a26f3'/>
    <pointer-type-def type-id='2e59ea49' size-in-bits='64' id='6d7bef21'/>
    <reference-type-def kind='lvalue' type-id='3beb1226' size-in-bits='64' id='e3a556d7'/>
    <pointer-type-def type-id='0fe6b87f' size-in-bits='64' id='ef85a8b7'/>
    <reference-type-def kind='lvalue' type-id='dbc41e38' size-in-bits='64' id='bdc8d7b2'/>
    <pointer-type-def type-id='dbc41e38' size-in-bits='64' id='c1c8ddfe'/>
    <pointer-type-def type-id='1ee7c18a' size-in-bits='64' id='3113c6cb'/>
    <reference-type-def kind='rvalue' type-id='989aa642' size-in-bits='64' id='0ce03aa6'/>
    <pointer-type-def type-id='989aa642' size-in-bits='64' id='6a7f87c0'/>
    <reference-type-def kind='lvalue' type-id='3a2cb094' size-in-bits='64' id='93b8a7d1'/>
    <reference-type-def kind='rvalue' type-id='3a2cb094' size-in-bits='64' id='82b069d5'/>
    <pointer-type-def type-id='35f24617' size-in-bits='64' id='7b66e53f'/>
    <pointer-type-def type-id='cde98eb1' size-in-bits='64' id='2ebe4fa9'/>
    <reference-type-def kind='lvalue' type-id='54510924' size-in-bits='64' id='d777a61e'/>
    <reference-type-def kind='rvalue' type-id='54510924' size-in-bits='64' id='695aaa28'/>
    <pointer-type-def type-id='54510924' size-in-bits='64' id='d3779fd2'/>
    <pointer-type-def type-id='1d81ccc2' size-in-bits='64' id='da8b7615'/>
    <reference-type-def kind='lvalue' type-id='50f1047f' size-in-bits='64' id='2bfecac2'/>
    <pointer-type-def type-id='c3c11301' size-in-bits='64' id='608cbee8'/>
    <pointer-type-def type-id='1f40069c' size-in-bits='64' id='b64b5307'/>
    <reference-type-def kind='lvalue' type-id='cda1041d' size-in-bits='64' id='c575d0f9'/>
    <reference-type-def kind='rvalue' type-id='cda1041d' size-in-bits='64' id='b777cf0d'/>
    <pointer-type-def type-id='cda1041d' size-in-bits='64' id='d175e3dd'/>
    <reference-type-def kind='lvalue' type-id='f68892e8' size-in-bits='64' id='cfd8ae02'/>
    <reference-type-def kind='rvalue' type-id='f68892e8' size-in-bits='64' id='561a22ac'/>
    <pointer-type-def type-id='f68892e8' size-in-bits='64' id='d3d8b44e'/>
    <reference-type-def kind='lvalue' type-id='6a481acb' size-in-bits='64' id='211b184f'/>
    <reference-type-def kind='rvalue' type-id='6a481acb' size-in-bits='64' id='86a76d4b'/>
    <pointer-type-def type-id='6a481acb' size-in-bits='64' id='251b1e9b'/>
    <reference-type-def kind='lvalue' type-id='32b70dcd' size-in-bits='64' id='8b18a329'/>
    <reference-type-def kind='rvalue' type-id='32b70dcd' size-in-bits='64' id='06c8b09d'/>
    <pointer-type-def type-id='32b70dcd' size-in-bits='64' id='9718b60d'/>
    <reference-type-def kind='lvalue' type-id='ba0c08f6' size-in-bits='64' id='27c95698'/>
    <reference-type-def kind='rvalue' type-id='ba0c08f6' size-in-bits='64' id='5ff38d1a'/>
    <pointer-type-def type-id='ba0c08f6' size-in-bits='64' id='23c9504c'/>
    <reference-type-def kind='lvalue' type-id='0a75a6f0' size-in-bits='64' id='60671f1a'/>
    <reference-type-def kind='rvalue' type-id='0a75a6f0' size-in-bits='64' id='fe562b74'/>
    <pointer-type-def type-id='0a75a6f0' size-in-bits='64' id='54670c36'/>
    <reference-type-def kind='rvalue' type-id='3d22250d' size-in-bits='64' id='db8cff7d'/>
    <pointer-type-def type-id='3d22250d' size-in-bits='64' id='ff67f76d'/>
    <pointer-type-def type-id='23bb83e9' size-in-bits='64' id='bf5dc171'/>
    <reference-type-def kind='lvalue' type-id='ad5e76c4' size-in-bits='64' id='8015304d'/>
    <reference-type-def kind='rvalue' type-id='ad5e76c4' size-in-bits='64' id='0c5b3871'/>
    <reference-type-def kind='rvalue' type-id='1f70009d' size-in-bits='64' id='045092ed'/>
    <pointer-type-def type-id='1f70009d' size-in-bits='64' id='a93bfc3d'/>
    <pointer-type-def type-id='8f875259' size-in-bits='64' id='32c170e1'/>
    <reference-type-def kind='lvalue' type-id='a4696aa4' size-in-bits='64' id='5abccedd'/>
    <reference-type-def kind='rvalue' type-id='a4696aa4' size-in-bits='64' id='d239d521'/>
    <reference-type-def kind='lvalue' type-id='cd342967' size-in-bits='64' id='5ce24c1b'/>
    <pointer-type-def type-id='cd342967' size-in-bits='64' id='58e245cf'/>
    <reference-type-def kind='lvalue' type-id='8c85715c' size-in-bits='64' id='3d408a26'/>
    <pointer-type-def type-id='8c85715c' size-in-bits='64' id='49409d0a'/>
    <reference-type-def kind='lvalue' type-id='342201c4' size-in-bits='64' id='5d0642ee'/>
    <reference-type-def kind='rvalue' type-id='342201c4' size-in-bits='64' id='38db20d8'/>
    <pointer-type-def type-id='342201c4' size-in-bits='64' id='59063ca2'/>
    <reference-type-def kind='lvalue' type-id='468e948e' size-in-bits='64' id='8fdcbfdd'/>
    <reference-type-def kind='lvalue' type-id='fca69d38' size-in-bits='64' id='e382639b'/>
    <reference-type-def kind='rvalue' type-id='fca69d38' size-in-bits='64' id='e3430287'/>
    <pointer-type-def type-id='e63f7d87' size-in-bits='64' id='2f4518df'/>
    <reference-type-def kind='lvalue' type-id='bd9f9d66' size-in-bits='64' id='0d2b16a8'/>
    <reference-type-def kind='rvalue' type-id='bd9f9d66' size-in-bits='64' id='48d4818a'/>
    <pointer-type-def type-id='bd9f9d66' size-in-bits='64' id='092b105c'/>
    <reference-type-def kind='lvalue' type-id='fb6443ee' size-in-bits='64' id='4da204b7'/>
    <reference-type-def kind='lvalue' type-id='bd260598' size-in-bits='64' id='0221a9a1'/>
    <reference-type-def kind='rvalue' type-id='bd260598' size-in-bits='64' id='e1fddf85'/>
    <pointer-type-def type-id='a7909621' size-in-bits='64' id='7a234bd9'/>
    <reference-type-def kind='lvalue' type-id='fc00fa33' size-in-bits='64' id='ee334fa7'/>
    <reference-type-def kind='rvalue' type-id='fc00fa33' size-in-bits='64' id='7bc62813'/>
    <pointer-type-def type-id='fc00fa33' size-in-bits='64' id='e2333cc3'/>
    <reference-type-def kind='lvalue' type-id='6659dce5' size-in-bits='64' id='d8c8368e'/>
    <reference-type-def kind='lvalue' type-id='09f366c3' size-in-bits='64' id='cffa729c'/>
    <reference-type-def kind='rvalue' type-id='09f366c3' size-in-bits='64' id='21429ace'/>
    <pointer-type-def type-id='e3767d22' size-in-bits='64' id='acde6490'/>
    <reference-type-def kind='lvalue' type-id='b727fac8' size-in-bits='64' id='a9cbd9d2'/>
    <reference-type-def kind='rvalue' type-id='b727fac8' size-in-bits='64' id='3fe81b1c'/>
    <pointer-type-def type-id='b727fac8' size-in-bits='64' id='adcbe01e'/>
    <reference-type-def kind='lvalue' type-id='5af97bbc' size-in-bits='64' id='37793299'/>
    <reference-type-def kind='lvalue' type-id='c1d91732' size-in-bits='64' id='843f7c1f'/>
    <reference-type-def kind='rvalue' type-id='c1d91732' size-in-bits='64' id='68f08dbb'/>
    <pointer-type-def type-id='598a4213' size-in-bits='64' id='d35d7923'/>
    <pointer-type-def type-id='bf7a2a67' size-in-bits='64' id='404dbf5f'/>
    <reference-type-def kind='lvalue' type-id='dd7bf01b' size-in-bits='64' id='9fa517c4'/>
    <pointer-type-def type-id='9cf114e3' size-in-bits='64' id='0f18e0c3'/>
    <reference-type-def kind='lvalue' type-id='b3c2d357' size-in-bits='64' id='08a07e48'/>
    <reference-type-def kind='lvalue' type-id='f62d42bb' size-in-bits='64' id='46dfdbaf'/>
    <pointer-type-def type-id='f62d42bb' size-in-bits='64' id='4adfe1fb'/>
    <reference-type-def kind='lvalue' type-id='e1a99517' size-in-bits='64' id='b3d3ca2b'/>
    <pointer-type-def type-id='e1a99517' size-in-bits='64' id='afd3c3df'/>
    <reference-type-def kind='lvalue' type-id='e3836d76' size-in-bits='64' id='15f1e408'/>
    <pointer-type-def type-id='e3836d76' size-in-bits='64' id='11f1ddbc'/>
    <reference-type-def kind='lvalue' type-id='ef463c95' size-in-bits='64' id='357b9691'/>
    <pointer-type-def type-id='ef463c95' size-in-bits='64' id='317b9045'/>
    <pointer-type-def type-id='2ca858ff' size-in-bits='64' id='458526d7'/>
    <qualified-type-def type-id='458526d7' const='yes' id='748f0c84'/>
    <reference-type-def kind='lvalue' type-id='748f0c84' size-in-bits='64' id='1f30e306'/>
    <reference-type-def kind='lvalue' type-id='cda954c4' size-in-bits='64' id='99aafbee'/>
    <pointer-type-def type-id='cda954c4' size-in-bits='64' id='95aaf5a2'/>
    <reference-type-def kind='lvalue' type-id='aa51721d' size-in-bits='64' id='61e87479'/>
    <reference-type-def kind='rvalue' type-id='aa51721d' size-in-bits='64' id='7fef318d'/>
    <pointer-type-def type-id='aa51721d' size-in-bits='64' id='6de8875d'/>
    <reference-type-def kind='lvalue' type-id='bb577165' size-in-bits='64' id='4b4ea93e'/>
    <reference-type-def kind='lvalue' type-id='4099a043' size-in-bits='64' id='45aa5d47'/>
    <reference-type-def kind='rvalue' type-id='4099a043' size-in-bits='64' id='0c30ffb3'/>
    <pointer-type-def type-id='4099a043' size-in-bits='64' id='39aa4a63'/>
    <reference-type-def kind='lvalue' type-id='13aaf129' size-in-bits='64' id='d07aedc0'/>
    <reference-type-def kind='lvalue' type-id='6900e603' size-in-bits='64' id='c8033e87'/>
    <reference-type-def kind='rvalue' type-id='6900e603' size-in-bits='64' id='7e1b9773'/>
    <pointer-type-def type-id='6900e603' size-in-bits='64' id='bc032ba3'/>
    <reference-type-def kind='lvalue' type-id='91391511' size-in-bits='64' id='56688100'/>
    <reference-type-def kind='lvalue' type-id='33544102' size-in-bits='64' id='21717624'/>
    <reference-type-def kind='rvalue' type-id='33544102' size-in-bits='64' id='a79cc526'/>
    <pointer-type-def type-id='33544102' size-in-bits='64' id='15716340'/>
    <reference-type-def kind='lvalue' type-id='49cd40b6' size-in-bits='64' id='3723a63f'/>
    <reference-type-def kind='lvalue' type-id='499eed0d' size-in-bits='64' id='aab9fed9'/>
    <reference-type-def kind='rvalue' type-id='499eed0d' size-in-bits='64' id='c1cc6b6d'/>
    <pointer-type-def type-id='499eed0d' size-in-bits='64' id='b6ba11bd'/>
    <reference-type-def kind='lvalue' type-id='dd7fc543' size-in-bits='64' id='f651541e'/>
    <reference-type-def kind='lvalue' type-id='ac13fdb4' size-in-bits='64' id='e88fef1e'/>
    <reference-type-def kind='rvalue' type-id='ac13fdb4' size-in-bits='64' id='52959528'/>
    <pointer-type-def type-id='ac13fdb4' size-in-bits='64' id='e48fe8d2'/>
    <reference-type-def kind='lvalue' type-id='5968e51a' size-in-bits='64' id='1a8cae35'/>
    <reference-type-def kind='lvalue' type-id='372320cd' size-in-bits='64' id='6db46679'/>
    <pointer-type-def type-id='372320cd' size-in-bits='64' id='79b4795d'/>
    <pointer-type-def type-id='4684a922' size-in-bits='64' id='fa499240'/>
    <reference-type-def kind='rvalue' type-id='f7bab28a' size-in-bits='64' id='ccf1a4ae'/>
    <pointer-type-def type-id='f7bab28a' size-in-bits='64' id='aa14f3c8'/>
    <reference-type-def kind='lvalue' type-id='ecc84eb9' size-in-bits='64' id='166a1da0'/>
    <reference-type-def kind='rvalue' type-id='ecc84eb9' size-in-bits='64' id='cf0c79f2'/>
    <reference-type-def kind='lvalue' type-id='2d45ea9f' size-in-bits='64' id='120008b3'/>
    <pointer-type-def type-id='2d45ea9f' size-in-bits='64' id='1e001b97'/>
    <reference-type-def kind='rvalue' type-id='8a2a50c2' size-in-bits='64' id='abf81fe6'/>
    <pointer-type-def type-id='8a2a50c2' size-in-bits='64' id='09dc5580'/>
    <reference-type-def kind='lvalue' type-id='1111f725' size-in-bits='64' id='2b5aca98'/>
    <reference-type-def kind='rvalue' type-id='1111f725' size-in-bits='64' id='fded291a'/>
    <reference-type-def kind='lvalue' type-id='a0d25457' size-in-bits='64' id='a277ba9b'/>
    <pointer-type-def type-id='a0d25457' size-in-bits='64' id='9e77b44f'/>
    <reference-type-def kind='rvalue' type-id='2f38be8c' size-in-bits='64' id='c58d97e0'/>
    <pointer-type-def type-id='2f38be8c' size-in-bits='64' id='3192876a'/>
    <reference-type-def kind='lvalue' type-id='da3d5539' size-in-bits='64' id='c694e826'/>
    <reference-type-def kind='rvalue' type-id='da3d5539' size-in-bits='64' id='9c693800'/>
    <reference-type-def kind='lvalue' type-id='315ccbc9' size-in-bits='64' id='12bdeee5'/>
    <pointer-type-def type-id='315ccbc9' size-in-bits='64' id='16bdf531'/>
    <reference-type-def kind='rvalue' type-id='9e8a7eba' size-in-bits='64' id='d794190e'/>
    <pointer-type-def type-id='9e8a7eba' size-in-bits='64' id='0bdae9a8'/>
    <reference-type-def kind='lvalue' type-id='ef46354b' size-in-bits='64' id='4e78f800'/>
    <reference-type-def kind='rvalue' type-id='ef46354b' size-in-bits='64' id='ae6ea3d2'/>
    <reference-type-def kind='lvalue' type-id='8023624f' size-in-bits='64' id='1d327153'/>
    <pointer-type-def type-id='8023624f' size-in-bits='64' id='29328437'/>
    <reference-type-def kind='rvalue' type-id='174fb8a6' size-in-bits='64' id='e3833c2a'/>
    <pointer-type-def type-id='174fb8a6' size-in-bits='64' id='f4088efc'/>
    <reference-type-def kind='lvalue' type-id='da54f4ff' size-in-bits='64' id='7061ea64'/>
    <reference-type-def kind='rvalue' type-id='da54f4ff' size-in-bits='64' id='2c23c5e6'/>
    <reference-type-def kind='lvalue' type-id='b044b08b' size-in-bits='64' id='817db45f'/>
    <pointer-type-def type-id='b044b08b' size-in-bits='64' id='857dbaab'/>
    <reference-type-def kind='rvalue' type-id='8a6d7f42' size-in-bits='64' id='63186ca6'/>
    <pointer-type-def type-id='8a6d7f42' size-in-bits='64' id='03cdcdc0'/>
    <reference-type-def kind='lvalue' type-id='d230e259' size-in-bits='64' id='746b08d8'/>
    <reference-type-def kind='rvalue' type-id='d230e259' size-in-bits='64' id='427f27da'/>
    <reference-type-def kind='lvalue' type-id='35f4ded7' size-in-bits='64' id='1ace8edb'/>
    <pointer-type-def type-id='35f4ded7' size-in-bits='64' id='16ce888f'/>
    <reference-type-def kind='rvalue' type-id='5cf278ae' size-in-bits='64' id='724f48a2'/>
    <pointer-type-def type-id='5cf278ae' size-in-bits='64' id='1e041514'/>
    <reference-type-def kind='lvalue' type-id='9fca5015' size-in-bits='64' id='acd3b05c'/>
    <reference-type-def kind='rvalue' type-id='9fca5015' size-in-bits='64' id='8b3ed00e'/>
    <reference-type-def kind='lvalue' type-id='2e4c7593' size-in-bits='64' id='0295a3c7'/>
    <pointer-type-def type-id='2e4c7593' size-in-bits='64' id='f69590e3'/>
    <reference-type-def kind='lvalue' type-id='671ca727' size-in-bits='64' id='3c0e9ceb'/>
    <pointer-type-def type-id='671ca727' size-in-bits='64' id='380e969f'/>
    <reference-type-def kind='lvalue' type-id='30f32c26' size-in-bits='64' id='b75f1e1f'/>
    <reference-type-def kind='lvalue' type-id='ea947be9' size-in-bits='64' id='8ee2ba65'/>
    <pointer-type-def type-id='ea947be9' size-in-bits='64' id='92e2c0b1'/>
    <pointer-type-def type-id='7525887d' size-in-bits='64' id='9ad007e6'/>
    <reference-type-def kind='lvalue' type-id='3ae61ff9' size-in-bits='64' id='0d935955'/>
    <pointer-type-def type-id='3ae61ff9' size-in-bits='64' id='11935fa1'/>
    <pointer-type-def type-id='e0dccabd' size-in-bits='64' id='26853ddd'/>
    <pointer-type-def type-id='84539277' size-in-bits='64' id='937ff3df'/>
    <reference-type-def kind='rvalue' type-id='f825a5b0' size-in-bits='64' id='f85d90d4'/>
    <pointer-type-def type-id='f825a5b0' size-in-bits='64' id='544eed96'/>
    <pointer-type-def type-id='6bccd5b6' size-in-bits='64' id='b4939131'/>
    <reference-type-def kind='lvalue' type-id='21b9000e' size-in-bits='64' id='5b3e1db9'/>
    <pointer-type-def type-id='68c773b5' size-in-bits='64' id='356f6404'/>
    <pointer-type-def type-id='8e7dc1d8' size-in-bits='64' id='961ea5eb'/>
    <reference-type-def kind='lvalue' type-id='f8fcf572' size-in-bits='64' id='f62a8624'/>
    <pointer-type-def type-id='f8fcf572' size-in-bits='64' id='ea2a7340'/>
    <pointer-type-def type-id='1b40df40' size-in-bits='64' id='3286addd'/>
    <reference-type-def kind='lvalue' type-id='882f1f6b' size-in-bits='64' id='8718412f'/>
    <pointer-type-def type-id='882f1f6b' size-in-bits='64' id='8b18477b'/>
    <reference-type-def kind='lvalue' type-id='fc2ddc06' size-in-bits='64' id='25d26238'/>
    <pointer-type-def type-id='fc2ddc06' size-in-bits='64' id='21d25bec'/>
    <reference-type-def kind='lvalue' type-id='05eed095' size-in-bits='64' id='c85bba21'/>
    <pointer-type-def type-id='05eed095' size-in-bits='64' id='c45bb3d5'/>
    <reference-type-def kind='lvalue' type-id='b3bf6f88' size-in-bits='64' id='2bf87cb2'/>
    <pointer-type-def type-id='b3bf6f88' size-in-bits='64' id='2ff882fe'/>
    <reference-type-def kind='lvalue' type-id='486d1b46' size-in-bits='64' id='4f12b158'/>
    <pointer-type-def type-id='486d1b46' size-in-bits='64' id='4b12ab0c'/>
    <pointer-type-def type-id='060a36f4' size-in-bits='64' id='1ba4e122'/>
    <reference-type-def kind='lvalue' type-id='a7a86da9' size-in-bits='64' id='dedc7ae0'/>
    <reference-type-def kind='lvalue' type-id='c3d55545' size-in-bits='64' id='f172a971'/>
    <pointer-type-def type-id='c3d55545' size-in-bits='64' id='ed72a325'/>
    <pointer-type-def type-id='1cd8dc81' size-in-bits='64' id='64c873b9'/>
    <reference-type-def kind='rvalue' type-id='5223ee98' size-in-bits='64' id='a20aae6d'/>
    <reference-type-def kind='lvalue' type-id='038a69ec' size-in-bits='64' id='343ea227'/>
    <reference-type-def kind='lvalue' type-id='a2bd16cb' size-in-bits='64' id='ff8db04f'/>
    <pointer-type-def type-id='209bdce6' size-in-bits='64' id='7fd63efc'/>
    <pointer-type-def type-id='7151ab78' size-in-bits='64' id='c464c77e'/>
    <reference-type-def kind='lvalue' type-id='95938bc2' size-in-bits='64' id='aadae864'/>
    <reference-type-def kind='lvalue' type-id='6b9d5730' size-in-bits='64' id='0e7b14c5'/>
    <reference-type-def kind='lvalue' type-id='6359e17a' size-in-bits='64' id='63618757'/>
    <reference-type-def kind='lvalue' type-id='af956092' size-in-bits='64' id='15e40c9d'/>
    <reference-type-def kind='lvalue' type-id='6b861cd4' size-in-bits='64' id='1d9d0503'/>
    <reference-type-def kind='lvalue' type-id='5f630eaa' size-in-bits='64' id='c4fe1a05'/>
    <reference-type-def kind='lvalue' type-id='77e66f8a' size-in-bits='64' id='50c01d7b'/>
    <reference-type-def kind='lvalue' type-id='862144ae' size-in-bits='64' id='403223eb'/>
    <reference-type-def kind='lvalue' type-id='bb3a9216' size-in-bits='64' id='f62b7683'/>
    <reference-type-def kind='lvalue' type-id='8d352a4e' size-in-bits='64' id='940fdc43'/>
    <reference-type-def kind='lvalue' type-id='407a18d6' size-in-bits='64' id='41066da3'/>
    <reference-type-def kind='lvalue' type-id='0a646536' size-in-bits='64' id='b171c037'/>
    <reference-type-def kind='lvalue' type-id='e386d682' size-in-bits='64' id='907fe124'/>
    <pointer-type-def type-id='e386d682' size-in-bits='64' id='847fce40'/>
    <reference-type-def kind='lvalue' type-id='5a9e6648' size-in-bits='64' id='e51863b2'/>
    <reference-type-def kind='rvalue' type-id='5a9e6648' size-in-bits='64' id='3964c1fc'/>
    <pointer-type-def type-id='5a9e6648' size-in-bits='64' id='e91869fe'/>
    <pointer-type-def type-id='ad818c8d' size-in-bits='64' id='612c29cd'/>
    <pointer-type-def type-id='18a15b7d' size-in-bits='64' id='eb333b9d'/>
    <reference-type-def kind='lvalue' type-id='79b343c0' size-in-bits='64' id='9f3cca1a'/>
    <pointer-type-def type-id='79b343c0' size-in-bits='64' id='933cb736'/>
    <reference-type-def kind='lvalue' type-id='f2fa6699' size-in-bits='64' id='fe621705'/>
    <pointer-type-def type-id='f2fa6699' size-in-bits='64' id='02621d51'/>
    <pointer-type-def type-id='eb166b35' size-in-bits='64' id='4acb8155'/>
    <pointer-type-def type-id='a67ba367' size-in-bits='64' id='2da62bff'/>
    <reference-type-def kind='lvalue' type-id='25deba76' size-in-bits='64' id='0af6a208'/>
    <pointer-type-def type-id='25deba76' size-in-bits='64' id='06f69bbc'/>
    <reference-type-def kind='lvalue' type-id='92377e58' size-in-bits='64' id='fecd56a2'/>
    <pointer-type-def type-id='92377e58' size-in-bits='64' id='02cd5cee'/>
    <reference-type-def kind='lvalue' type-id='7a54f84d' size-in-bits='64' id='414d9869'/>
    <pointer-type-def type-id='7a54f84d' size-in-bits='64' id='4d4dab4d'/>
    <pointer-type-def type-id='052d8e22' size-in-bits='64' id='a20cfc80'/>
    <pointer-type-def type-id='8122aa85' size-in-bits='64' id='25037975'/>
    <pointer-type-def type-id='b449e105' size-in-bits='64' id='5153aca5'/>
    <pointer-type-def type-id='f9660eda' size-in-bits='64' id='a2047d48'/>
    <pointer-type-def type-id='f0568441' size-in-bits='64' id='1d4d4939'/>
    <pointer-type-def type-id='bf493335' size-in-bits='64' id='95590f95'/>
    <pointer-type-def type-id='ab242dd8' size-in-bits='64' id='000dfd4e'/>
    <reference-type-def kind='lvalue' type-id='59a87d47' size-in-bits='64' id='5c9b362b'/>
    <pointer-type-def type-id='59a87d47' size-in-bits='64' id='589b2fdf'/>
    <reference-type-def kind='lvalue' type-id='51120c8b' size-in-bits='64' id='05713c6f'/>
    <pointer-type-def type-id='51120c8b' size-in-bits='64' id='097142bb'/>
    <reference-type-def kind='lvalue' type-id='8c16474d' size-in-bits='64' id='94107e09'/>
    <pointer-type-def type-id='8c16474d' size-in-bits='64' id='a01090ed'/>
    <reference-type-def kind='lvalue' type-id='46c7c4e1' size-in-bits='64' id='f0de6dbd'/>
    <pointer-type-def type-id='46c7c4e1' size-in-bits='64' id='e4de5ad9'/>
    <pointer-type-def type-id='2f965b5f' size-in-bits='64' id='a5be3597'/>
    <reference-type-def kind='lvalue' type-id='accb8af4' size-in-bits='64' id='fbe2315e'/>
    <pointer-type-def type-id='accb8af4' size-in-bits='64' id='f7e22b12'/>
    <reference-type-def kind='lvalue' type-id='e0f0e597' size-in-bits='64' id='08ce9bfb'/>
    <pointer-type-def type-id='e0f0e597' size-in-bits='64' id='04ce95af'/>
    <reference-type-def kind='lvalue' type-id='93bf8a31' size-in-bits='64' id='21934f9d'/>
    <pointer-type-def type-id='93bf8a31' size-in-bits='64' id='15933cb9'/>
    <pointer-type-def type-id='5257b067' size-in-bits='64' id='8ae104b4'/>
    <pointer-type-def type-id='65aa88ac' size-in-bits='64' id='c4299a67'/>
    <pointer-type-def type-id='77cda391' size-in-bits='64' id='0eeaf762'/>
    <pointer-type-def type-id='276b6fe1' size-in-bits='64' id='4f2171c4'/>
    <pointer-type-def type-id='bf40e2e6' size-in-bits='64' id='08d5e12b'/>
    <pointer-type-def type-id='89e87c5c' size-in-bits='64' id='32e733d9'/>
    <pointer-type-def type-id='fb0fe154' size-in-bits='64' id='f9c3d887'/>
    <pointer-type-def type-id='2a869ba4' size-in-bits='64' id='99a02e8b'/>
    <pointer-type-def type-id='c2255f1d' size-in-bits='64' id='9e8e5a38'/>
    <pointer-type-def type-id='88fd1662' size-in-bits='64' id='7a966485'/>
    <pointer-type-def type-id='c2000c8a' size-in-bits='64' id='053397cf'/>
    <reference-type-def kind='lvalue' type-id='86de309b' size-in-bits='64' id='f5aaf01f'/>
    <pointer-type-def type-id='86de309b' size-in-bits='64' id='f9aaf66b'/>
    <reference-type-def kind='lvalue' type-id='53aa7b2e' size-in-bits='64' id='a6a65310'/>
    <pointer-type-def type-id='53aa7b2e' size-in-bits='64' id='b2a665f4'/>
    <qualified-type-def type-id='b2a665f4' const='yes' id='5cf4f0bf'/>
    <reference-type-def kind='lvalue' type-id='5cf4f0bf' size-in-bits='64' id='ee96c0db'/>
    <reference-type-def kind='lvalue' type-id='b2a665f4' size-in-bits='64' id='0df24996'/>
    <reference-type-def kind='lvalue' type-id='c2931f67' size-in-bits='64' id='1a9350bb'/>
    <reference-type-def kind='rvalue' type-id='c2931f67' size-in-bits='64' id='72e7e727'/>
    <pointer-type-def type-id='c2931f67' size-in-bits='64' id='16934a6f'/>
    <qualified-type-def type-id='16934a6f' const='yes' id='0162fafc'/>
    <reference-type-def kind='lvalue' type-id='0162fafc' size-in-bits='64' id='08d0e52e'/>
    <reference-type-def kind='lvalue' type-id='16934a6f' size-in-bits='64' id='d2ddf0eb'/>
    <pointer-type-def type-id='bab0e33c' size-in-bits='64' id='daf943aa'/>
    <reference-type-def kind='lvalue' type-id='34601093' size-in-bits='64' id='6f1c93e7'/>
    <pointer-type-def type-id='34601093' size-in-bits='64' id='631c8103'/>
    <reference-type-def kind='lvalue' type-id='92196c4c' size-in-bits='64' id='5356a716'/>
    <pointer-type-def type-id='92196c4c' size-in-bits='64' id='5f56b9fa'/>
    <reference-type-def kind='lvalue' type-id='54d2acac' size-in-bits='64' id='f97b5dd6'/>
    <pointer-type-def type-id='54d2acac' size-in-bits='64' id='057b70ba'/>
    <reference-type-def kind='lvalue' type-id='9c9d7afc' size-in-bits='64' id='21ce3276'/>
    <pointer-type-def type-id='9c9d7afc' size-in-bits='64' id='2dce455a'/>
    <reference-type-def kind='lvalue' type-id='f74f1ea1' size-in-bits='64' id='b70525bd'/>
    <pointer-type-def type-id='f74f1ea1' size-in-bits='64' id='ab0512d9'/>
    <reference-type-def kind='lvalue' type-id='272904c5' size-in-bits='64' id='ec319ad1'/>
    <pointer-type-def type-id='272904c5' size-in-bits='64' id='e8319485'/>
    <reference-type-def kind='lvalue' type-id='eee0aef8' size-in-bits='64' id='42463322'/>
    <pointer-type-def type-id='eee0aef8' size-in-bits='64' id='4646396e'/>
    <reference-type-def kind='lvalue' type-id='32496eb6' size-in-bits='64' id='de583728'/>
    <pointer-type-def type-id='f5f48c97' size-in-bits='64' id='f1cccbbf'/>
    <reference-type-def kind='lvalue' type-id='13cb82bc' size-in-bits='64' id='5af36f86'/>
    <reference-type-def kind='rvalue' type-id='13cb82bc' size-in-bits='64' id='cd38b8e0'/>
    <pointer-type-def type-id='13cb82bc' size-in-bits='64' id='66f3826a'/>
    <reference-type-def kind='lvalue' type-id='20a4a626' size-in-bits='64' id='8af3a108'/>
    <pointer-type-def type-id='330de355' size-in-bits='64' id='e3f76a65'/>
    <pointer-type-def type-id='5580186d' size-in-bits='64' id='116f3a9d'/>
    <pointer-type-def type-id='2e1870a5' size-in-bits='64' id='6077d4b5'/>
    <pointer-type-def type-id='fcfdd9af' size-in-bits='64' id='341ef017'/>
    <reference-type-def kind='lvalue' type-id='1a0bf4cd' size-in-bits='64' id='7ad58d19'/>
    <pointer-type-def type-id='59ced1f8' size-in-bits='64' id='92133be2'/>
    <pointer-type-def type-id='e225edbb' size-in-bits='64' id='9565452b'/>
    <reference-type-def kind='lvalue' type-id='537d8ea8' size-in-bits='64' id='182beae2'/>
    <reference-type-def kind='lvalue' type-id='739d8600' size-in-bits='64' id='30cdf6ca'/>
    <reference-type-def kind='rvalue' type-id='739d8600' size-in-bits='64' id='c03bb584'/>
    <pointer-type-def type-id='739d8600' size-in-bits='64' id='24cde3e6'/>
    <reference-type-def kind='rvalue' type-id='8c3554bf' size-in-bits='64' id='e7232242'/>
    <reference-type-def kind='lvalue' type-id='a4e90020' size-in-bits='64' id='bdefcb4a'/>
    <reference-type-def kind='rvalue' type-id='a4e90020' size-in-bits='64' id='6c7d3b04'/>
    <pointer-type-def type-id='a4e90020' size-in-bits='64' id='b1efb866'/>
    <reference-type-def kind='rvalue' type-id='3ce05bcf' size-in-bits='64' id='0c15afc2'/>
    <reference-type-def kind='lvalue' type-id='1c3fe98e' size-in-bits='64' id='1b4db4c0'/>
    <reference-type-def kind='rvalue' type-id='1c3fe98e' size-in-bits='64' id='e153c612'/>
    <pointer-type-def type-id='1c3fe98e' size-in-bits='64' id='274dc7a4'/>
    <reference-type-def kind='rvalue' type-id='2653955d' size-in-bits='64' id='69205316'/>
    <reference-type-def kind='lvalue' type-id='bbf7a6b3' size-in-bits='64' id='0b5649d0'/>
    <reference-type-def kind='lvalue' type-id='072b9002' size-in-bits='64' id='cd4aa434'/>
    <reference-type-def kind='rvalue' type-id='072b9002' size-in-bits='64' id='3e804856'/>
    <pointer-type-def type-id='072b9002' size-in-bits='64' id='c14a9150'/>
    <reference-type-def kind='rvalue' type-id='018e8a71' size-in-bits='64' id='9b30e9aa'/>
    <reference-type-def kind='lvalue' type-id='a9f5b87f' size-in-bits='64' id='f49629bc'/>
    <reference-type-def kind='lvalue' type-id='a8a8a4b2' size-in-bits='64' id='ad808a34'/>
    <reference-type-def kind='rvalue' type-id='a8a8a4b2' size-in-bits='64' id='33595a56'/>
    <pointer-type-def type-id='a8a8a4b2' size-in-bits='64' id='a1807750'/>
    <reference-type-def kind='rvalue' type-id='593b6beb' size-in-bits='64' id='3cb78baa'/>
    <reference-type-def kind='lvalue' type-id='5eb06c31' size-in-bits='64' id='a2029bbc'/>
    <pointer-type-def type-id='16e7d704' size-in-bits='64' id='c651db02'/>
    <reference-type-def kind='lvalue' type-id='932fa588' size-in-bits='64' id='5ef324a2'/>
    <pointer-type-def type-id='932fa588' size-in-bits='64' id='62f32aee'/>
    <reference-type-def kind='rvalue' type-id='f937412d' size-in-bits='64' id='0c549d1a'/>
    <reference-type-def kind='lvalue' type-id='a8e08226' size-in-bits='64' id='d19833bf'/>
    <pointer-type-def type-id='6874d9fc' size-in-bits='64' id='3f09143e'/>
    <reference-type-def kind='lvalue' type-id='1e22d1c8' size-in-bits='64' id='ef4a7d42'/>
    <reference-type-def kind='rvalue' type-id='1e22d1c8' size-in-bits='64' id='1643646c'/>
    <pointer-type-def type-id='1e22d1c8' size-in-bits='64' id='f34a838e'/>
    <reference-type-def kind='lvalue' type-id='70c6ed63' size-in-bits='64' id='9d027ec7'/>
    <pointer-type-def type-id='70c6ed63' size-in-bits='64' id='91026be3'/>
    <reference-type-def kind='lvalue' type-id='e21d274d' size-in-bits='64' id='7020c279'/>
    <reference-type-def kind='rvalue' type-id='e21d274d' size-in-bits='64' id='e291fb8d'/>
    <pointer-type-def type-id='e21d274d' size-in-bits='64' id='7c20d55d'/>
    <reference-type-def kind='lvalue' type-id='cb3bf8e2' size-in-bits='64' id='c6ceb024'/>
    <reference-type-def kind='rvalue' type-id='cb3bf8e2' size-in-bits='64' id='f95f1326'/>
    <pointer-type-def type-id='cb3bf8e2' size-in-bits='64' id='bace9d40'/>
    <reference-type-def kind='lvalue' type-id='05b7d99d' size-in-bits='64' id='72e4ba89'/>
    <reference-type-def kind='rvalue' type-id='05b7d99d' size-in-bits='64' id='8d11e17d'/>
    <pointer-type-def type-id='05b7d99d' size-in-bits='64' id='7ee4cd6d'/>
    <reference-type-def kind='lvalue' type-id='51f53c2c' size-in-bits='64' id='e9bc0b96'/>
    <reference-type-def kind='rvalue' type-id='51f53c2c' size-in-bits='64' id='a3066610'/>
    <pointer-type-def type-id='51f53c2c' size-in-bits='64' id='f5bc1e7a'/>
    <reference-type-def kind='lvalue' type-id='df080b9a' size-in-bits='64' id='048d479f'/>
    <reference-type-def kind='lvalue' type-id='edb53e00' size-in-bits='64' id='7ba3fe3b'/>
    <reference-type-def kind='rvalue' type-id='bfe165e8' size-in-bits='64' id='8eebcbd7'/>
    <reference-type-def kind='rvalue' type-id='5dccc3bd' size-in-bits='64' id='96e85c4e'/>
    <reference-type-def kind='lvalue' type-id='b0e75b51' size-in-bits='64' id='fc97c772'/>
    <reference-type-def kind='lvalue' type-id='2bce8677' size-in-bits='64' id='5805d6e0'/>
    <reference-type-def kind='rvalue' type-id='2bce8677' size-in-bits='64' id='573119b2'/>
    <reference-type-def kind='rvalue' type-id='2090bc67' size-in-bits='64' id='fc6460c0'/>
    <reference-type-def kind='rvalue' type-id='2810bf13' size-in-bits='64' id='c01ef04e'/>
    <reference-type-def kind='rvalue' type-id='d5529f6e' size-in-bits='64' id='e88d0b01'/>
    <reference-type-def kind='rvalue' type-id='6d1eec0b' size-in-bits='64' id='c34b73b0'/>
    <reference-type-def kind='lvalue' type-id='711dbda1' size-in-bits='64' id='108ea7ed'/>
    <pointer-type-def type-id='711dbda1' size-in-bits='64' id='048e9509'/>
    <reference-type-def kind='lvalue' type-id='3dfa3ea1' size-in-bits='64' id='3fa2837d'/>
    <pointer-type-def type-id='3dfa3ea1' size-in-bits='64' id='33a27099'/>
    <reference-type-def kind='lvalue' type-id='4b347984' size-in-bits='64' id='17a578de'/>
    <reference-type-def kind='rvalue' type-id='4b347984' size-in-bits='64' id='317d6e68'/>
    <pointer-type-def type-id='4b347984' size-in-bits='64' id='13a57292'/>
    <reference-type-def kind='rvalue' type-id='f2d07c87' size-in-bits='64' id='401fed5e'/>
    <reference-type-def kind='lvalue' type-id='0bfbb723' size-in-bits='64' id='6ead59d7'/>
    <reference-type-def kind='rvalue' type-id='0bfbb723' size-in-bits='64' id='2be49663'/>
    <pointer-type-def type-id='0bfbb723' size-in-bits='64' id='62ad46f3'/>
    <reference-type-def kind='lvalue' type-id='4a30a7f0' size-in-bits='64' id='0f5b8043'/>
    <pointer-type-def type-id='4a30a7f0' size-in-bits='64' id='1b5b9327'/>
    <reference-type-def kind='lvalue' type-id='6ae09cf0' size-in-bits='64' id='49827333'/>
    <reference-type-def kind='lvalue' type-id='279ca5fe' size-in-bits='64' id='77f81780'/>
    <reference-type-def kind='rvalue' type-id='279ca5fe' size-in-bits='64' id='818d3a52'/>
    <pointer-type-def type-id='279ca5fe' size-in-bits='64' id='83f82a64'/>
    <reference-type-def kind='lvalue' type-id='b49021de' size-in-bits='64' id='bafa5d50'/>
    <reference-type-def kind='rvalue' type-id='b49021de' size-in-bits='64' id='ce2120c2'/>
    <pointer-type-def type-id='b49021de' size-in-bits='64' id='c6fa7034'/>
    <reference-type-def kind='lvalue' type-id='3d7e5a22' size-in-bits='64' id='e05f8574'/>
    <reference-type-def kind='rvalue' type-id='3d7e5a22' size-in-bits='64' id='885ee016'/>
    <pointer-type-def type-id='3d7e5a22' size-in-bits='64' id='d45f7290'/>
    <reference-type-def kind='lvalue' type-id='e0b281f4' size-in-bits='64' id='e6c8ab5e'/>
    <reference-type-def kind='rvalue' type-id='e0b281f4' size-in-bits='64' id='c5e5ede8'/>
    <pointer-type-def type-id='e0b281f4' size-in-bits='64' id='e2c8a512'/>
    <reference-type-def kind='lvalue' type-id='a61af0c3' size-in-bits='64' id='4d307afe'/>
    <reference-type-def kind='lvalue' type-id='fdcd4c92' size-in-bits='64' id='c0df3794'/>
    <reference-type-def kind='rvalue' type-id='fdcd4c92' size-in-bits='64' id='5164ad36'/>
    <pointer-type-def type-id='fdcd4c92' size-in-bits='64' id='b4df24b0'/>
    <reference-type-def kind='lvalue' type-id='d3db4a17' size-in-bits='64' id='c9ec4f84'/>
    <reference-type-def kind='lvalue' type-id='78700f6f' size-in-bits='64' id='7541d4b3'/>
    <reference-type-def kind='rvalue' type-id='78700f6f' size-in-bits='64' id='2ba1a68f'/>
    <pointer-type-def type-id='78700f6f' size-in-bits='64' id='8141e797'/>
    <reference-type-def kind='rvalue' type-id='27d95d2c' size-in-bits='64' id='d1b137e3'/>
    <reference-type-def kind='lvalue' type-id='15074868' size-in-bits='64' id='8f8c8b55'/>
    <reference-type-def kind='lvalue' type-id='19cbbdd1' size-in-bits='64' id='b980a17d'/>
    <reference-type-def kind='rvalue' type-id='19cbbdd1' size-in-bits='64' id='607e0241'/>
    <pointer-type-def type-id='19cbbdd1' size-in-bits='64' id='ad808e99'/>
    <reference-type-def kind='lvalue' type-id='55a081cb' size-in-bits='64' id='06b286cf'/>
    <reference-type-def kind='rvalue' type-id='55a081cb' size-in-bits='64' id='740a60cb'/>
    <pointer-type-def type-id='55a081cb' size-in-bits='64' id='0ab28d1b'/>
    <reference-type-def kind='rvalue' type-id='cf4aa3e6' size-in-bits='64' id='ae745ead'/>
    <reference-type-def kind='lvalue' type-id='978dcc6f' size-in-bits='64' id='1fec9843'/>
    <reference-type-def kind='rvalue' type-id='978dcc6f' size-in-bits='64' id='a673e6ff'/>
    <pointer-type-def type-id='978dcc6f' size-in-bits='64' id='2becab27'/>
    <reference-type-def kind='rvalue' type-id='f5ec301e' size-in-bits='64' id='aa156559'/>
    <reference-type-def kind='lvalue' type-id='d8561b19' size-in-bits='64' id='93136a95'/>
    <reference-type-def kind='lvalue' type-id='83a8b947' size-in-bits='64' id='4888ee1b'/>
    <reference-type-def kind='rvalue' type-id='83a8b947' size-in-bits='64' id='6c8f0a07'/>
    <pointer-type-def type-id='83a8b947' size-in-bits='64' id='4488e7cf'/>
    <reference-type-def kind='rvalue' type-id='dfb47f8c' size-in-bits='64' id='3aa551d1'/>
    <reference-type-def kind='lvalue' type-id='266420fd' size-in-bits='64' id='e268b229'/>
    <reference-type-def kind='rvalue' type-id='266420fd' size-in-bits='64' id='79d04d9d'/>
    <pointer-type-def type-id='266420fd' size-in-bits='64' id='ee68c50d'/>
    <reference-type-def kind='rvalue' type-id='a128aa22' size-in-bits='64' id='72fc4bdf'/>
    <reference-type-def kind='lvalue' type-id='b3dc1d99' size-in-bits='64' id='7f657e95'/>
    <reference-type-def kind='rvalue' type-id='b3dc1d99' size-in-bits='64' id='3fc673c9'/>
    <pointer-type-def type-id='b3dc1d99' size-in-bits='64' id='836584e1'/>
    <reference-type-def kind='rvalue' type-id='52c2492e' size-in-bits='64' id='ce3e6cc3'/>
    <pointer-type-def type-id='8db1f951' size-in-bits='64' id='0c4cebd9'/>
    <reference-type-def kind='lvalue' type-id='04d1985b' size-in-bits='64' id='ab30ec9f'/>
    <reference-type-def kind='rvalue' type-id='04d1985b' size-in-bits='64' id='3704a73b'/>
    <pointer-type-def type-id='04d1985b' size-in-bits='64' id='af30f2eb'/>
    <reference-type-def kind='rvalue' type-id='45914776' size-in-bits='64' id='e020f91d'/>
    <reference-type-def kind='lvalue' type-id='9dbe232f' size-in-bits='64' id='477ffa03'/>
    <reference-type-def kind='rvalue' type-id='9dbe232f' size-in-bits='64' id='b376c83f'/>
    <pointer-type-def type-id='9dbe232f' size-in-bits='64' id='53800ce7'/>
    <reference-type-def kind='rvalue' type-id='4dd03ad2' size-in-bits='64' id='0f129699'/>
    <pointer-type-def type-id='c9d12d66' size-in-bits='64' id='b2eb2c3f'/>
    <pointer-type-def type-id='dddf6ca2' size-in-bits='64' id='d915a820'/>
    <pointer-type-def type-id='ce184e0c' size-in-bits='64' id='38f76a2a'/>
    <pointer-type-def type-id='8f92235e' size-in-bits='64' id='90421557'/>
    <reference-type-def kind='lvalue' type-id='9299d7f7' size-in-bits='64' id='992ebe03'/>
    <reference-type-def kind='lvalue' type-id='f0981eeb' size-in-bits='64' id='8c787cb7'/>
    <pointer-type-def type-id='f0981eeb' size-in-bits='64' id='807869d3'/>
    <reference-type-def kind='lvalue' type-id='7359adad' size-in-bits='64' id='212c31d1'/>
    <pointer-type-def type-id='7359adad' size-in-bits='64' id='1d2c2b85'/>
    <pointer-type-def type-id='ee076206' size-in-bits='64' id='953b12f8'/>
    <pointer-type-def type-id='c7de1382' size-in-bits='64' id='e570e18b'/>
    <pointer-type-def type-id='48b5725f' size-in-bits='64' id='eaa32e2f'/>
    <qualified-type-def type-id='671ca727' volatile='yes' id='59f217f1'/>
    <pointer-type-def type-id='59f217f1' size-in-bits='64' id='731b8dc1'/>
    <qualified-type-def type-id='86de309b' volatile='yes' id='676618b5'/>
    <pointer-type-def type-id='676618b5' size-in-bits='64' id='64b8c24d'/>
    <pointer-type-def type-id='c523b9f1' size-in-bits='64' id='323d93c1'/>
    <pointer-type-def type-id='323d93c1' size-in-bits='64' id='01efdaf1'/>
    <namespace-decl name='std'>
      <class-decl name='atomic&lt;unsigned int&gt;' size-in-bits='32' is-struct='yes' visibility='default' filepath='/usr/include/c++/4.9/atomic' line='617' column='1' id='86de309b'>
        <base-class access='public' layout-offset-in-bits='0' type-id='671ca727'/>
        <member-type access='public'>
          <typedef-decl name='__integral_type' type-id='f0981eeb' filepath='/usr/include/c++/4.9/atomic' line='619' column='1' id='34e6b0ab'/>
        </member-type>
        <member-function access='public'>
          <function-decl name='atomic' filepath='/usr/include/c++/4.9/atomic' line='622' column='1' visibility='default' binding='global' size-in-bits='64'>
            <parameter type-id='f9aaf66b' is-artificial='yes'/>
            <return type-id='48b5725f'/>
          </function-decl>
        </member-function>
        <member-function access='public' destructor='yes'>
          <function-decl name='~atomic' filepath='/usr/include/c++/4.9/atomic' line='623' column='1' visibility='default' binding='global' size-in-bits='64'>
            <parameter type-id='f9aaf66b' is-artificial='yes'/>
            <parameter type-id='95e97e5e' is-artificial='yes'/>
            <return type-id='48b5725f'/>
          </function-decl>
        </member-function>
        <member-function access='public'>
          <function-decl name='atomic' filepath='/usr/include/c++/4.9/atomic' line='624' column='1' visibility='default' binding='global' size-in-bits='64'>
            <parameter type-id='f9aaf66b' is-artificial='yes'/>
            <parameter type-id='834e8ef6'/>
            <return type-id='48b5725f'/>
          </function-decl>
        </member-function>
        <member-function access='public'>
          <function-decl name='atomic' filepath='/usr/include/c++/4.9/atomic' line='628' column='1' visibility='default' binding='global' size-in-bits='64'>
            <parameter type-id='f9aaf66b' is-artificial='yes'/>
            <parameter type-id='34e6b0ab'/>
            <return type-id='48b5725f'/>
          </function-decl>
        </member-function>
      </class-decl>
      <class-decl name='__alloctr_rebind&lt;std::allocator&lt;boost::shared_ptr&lt;boost::program_options::option_description&gt; &gt;, boost::shared_ptr&lt;boost::program_options::option_description&gt;, true&gt;' size-in-bits='8' is-struct='yes' visibility='default' filepath='/usr/include/c++/4.9/bits/alloc_traits.h' line='63' column='1' id='ecb9a57e'>
        <member-type access='public'>
          <typedef-decl name='__type' type-id='588d4dfa' filepath='/usr/include/c++/4.9/bits/alloc_traits.h' line='65' column='1' id='3f5ba0b5'/>
        </member-type>
      </class-decl>
      <class-decl name='__alloctr_rebind&lt;std::allocator&lt;boost::shared_ptr&lt;boost::program_options::options_description&gt; &gt;, boost::shared_ptr&lt;boost::program_options::options_description&gt;, true&gt;' size-in-bits='8' is-struct='yes' visibility='default' filepath='/usr/include/c++/4.9/bits/alloc_traits.h' line='63' column='1' id='d0ef8878'>
        <member-type access='public'>
          <typedef-decl name='__type' type-id='b402541a' filepath='/usr/include/c++/4.9/bits/alloc_traits.h' line='65' column='1' id='a4024dfb'/>
        </member-type>
      </class-decl>
      <class-decl name='__alloctr_rebind&lt;std::allocator&lt;mongo::logger::Appender&lt;mongo::logger::MessageEventEphemeral&gt;*&gt;, mongo::logger::Appender&lt;mongo::logger::MessageEventEphemeral&gt;*, true&gt;' size-in-bits='8' is-struct='yes' visibility='default' filepath='/usr/include/c++/4.9/bits/alloc_traits.h' line='63' column='1' id='971c8966'>
        <member-type access='public'>
          <typedef-decl name='__type' type-id='c9d5dcb2' filepath='/usr/include/c++/4.9/bits/alloc_traits.h' line='65' column='1' id='40bc2cab'/>
        </member-type>
      </class-decl>
      <class-decl name='__alloctr_rebind&lt;std::allocator&lt;mongo::optionenvironment::Constraint*&gt;, mongo::optionenvironment::Constraint*, true&gt;' size-in-bits='8' is-struct='yes' visibility='default' filepath='/usr/include/c++/4.9/bits/alloc_traits.h' line='63' column='1' id='c0e6bf7c'>
        <member-type access='public'>
          <typedef-decl name='__type' type-id='46693d38' filepath='/usr/include/c++/4.9/bits/alloc_traits.h' line='65' column='1' id='27cfdcf9'/>
        </member-type>
      </class-decl>
      <class-decl name='__alloctr_rebind&lt;std::allocator&lt;mongo::optionenvironment::KeyConstraint*&gt;, mongo::optionenvironment::KeyConstraint*, true&gt;' size-in-bits='8' is-struct='yes' visibility='default' filepath='/usr/include/c++/4.9/bits/alloc_traits.h' line='63' column='1' id='7a4e59dc'>
        <member-type access='public'>
          <typedef-decl name='__type' type-id='9324322a' filepath='/usr/include/c++/4.9/bits/alloc_traits.h' line='65' column='1' id='ad3890a1'/>
        </member-type>
      </class-decl>
      <class-decl name='__alloctr_rebind&lt;std::allocator&lt;std::basic_string&lt;char, std::char_traits&lt;char&gt;, std::allocator&lt;char&gt; &gt; &gt;, std::_Rb_tree_node&lt;std::basic_string&lt;char, std::char_traits&lt;char&gt;, std::allocator&lt;char&gt; &gt; &gt;, true&gt;' size-in-bits='8' is-struct='yes' visibility='default' filepath='/usr/include/c++/4.9/bits/alloc_traits.h' line='63' column='1' id='affc9ce2'>
        <member-type access='public'>
          <typedef-decl name='__type' type-id='4528b73c' filepath='/usr/include/c++/4.9/bits/alloc_traits.h' line='65' column='1' id='a902a5ab'/>
        </member-type>
      </class-decl>
      <class-decl name='__alloctr_rebind&lt;std::allocator&lt;std::basic_string&lt;char, std::char_traits&lt;char&gt;, std::allocator&lt;char&gt; &gt; &gt;, std::basic_string&lt;char, std::char_traits&lt;char&gt;, std::allocator&lt;char&gt; &gt;, true&gt;' size-in-bits='8' is-struct='yes' visibility='default' filepath='/usr/include/c++/4.9/bits/alloc_traits.h' line='63' column='1' id='962b26c8'>
        <member-type access='public'>
          <typedef-decl name='__type' type-id='e7ce66a6' filepath='/usr/include/c++/4.9/bits/alloc_traits.h' line='65' column='1' id='8ddd2b3b'/>
        </member-type>
      </class-decl>
      <class-decl name='__alloctr_rebind&lt;std::allocator&lt;std::pair&lt;const std::basic_string&lt;char, std::char_traits&lt;char&gt;, std::allocator&lt;char&gt; &gt;, mongo::ServerParameter*&gt; &gt;, std::_Rb_tree_node&lt;std::pair&lt;const std::basic_string&lt;char, std::char_traits&lt;char&gt;, std::allocator&lt;char&gt; &gt;, mongo::ServerParameter*&gt; &gt;, true&gt;' size-in-bits='8' is-struct='yes' visibility='default' filepath='/usr/include/c++/4.9/bits/alloc_traits.h' line='63' column='1' id='0ee30ca2'>
        <member-type access='public'>
          <typedef-decl name='__type' type-id='efa19b54' filepath='/usr/include/c++/4.9/bits/alloc_traits.h' line='65' column='1' id='dff2a13b'/>
        </member-type>
      </class-decl>
      <class-decl name='__alloctr_rebind&lt;std::allocator&lt;std::pair&lt;const std::basic_string&lt;char, std::char_traits&lt;char&gt;, std::allocator&lt;char&gt; &gt;, mongo::optionenvironment::Value&gt; &gt;, std::_Rb_tree_node&lt;std::pair&lt;const std::basic_string&lt;char, std::char_traits&lt;char&gt;, std::allocator&lt;char&gt; &gt;, mongo::optionenvironment::Value&gt; &gt;, true&gt;' size-in-bits='8' is-struct='yes' visibility='default' filepath='/usr/include/c++/4.9/bits/alloc_traits.h' line='63' column='1' id='c12aa80c'>
        <member-type access='public'>
          <typedef-decl name='__type' type-id='992661a0' filepath='/usr/include/c++/4.9/bits/alloc_traits.h' line='65' column='1' id='e6006fcd'/>
        </member-type>
      </class-decl>
      <class-decl name='__alloctr_rebind&lt;std::allocator&lt;std::pair&lt;const std::basic_string&lt;char, std::char_traits&lt;char&gt;, std::allocator&lt;char&gt; &gt;, std::basic_string&lt;char, std::char_traits&lt;char&gt;, std::allocator&lt;char&gt; &gt; &gt; &gt;, std::_Rb_tree_node&lt;std::pair&lt;const std::basic_string&lt;char, std::char_traits&lt;char&gt;, std::allocator&lt;char&gt; &gt;, std::basic_string&lt;char, std::char_traits&lt;char&gt;, std::allocator&lt;char&gt; &gt; &gt; &gt;, true&gt;' size-in-bits='8' is-struct='yes' visibility='default' filepath='/usr/include/c++/4.9/bits/alloc_traits.h' line='63' column='1' id='21278dde'>
        <member-type access='public'>
          <typedef-decl name='__type' type-id='f36b8890' filepath='/usr/include/c++/4.9/bits/alloc_traits.h' line='65' column='1' id='351923ef'/>
        </member-type>
      </class-decl>
      <class-decl name='__alloctr_rebind&lt;std::allocator&lt;std::shared_ptr&lt;mongo::optionenvironment::Constraint&gt; &gt;, std::shared_ptr&lt;mongo::optionenvironment::Constraint&gt;, true&gt;' size-in-bits='8' is-struct='yes' visibility='default' filepath='/usr/include/c++/4.9/bits/alloc_traits.h' line='63' column='1' id='2e705c58'>
        <member-type access='public'>
          <typedef-decl name='__type' type-id='bedafd7a' filepath='/usr/include/c++/4.9/bits/alloc_traits.h' line='65' column='1' id='a7f4d69b'/>
        </member-type>
      </class-decl>
      <class-decl name='allocator_traits&lt;std::allocator&lt;boost::shared_ptr&lt;boost::program_options::option_description&gt; &gt; &gt;' size-in-bits='8' is-struct='yes' visibility='default' filepath='/usr/include/c++/4.9/bits/alloc_traits.h' line='80' column='1' id='52cffb90'>
        <member-type access='public'>
          <typedef-decl name='value_type' type-id='d3aa47f3' filepath='/usr/include/c++/4.9/bits/alloc_traits.h' line='85' column='1' id='5257b067'/>
        </member-type>
        <member-type access='private'>
          <typedef-decl name='__pointer' type-id='2896d976' filepath='/usr/include/c++/4.9/bits/alloc_traits.h' line='95' column='1' id='5721d7d8'/>
        </member-type>
        <member-type access='public'>
          <typedef-decl name='pointer' type-id='5721d7d8' filepath='/usr/include/c++/4.9/bits/alloc_traits.h' line='102' column='1' id='0f886fda'/>
        </member-type>
        <member-type access='private'>
          <typedef-decl name='__const_void_pointer' type-id='bd991521' filepath='/usr/include/c++/4.9/bits/alloc_traits.h' line='126' column='1' id='1b1d089f'/>
        </member-type>
        <member-type access='public'>
          <typedef-decl name='const_void_pointer' type-id='1b1d089f' filepath='/usr/include/c++/4.9/bits/alloc_traits.h' line='135' column='1' id='db239a4d'/>
        </member-type>
        <member-type access='private'>
          <typedef-decl name='__size_type' type-id='8c5dbc0d' filepath='/usr/include/c++/4.9/bits/alloc_traits.h' line='148' column='1' id='fdcec86f'/>
        </member-type>
        <member-type access='public'>
          <typedef-decl name='size_type' type-id='fdcec86f' filepath='/usr/include/c++/4.9/bits/alloc_traits.h' line='157' column='1' id='d51b6d01'/>
        </member-type>
        <member-type access='public'>
          <typedef-decl name='rebind_alloc' type-id='3f5ba0b5' filepath='/usr/include/c++/4.9/bits/alloc_traits.h' line='197' column='1' id='8d07b12d'/>
        </member-type>
      </class-decl>
      <class-decl name='allocator_traits&lt;std::allocator&lt;boost::shared_ptr&lt;boost::program_options::options_description&gt; &gt; &gt;' size-in-bits='8' is-struct='yes' visibility='default' filepath='/usr/include/c++/4.9/bits/alloc_traits.h' line='80' column='1' id='513950cd'>
        <member-type access='public'>
          <typedef-decl name='value_type' type-id='d4bf7e88' filepath='/usr/include/c++/4.9/bits/alloc_traits.h' line='85' column='1' id='65aa88ac'/>
        </member-type>
        <member-type access='private'>
          <typedef-decl name='__pointer' type-id='9bc4a4c7' filepath='/usr/include/c++/4.9/bits/alloc_traits.h' line='95' column='1' id='48ffe991'/>
        </member-type>
        <member-type access='public'>
          <typedef-decl name='pointer' type-id='48ffe991' filepath='/usr/include/c++/4.9/bits/alloc_traits.h' line='102' column='1' id='d61de04b'/>
        </member-type>
        <member-type access='private'>
          <typedef-decl name='__const_void_pointer' type-id='40188396' filepath='/usr/include/c++/4.9/bits/alloc_traits.h' line='126' column='1' id='ca146e20'/>
        </member-type>
        <member-type access='public'>
          <typedef-decl name='const_void_pointer' type-id='ca146e20' filepath='/usr/include/c++/4.9/bits/alloc_traits.h' line='135' column='1' id='bae05d6e'/>
        </member-type>
        <member-type access='private'>
          <typedef-decl name='__size_type' type-id='3c1d1608' filepath='/usr/include/c++/4.9/bits/alloc_traits.h' line='148' column='1' id='b8ee65da'/>
        </member-type>
        <member-type access='public'>
          <typedef-decl name='size_type' type-id='b8ee65da' filepath='/usr/include/c++/4.9/bits/alloc_traits.h' line='157' column='1' id='f81069ec'/>
        </member-type>
        <member-type access='public'>
          <typedef-decl name='rebind_alloc' type-id='a4024dfb' filepath='/usr/include/c++/4.9/bits/alloc_traits.h' line='197' column='1' id='fb5e492e'/>
        </member-type>
      </class-decl>
      <class-decl name='allocator_traits&lt;std::allocator&lt;mongo::logger::Appender&lt;mongo::logger::MessageEventEphemeral&gt;*&gt; &gt;' size-in-bits='8' is-struct='yes' visibility='default' filepath='/usr/include/c++/4.9/bits/alloc_traits.h' line='80' column='1' id='d92bf3ae'>
        <member-type access='public'>
          <typedef-decl name='value_type' type-id='58f1dee5' filepath='/usr/include/c++/4.9/bits/alloc_traits.h' line='85' column='1' id='77cda391'/>
        </member-type>
        <member-type access='private'>
          <typedef-decl name='__pointer' type-id='013fd828' filepath='/usr/include/c++/4.9/bits/alloc_traits.h' line='95' column='1' id='29d5befa'/>
        </member-type>
        <member-type access='public'>
          <typedef-decl name='pointer' type-id='29d5befa' filepath='/usr/include/c++/4.9/bits/alloc_traits.h' line='102' column='1' id='7c9348f4'/>
        </member-type>
        <member-type access='private'>
          <typedef-decl name='__const_void_pointer' type-id='6001c4c1' filepath='/usr/include/c++/4.9/bits/alloc_traits.h' line='126' column='1' id='3bce2f6d'/>
        </member-type>
        <member-type access='public'>
          <typedef-decl name='const_void_pointer' type-id='3bce2f6d' filepath='/usr/include/c++/4.9/bits/alloc_traits.h' line='135' column='1' id='abd5fff3'/>
        </member-type>
        <member-type access='private'>
          <typedef-decl name='__size_type' type-id='e78fcd9f' filepath='/usr/include/c++/4.9/bits/alloc_traits.h' line='148' column='1' id='d41766e1'/>
        </member-type>
        <member-type access='public'>
          <typedef-decl name='size_type' type-id='d41766e1' filepath='/usr/include/c++/4.9/bits/alloc_traits.h' line='157' column='1' id='682d0a8b'/>
        </member-type>
        <member-type access='public'>
          <typedef-decl name='rebind_alloc' type-id='40bc2cab' filepath='/usr/include/c++/4.9/bits/alloc_traits.h' line='197' column='1' id='6315e027'/>
        </member-type>
      </class-decl>
      <class-decl name='allocator_traits&lt;std::allocator&lt;mongo::optionenvironment::Constraint*&gt; &gt;' size-in-bits='8' is-struct='yes' visibility='default' filepath='/usr/include/c++/4.9/bits/alloc_traits.h' line='80' column='1' id='8272fdc0'>
        <member-type access='public'>
          <typedef-decl name='value_type' type-id='6bbf1f49' filepath='/usr/include/c++/4.9/bits/alloc_traits.h' line='85' column='1' id='276b6fe1'/>
        </member-type>
        <member-type access='private'>
          <typedef-decl name='__pointer' type-id='5057067c' filepath='/usr/include/c++/4.9/bits/alloc_traits.h' line='95' column='1' id='0af42d8a'/>
        </member-type>
        <member-type access='public'>
          <typedef-decl name='pointer' type-id='0af42d8a' filepath='/usr/include/c++/4.9/bits/alloc_traits.h' line='102' column='1' id='5351a9c4'/>
        </member-type>
        <member-type access='private'>
          <typedef-decl name='__const_void_pointer' type-id='90e3736d' filepath='/usr/include/c++/4.9/bits/alloc_traits.h' line='126' column='1' id='cf7bd4fd'/>
        </member-type>
        <member-type access='public'>
          <typedef-decl name='const_void_pointer' type-id='cf7bd4fd' filepath='/usr/include/c++/4.9/bits/alloc_traits.h' line='135' column='1' id='c459ad43'/>
        </member-type>
        <member-type access='private'>
          <typedef-decl name='__size_type' type-id='470c1603' filepath='/usr/include/c++/4.9/bits/alloc_traits.h' line='148' column='1' id='f30f02d1'/>
        </member-type>
        <member-type access='public'>
          <typedef-decl name='size_type' type-id='f30f02d1' filepath='/usr/include/c++/4.9/bits/alloc_traits.h' line='157' column='1' id='feb17efb'/>
        </member-type>
        <member-type access='public'>
          <typedef-decl name='rebind_alloc' type-id='27cfdcf9' filepath='/usr/include/c++/4.9/bits/alloc_traits.h' line='197' column='1' id='e3e5e9b7'/>
        </member-type>
      </class-decl>
      <class-decl name='allocator_traits&lt;std::allocator&lt;mongo::optionenvironment::KeyConstraint*&gt; &gt;' size-in-bits='8' is-struct='yes' visibility='default' filepath='/usr/include/c++/4.9/bits/alloc_traits.h' line='80' column='1' id='915e8131'>
        <member-type access='public'>
          <typedef-decl name='value_type' type-id='4594bede' filepath='/usr/include/c++/4.9/bits/alloc_traits.h' line='85' column='1' id='bf40e2e6'/>
        </member-type>
        <member-type access='private'>
          <typedef-decl name='__pointer' type-id='426d9685' filepath='/usr/include/c++/4.9/bits/alloc_traits.h' line='95' column='1' id='f6e3ffab'/>
        </member-type>
        <member-type access='public'>
          <typedef-decl name='pointer' type-id='f6e3ffab' filepath='/usr/include/c++/4.9/bits/alloc_traits.h' line='102' column='1' id='c3c0e91d'/>
        </member-type>
        <member-type access='private'>
          <typedef-decl name='__const_void_pointer' type-id='e5414fd0' filepath='/usr/include/c++/4.9/bits/alloc_traits.h' line='126' column='1' id='a303db4e'/>
        </member-type>
        <member-type access='public'>
          <typedef-decl name='const_void_pointer' type-id='a303db4e' filepath='/usr/include/c++/4.9/bits/alloc_traits.h' line='135' column='1' id='005ffb34'/>
        </member-type>
        <member-type access='private'>
          <typedef-decl name='__size_type' type-id='acf223fe' filepath='/usr/include/c++/4.9/bits/alloc_traits.h' line='148' column='1' id='7382850c'/>
        </member-type>
        <member-type access='public'>
          <typedef-decl name='size_type' type-id='7382850c' filepath='/usr/include/c++/4.9/bits/alloc_traits.h' line='157' column='1' id='e72b9766'/>
        </member-type>
        <member-type access='public'>
          <typedef-decl name='rebind_alloc' type-id='ad3890a1' filepath='/usr/include/c++/4.9/bits/alloc_traits.h' line='197' column='1' id='66724af8'/>
        </member-type>
      </class-decl>
      <class-decl name='allocator_traits&lt;std::allocator&lt;std::_Rb_tree_node&lt;std::pair&lt;const std::basic_string&lt;char, std::char_traits&lt;char&gt;, std::allocator&lt;char&gt; &gt;, std::basic_string&lt;char, std::char_traits&lt;char&gt;, std::allocator&lt;char&gt; &gt; &gt; &gt; &gt; &gt;' size-in-bits='8' is-struct='yes' visibility='default' filepath='/usr/include/c++/4.9/bits/alloc_traits.h' line='80' column='1' id='56f932a7'>
        <member-type access='public'>
          <typedef-decl name='value_type' type-id='467c50f0' filepath='/usr/include/c++/4.9/bits/alloc_traits.h' line='85' column='1' id='89e87c5c'/>
        </member-type>
        <member-type access='private'>
          <typedef-decl name='__pointer' type-id='6bc6f8bf' filepath='/usr/include/c++/4.9/bits/alloc_traits.h' line='95' column='1' id='b413ba81'/>
        </member-type>
        <member-type access='public'>
          <typedef-decl name='pointer' type-id='b413ba81' filepath='/usr/include/c++/4.9/bits/alloc_traits.h' line='102' column='1' id='1d53623b'/>
        </member-type>
        <member-type access='private'>
          <typedef-decl name='__const_void_pointer' type-id='c03b0cfe' filepath='/usr/include/c++/4.9/bits/alloc_traits.h' line='126' column='1' id='d4e6af50'/>
        </member-type>
        <member-type access='public'>
          <typedef-decl name='const_void_pointer' type-id='d4e6af50' filepath='/usr/include/c++/4.9/bits/alloc_traits.h' line='135' column='1' id='213a295e'/>
        </member-type>
        <member-type access='private'>
          <typedef-decl name='__size_type' type-id='1852b670' filepath='/usr/include/c++/4.9/bits/alloc_traits.h' line='148' column='1' id='3bdb57ea'/>
        </member-type>
        <member-type access='public'>
          <typedef-decl name='size_type' type-id='3bdb57ea' filepath='/usr/include/c++/4.9/bits/alloc_traits.h' line='157' column='1' id='66883d3c'/>
        </member-type>
        <member-function access='public' static='yes'>
          <function-decl name='destroy&lt;std::pair&lt;const std::basic_string&lt;char&gt;, std::basic_string&lt;char&gt; &gt; &gt;' mangled-name='_ZNSt16allocator_traitsISaISt13_Rb_tree_nodeISt4pairIKSsSsEEEE7destroyIS3_EEvRS5_PT_' filepath='/usr/include/c++/4.9/bits/alloc_traits.h' line='410' column='1' visibility='default' binding='global' size-in-bits='64' elf-symbol-id='_ZNSt16allocator_traitsISaISt13_Rb_tree_nodeISt4pairIKSsSsEEEE7destroyIS3_EEvRS5_PT_'>
            <parameter type-id='5c9b362b'/>
            <parameter type-id='7ee4cd6d'/>
            <return type-id='48b5725f'/>
          </function-decl>
        </member-function>
        <member-function access='private' static='yes'>
          <function-decl name='_S_destroy&lt;std::pair&lt;const std::basic_string&lt;char&gt;, std::basic_string&lt;char&gt; &gt; &gt;' mangled-name='_ZNSt16allocator_traitsISaISt13_Rb_tree_nodeISt4pairIKSsSsEEEE10_S_destroyIS3_EENSt9enable_ifIXsrSt6__and_IINS6_16__destroy_helperIT_E4typeEEE5valueEvE4typeERS5_PSB_' filepath='/usr/include/c++/4.9/bits/alloc_traits.h' line='281' column='1' visibility='default' binding='global' size-in-bits='64' elf-symbol-id='_ZNSt16allocator_traitsISaISt13_Rb_tree_nodeISt4pairIKSsSsEEEE10_S_destroyIS3_EENSt9enable_ifIXsrSt6__and_IINS6_16__destroy_helperIT_E4typeEEE5valueEvE4typeERS5_PSB_'>
            <parameter type-id='5c9b362b'/>
            <parameter type-id='7ee4cd6d'/>
            <return type-id='48b5725f'/>
          </function-decl>
        </member-function>
        <member-function access='public' static='yes'>
          <function-decl name='deallocate' mangled-name='_ZNSt16allocator_traitsISaISt13_Rb_tree_nodeISt4pairIKSsSsEEEE10deallocateERS5_PS4_m' filepath='/usr/include/c++/4.9/bits/alloc_traits.h' line='382' column='1' visibility='default' binding='global' size-in-bits='64' elf-symbol-id='_ZNSt16allocator_traitsISaISt13_Rb_tree_nodeISt4pairIKSsSsEEEE10deallocateERS5_PS4_m'>
            <parameter type-id='5c9b362b'/>
            <parameter type-id='1d53623b'/>
            <parameter type-id='66883d3c'/>
            <return type-id='48b5725f'/>
          </function-decl>
        </member-function>
      </class-decl>
      <class-decl name='allocator_traits&lt;std::allocator&lt;std::basic_string&lt;char, std::char_traits&lt;char&gt;, std::allocator&lt;char&gt; &gt; &gt; &gt;' size-in-bits='8' is-struct='yes' visibility='default' filepath='/usr/include/c++/4.9/bits/alloc_traits.h' line='80' column='1' id='13f04b2d'>
        <member-type access='public'>
          <typedef-decl name='value_type' type-id='2b385664' filepath='/usr/include/c++/4.9/bits/alloc_traits.h' line='85' column='1' id='fb0fe154'/>
        </member-type>
        <member-type access='private'>
          <typedef-decl name='__pointer' type-id='64fb7c33' filepath='/usr/include/c++/4.9/bits/alloc_traits.h' line='95' column='1' id='4e575289'/>
        </member-type>
        <member-type access='public'>
          <typedef-decl name='pointer' type-id='4e575289' filepath='/usr/include/c++/4.9/bits/alloc_traits.h' line='102' column='1' id='cdd39223'/>
        </member-type>
        <member-type access='private'>
          <typedef-decl name='__const_void_pointer' type-id='ead93da2' filepath='/usr/include/c++/4.9/bits/alloc_traits.h' line='126' column='1' id='d302cce8'/>
        </member-type>
        <member-type access='public'>
          <typedef-decl name='const_void_pointer' type-id='d302cce8' filepath='/usr/include/c++/4.9/bits/alloc_traits.h' line='135' column='1' id='b47eb8d6'/>
        </member-type>
        <member-type access='private'>
          <typedef-decl name='__size_type' type-id='8a147cc4' filepath='/usr/include/c++/4.9/bits/alloc_traits.h' line='148' column='1' id='205f0ec2'/>
        </member-type>
        <member-type access='public'>
          <typedef-decl name='size_type' type-id='205f0ec2' filepath='/usr/include/c++/4.9/bits/alloc_traits.h' line='157' column='1' id='fb5a82d4'/>
        </member-type>
        <member-type access='public'>
          <typedef-decl name='rebind_alloc' type-id='8ddd2b3b' filepath='/usr/include/c++/4.9/bits/alloc_traits.h' line='197' column='1' id='c6a6ace6'/>
        </member-type>
        <member-function access='public' static='yes'>
          <function-decl name='construct&lt;std::basic_string&lt;char&gt;, std::basic_string&lt;char, std::char_traits&lt;char&gt;, std::allocator&lt;char&gt; &gt; &gt;' mangled-name='_ZNSt16allocator_traitsISaISsEE9constructISsISsEEEDTcl12_S_constructfp_fp0_spcl7forwardIT0_Efp1_EEERS0_PT_DpOS3_' filepath='/usr/include/c++/4.9/bits/alloc_traits.h' line='397' column='1' visibility='default' binding='global' size-in-bits='64' elf-symbol-id='_ZNSt16allocator_traitsISaISsEE9constructISsISsEEEDTcl12_S_constructfp_fp0_spcl7forwardIT0_Efp1_EEERS0_PT_DpOS3_'>
            <parameter type-id='94107e09'/>
            <parameter type-id='16934a6f'/>
            <parameter type-id='72e7e727'/>
            <return type-id='48b5725f'/>
          </function-decl>
        </member-function>
        <member-function access='public' static='yes'>
          <function-decl name='deallocate' mangled-name='_ZNSt16allocator_traitsISaISsEE10deallocateERS0_PSsm' filepath='/usr/include/c++/4.9/bits/alloc_traits.h' line='382' column='1' visibility='default' binding='global' size-in-bits='64' elf-symbol-id='_ZNSt16allocator_traitsISaISsEE10deallocateERS0_PSsm'>
            <parameter type-id='94107e09'/>
            <parameter type-id='cdd39223'/>
            <parameter type-id='fb5a82d4'/>
            <return type-id='48b5725f'/>
          </function-decl>
        </member-function>
        <member-function access='private' static='yes'>
          <function-decl name='_S_construct&lt;std::basic_string&lt;char&gt;, std::basic_string&lt;char, std::char_traits&lt;char&gt;, std::allocator&lt;char&gt; &gt; &gt;' mangled-name='_ZNSt16allocator_traitsISaISsEE12_S_constructISsISsEEENSt9enable_ifIXsrSt6__and_IINS1_18__construct_helperIT_IDpT0_EE4typeEEE5valueEvE4typeERS0_PS6_DpOS7_' filepath='/usr/include/c++/4.9/bits/alloc_traits.h' line='252' column='1' visibility='default' binding='global' size-in-bits='64' elf-symbol-id='_ZNSt16allocator_traitsISaISsEE12_S_constructISsISsEEENSt9enable_ifIXsrSt6__and_IINS1_18__construct_helperIT_IDpT0_EE4typeEEE5valueEvE4typeERS0_PS6_DpOS7_'>
            <parameter type-id='94107e09'/>
            <parameter type-id='16934a6f'/>
            <parameter type-id='72e7e727'/>
            <return type-id='48b5725f'/>
          </function-decl>
        </member-function>
        <member-function access='public' static='yes'>
          <function-decl name='destroy&lt;std::basic_string&lt;char&gt; &gt;' mangled-name='_ZNSt16allocator_traitsISaISsEE7destroyISsEEvRS0_PT_' filepath='/usr/include/c++/4.9/bits/alloc_traits.h' line='410' column='1' visibility='default' binding='global' size-in-bits='64' elf-symbol-id='_ZNSt16allocator_traitsISaISsEE7destroyISsEEvRS0_PT_'>
            <parameter type-id='94107e09'/>
            <parameter type-id='16934a6f'/>
            <return type-id='48b5725f'/>
          </function-decl>
        </member-function>
        <member-function access='public' static='yes'>
          <function-decl name='allocate' mangled-name='_ZNSt16allocator_traitsISaISsEE8allocateERS0_m' filepath='/usr/include/c++/4.9/bits/alloc_traits.h' line='356' column='1' visibility='default' binding='global' size-in-bits='64' elf-symbol-id='_ZNSt16allocator_traitsISaISsEE8allocateERS0_m'>
            <parameter type-id='94107e09'/>
            <parameter type-id='fb5a82d4'/>
            <return type-id='cdd39223'/>
          </function-decl>
        </member-function>
        <member-function access='private' static='yes'>
          <function-decl name='_S_destroy&lt;std::basic_string&lt;char&gt; &gt;' mangled-name='_ZNSt16allocator_traitsISaISsEE10_S_destroyISsEENSt9enable_ifIXsrSt6__and_IINS1_16__destroy_helperIT_E4typeEEE5valueEvE4typeERS0_PS6_' filepath='/usr/include/c++/4.9/bits/alloc_traits.h' line='281' column='1' visibility='default' binding='global' size-in-bits='64' elf-symbol-id='_ZNSt16allocator_traitsISaISsEE10_S_destroyISsEENSt9enable_ifIXsrSt6__and_IINS1_16__destroy_helperIT_E4typeEEE5valueEvE4typeERS0_PS6_'>
            <parameter type-id='94107e09'/>
            <parameter type-id='16934a6f'/>
            <return type-id='48b5725f'/>
          </function-decl>
        </member-function>
        <member-function access='public' static='yes'>
          <function-decl name='max_size' mangled-name='_ZNSt16allocator_traitsISaISsEE8max_sizeERKS0_' filepath='/usr/include/c++/4.9/bits/alloc_traits.h' line='421' column='1' visibility='default' binding='global' size-in-bits='64' elf-symbol-id='_ZNSt16allocator_traitsISaISsEE8max_sizeERKS0_'>
            <parameter type-id='fbb475c8'/>
            <return type-id='fb5a82d4'/>
          </function-decl>
        </member-function>
        <member-function access='private' static='yes'>
          <function-decl name='_S_max_size&lt;const std::allocator&lt;std::basic_string&lt;char&gt; &gt;, void&gt;' mangled-name='_ZNSt16allocator_traitsISaISsEE11_S_max_sizeIKS0_vEEmRT_i' filepath='/usr/include/c++/4.9/bits/alloc_traits.h' line='308' column='1' visibility='default' binding='global' size-in-bits='64' elf-symbol-id='_ZNSt16allocator_traitsISaISsEE11_S_max_sizeIKS0_vEEmRT_i'>
            <parameter type-id='fbb475c8'/>
            <parameter type-id='95e97e5e'/>
            <return type-id='fb5a82d4'/>
          </function-decl>
        </member-function>
      </class-decl>
      <class-decl name='allocator_traits&lt;std::allocator&lt;std::pair&lt;const std::basic_string&lt;char, std::char_traits&lt;char&gt;, std::allocator&lt;char&gt; &gt;, mongo::ServerParameter*&gt; &gt; &gt;' size-in-bits='8' is-struct='yes' visibility='default' filepath='/usr/include/c++/4.9/bits/alloc_traits.h' line='80' column='1' id='95d81631'>
        <member-type access='public'>
          <typedef-decl name='value_type' type-id='475c77ac' filepath='/usr/include/c++/4.9/bits/alloc_traits.h' line='85' column='1' id='2a869ba4'/>
        </member-type>
        <member-type access='private'>
          <typedef-decl name='__pointer' type-id='184f4d4b' filepath='/usr/include/c++/4.9/bits/alloc_traits.h' line='95' column='1' id='bcb75099'/>
        </member-type>
        <member-type access='public'>
          <typedef-decl name='pointer' type-id='bcb75099' filepath='/usr/include/c++/4.9/bits/alloc_traits.h' line='102' column='1' id='ba132373'/>
        </member-type>
        <member-type access='private'>
          <typedef-decl name='__const_void_pointer' type-id='190acf4a' filepath='/usr/include/c++/4.9/bits/alloc_traits.h' line='126' column='1' id='7b5baa38'/>
        </member-type>
        <member-type access='public'>
          <typedef-decl name='const_void_pointer' type-id='7b5baa38' filepath='/usr/include/c++/4.9/bits/alloc_traits.h' line='135' column='1' id='2861a026'/>
        </member-type>
        <member-type access='private'>
          <typedef-decl name='__size_type' type-id='86481eec' filepath='/usr/include/c++/4.9/bits/alloc_traits.h' line='148' column='1' id='81a4bcb2'/>
        </member-type>
        <member-type access='public'>
          <typedef-decl name='size_type' type-id='81a4bcb2' filepath='/usr/include/c++/4.9/bits/alloc_traits.h' line='157' column='1' id='620ff104'/>
        </member-type>
        <member-type access='public'>
          <typedef-decl name='rebind_alloc' type-id='dff2a13b' filepath='/usr/include/c++/4.9/bits/alloc_traits.h' line='197' column='1' id='56cf2676'/>
        </member-type>
      </class-decl>
      <class-decl name='allocator_traits&lt;std::allocator&lt;std::pair&lt;const std::basic_string&lt;char, std::char_traits&lt;char&gt;, std::allocator&lt;char&gt; &gt;, mongo::optionenvironment::Value&gt; &gt; &gt;' size-in-bits='8' is-struct='yes' visibility='default' filepath='/usr/include/c++/4.9/bits/alloc_traits.h' line='80' column='1' id='2d9594d4'>
        <member-type access='public'>
          <typedef-decl name='value_type' type-id='d9c70fb5' filepath='/usr/include/c++/4.9/bits/alloc_traits.h' line='85' column='1' id='c2255f1d'/>
        </member-type>
        <member-type access='private'>
          <typedef-decl name='__pointer' type-id='68e52c38' filepath='/usr/include/c++/4.9/bits/alloc_traits.h' line='95' column='1' id='3054c966'/>
        </member-type>
        <member-type access='public'>
          <typedef-decl name='pointer' type-id='3054c966' filepath='/usr/include/c++/4.9/bits/alloc_traits.h' line='102' column='1' id='e207f370'/>
        </member-type>
        <member-type access='private'>
          <typedef-decl name='__const_void_pointer' type-id='9c62a023' filepath='/usr/include/c++/4.9/bits/alloc_traits.h' line='126' column='1' id='071e6781'/>
        </member-type>
        <member-type access='public'>
          <typedef-decl name='const_void_pointer' type-id='071e6781' filepath='/usr/include/c++/4.9/bits/alloc_traits.h' line='135' column='1' id='120ea4a7'/>
        </member-type>
        <member-type access='private'>
          <typedef-decl name='__size_type' type-id='97b65a8f' filepath='/usr/include/c++/4.9/bits/alloc_traits.h' line='148' column='1' id='302dfc5d'/>
        </member-type>
        <member-type access='public'>
          <typedef-decl name='size_type' type-id='302dfc5d' filepath='/usr/include/c++/4.9/bits/alloc_traits.h' line='157' column='1' id='754addd7'/>
        </member-type>
        <member-type access='public'>
          <typedef-decl name='rebind_alloc' type-id='e6006fcd' filepath='/usr/include/c++/4.9/bits/alloc_traits.h' line='197' column='1' id='d966a143'/>
        </member-type>
      </class-decl>
      <class-decl name='allocator_traits&lt;std::allocator&lt;std::pair&lt;const std::basic_string&lt;char, std::char_traits&lt;char&gt;, std::allocator&lt;char&gt; &gt;, std::basic_string&lt;char, std::char_traits&lt;char&gt;, std::allocator&lt;char&gt; &gt; &gt; &gt; &gt;' size-in-bits='8' is-struct='yes' visibility='default' filepath='/usr/include/c++/4.9/bits/alloc_traits.h' line='80' column='1' id='cfaa0303'>
        <member-type access='public'>
          <typedef-decl name='value_type' type-id='0ab55a9e' filepath='/usr/include/c++/4.9/bits/alloc_traits.h' line='85' column='1' id='88fd1662'/>
        </member-type>
        <member-type access='private'>
          <typedef-decl name='__pointer' type-id='1e61d645' filepath='/usr/include/c++/4.9/bits/alloc_traits.h' line='95' column='1' id='43f93d07'/>
        </member-type>
        <member-type access='public'>
          <typedef-decl name='pointer' type-id='43f93d07' filepath='/usr/include/c++/4.9/bits/alloc_traits.h' line='102' column='1' id='8d05e7c9'/>
        </member-type>
        <member-type access='private'>
          <typedef-decl name='__const_void_pointer' type-id='d11a814c' filepath='/usr/include/c++/4.9/bits/alloc_traits.h' line='126' column='1' id='7c60c282'/>
        </member-type>
        <member-type access='public'>
          <typedef-decl name='const_void_pointer' type-id='7c60c282' filepath='/usr/include/c++/4.9/bits/alloc_traits.h' line='135' column='1' id='f3565128'/>
        </member-type>
        <member-type access='private'>
          <typedef-decl name='__size_type' type-id='b94f72be' filepath='/usr/include/c++/4.9/bits/alloc_traits.h' line='148' column='1' id='af3b1848'/>
        </member-type>
        <member-type access='public'>
          <typedef-decl name='size_type' type-id='af3b1848' filepath='/usr/include/c++/4.9/bits/alloc_traits.h' line='157' column='1' id='51dc0402'/>
        </member-type>
        <member-type access='public'>
          <typedef-decl name='rebind_alloc' type-id='351923ef' filepath='/usr/include/c++/4.9/bits/alloc_traits.h' line='197' column='1' id='de973f64'/>
        </member-type>
      </class-decl>
      <class-decl name='allocator_traits&lt;std::allocator&lt;std::shared_ptr&lt;mongo::optionenvironment::Constraint&gt; &gt; &gt;' size-in-bits='8' is-struct='yes' visibility='default' filepath='/usr/include/c++/4.9/bits/alloc_traits.h' line='80' column='1' id='462ad4d5'>
        <member-type access='public'>
          <typedef-decl name='value_type' type-id='69910cf2' filepath='/usr/include/c++/4.9/bits/alloc_traits.h' line='85' column='1' id='c2000c8a'/>
        </member-type>
        <member-type access='private'>
          <typedef-decl name='__pointer' type-id='75cf2759' filepath='/usr/include/c++/4.9/bits/alloc_traits.h' line='95' column='1' id='f15881bf'/>
        </member-type>
        <member-type access='public'>
          <typedef-decl name='pointer' type-id='f15881bf' filepath='/usr/include/c++/4.9/bits/alloc_traits.h' line='102' column='1' id='5bda0d61'/>
        </member-type>
        <member-type access='private'>
          <typedef-decl name='__const_void_pointer' type-id='a04bd160' filepath='/usr/include/c++/4.9/bits/alloc_traits.h' line='126' column='1' id='769f582a'/>
        </member-type>
        <member-type access='public'>
          <typedef-decl name='const_void_pointer' type-id='769f582a' filepath='/usr/include/c++/4.9/bits/alloc_traits.h' line='135' column='1' id='dda422b0'/>
        </member-type>
        <member-type access='private'>
          <typedef-decl name='__size_type' type-id='9f8edb72' filepath='/usr/include/c++/4.9/bits/alloc_traits.h' line='148' column='1' id='4e4de770'/>
        </member-type>
        <member-type access='public'>
          <typedef-decl name='size_type' type-id='4e4de770' filepath='/usr/include/c++/4.9/bits/alloc_traits.h' line='157' column='1' id='ddd2bd8a'/>
        </member-type>
        <member-type access='public'>
          <typedef-decl name='rebind_alloc' type-id='a7f4d69b' filepath='/usr/include/c++/4.9/bits/alloc_traits.h' line='197' column='1' id='bdb952fc'/>
        </member-type>
        <member-function access='public' static='yes'>
          <function-decl name='deallocate' mangled-name='_ZNSt16allocator_traitsISaISt10shared_ptrIN5mongo17optionenvironment10ConstraintEEEE10deallocateERS5_PS4_m' filepath='/usr/include/c++/4.9/bits/alloc_traits.h' line='382' column='1' visibility='default' binding='global' size-in-bits='64' elf-symbol-id='_ZNSt16allocator_traitsISaISt10shared_ptrIN5mongo17optionenvironment10ConstraintEEEE10deallocateERS5_PS4_m'>
            <parameter type-id='21934f9d'/>
            <parameter type-id='5bda0d61'/>
            <parameter type-id='ddd2bd8a'/>
            <return type-id='48b5725f'/>
          </function-decl>
        </member-function>
      </class-decl>
      <class-decl name='allocator&lt;bool&gt;' size-in-bits='8' visibility='default' filepath='/usr/include/c++/4.9/bits/allocator.h' line='92' column='1' id='18a15b7d'>
        <base-class access='public' layout-offset-in-bits='0' type-id='9b24038f'/>
        <member-type access='public'>
          <class-decl name='rebind&lt;long unsigned int&gt;' size-in-bits='8' is-struct='yes' visibility='default' filepath='/usr/include/c++/4.9/bits/allocator.h' line='104' column='1' id='5f66854f'>
            <member-type access='public'>
              <typedef-decl name='other' type-id='a67ba367' filepath='/usr/include/c++/4.9/bits/allocator.h' line='105' column='1' id='77119f8e'/>
            </member-type>
          </class-decl>
        </member-type>
        <member-function access='public'>
          <function-decl name='allocator' filepath='/usr/include/c++/4.9/bits/allocator.h' line='113' column='1' visibility='default' binding='global' size-in-bits='64'>
            <parameter type-id='eb333b9d' is-artificial='yes'/>
            <return type-id='48b5725f'/>
          </function-decl>
        </member-function>
        <member-function access='public'>
          <function-decl name='allocator' filepath='/usr/include/c++/4.9/bits/allocator.h' line='115' column='1' visibility='default' binding='global' size-in-bits='64'>
            <parameter type-id='eb333b9d' is-artificial='yes'/>
            <parameter type-id='a2e913e2'/>
            <return type-id='48b5725f'/>
          </function-decl>
        </member-function>
        <member-function access='public' destructor='yes'>
          <function-decl name='~allocator' filepath='/usr/include/c++/4.9/bits/allocator.h' line='121' column='1' visibility='default' binding='global' size-in-bits='64'>
            <parameter type-id='eb333b9d' is-artificial='yes'/>
            <parameter type-id='95e97e5e' is-artificial='yes'/>
            <return type-id='48b5725f'/>
          </function-decl>
        </member-function>
      </class-decl>
      <class-decl name='allocator&lt;boost::shared_ptr&lt;boost::program_options::option_description&gt; &gt;' size-in-bits='8' visibility='default' filepath='/usr/include/c++/4.9/bits/allocator.h' line='92' column='1' id='79b343c0'>
        <base-class access='public' layout-offset-in-bits='0' type-id='0f8a821a'/>
        <member-type access='public'>
          <typedef-decl name='size_type' type-id='7a51dc7f' filepath='/usr/include/c++/4.9/bits/allocator.h' line='95' column='1' id='8c5dbc0d'/>
        </member-type>
        <member-type access='public'>
          <typedef-decl name='pointer' type-id='5b1b61b4' filepath='/usr/include/c++/4.9/bits/allocator.h' line='97' column='1' id='2896d976'/>
        </member-type>
        <member-type access='public'>
          <typedef-decl name='value_type' type-id='9dfdad4e' filepath='/usr/include/c++/4.9/bits/allocator.h' line='101' column='1' id='d3aa47f3'/>
        </member-type>
        <member-type access='public'>
          <class-decl name='rebind&lt;boost::shared_ptr&lt;boost::program_options::option_description&gt; &gt;' size-in-bits='8' is-struct='yes' visibility='default' filepath='/usr/include/c++/4.9/bits/allocator.h' line='104' column='1' id='25f56455'>
            <member-type access='public'>
              <typedef-decl name='other' type-id='79b343c0' filepath='/usr/include/c++/4.9/bits/allocator.h' line='105' column='1' id='588d4dfa'/>
            </member-type>
          </class-decl>
        </member-type>
        <member-function access='public'>
          <function-decl name='allocator' filepath='/usr/include/c++/4.9/bits/allocator.h' line='113' column='1' visibility='default' binding='global' size-in-bits='64'>
            <parameter type-id='933cb736' is-artificial='yes'/>
            <return type-id='48b5725f'/>
          </function-decl>
        </member-function>
        <member-function access='public'>
          <function-decl name='allocator' filepath='/usr/include/c++/4.9/bits/allocator.h' line='115' column='1' visibility='default' binding='global' size-in-bits='64'>
            <parameter type-id='933cb736' is-artificial='yes'/>
            <parameter type-id='b8cfc04d'/>
            <return type-id='48b5725f'/>
          </function-decl>
        </member-function>
        <member-function access='public' destructor='yes'>
          <function-decl name='~allocator' filepath='/usr/include/c++/4.9/bits/allocator.h' line='121' column='1' visibility='default' binding='global' size-in-bits='64'>
            <parameter type-id='933cb736' is-artificial='yes'/>
            <parameter type-id='95e97e5e' is-artificial='yes'/>
            <return type-id='48b5725f'/>
          </function-decl>
        </member-function>
      </class-decl>
      <class-decl name='allocator&lt;boost::shared_ptr&lt;boost::program_options::options_description&gt; &gt;' size-in-bits='8' visibility='default' filepath='/usr/include/c++/4.9/bits/allocator.h' line='92' column='1' id='f2fa6699'>
        <base-class access='public' layout-offset-in-bits='0' type-id='77a2ce9b'/>
        <member-type access='public'>
          <typedef-decl name='size_type' type-id='7a51dc7f' filepath='/usr/include/c++/4.9/bits/allocator.h' line='95' column='1' id='3c1d1608'/>
        </member-type>
        <member-type access='public'>
          <typedef-decl name='pointer' type-id='dae7bd7b' filepath='/usr/include/c++/4.9/bits/allocator.h' line='97' column='1' id='9bc4a4c7'/>
        </member-type>
        <member-type access='public'>
          <typedef-decl name='value_type' type-id='f4d787bb' filepath='/usr/include/c++/4.9/bits/allocator.h' line='101' column='1' id='d4bf7e88'/>
        </member-type>
        <member-type access='public'>
          <class-decl name='rebind&lt;boost::shared_ptr&lt;boost::program_options::options_description&gt; &gt;' size-in-bits='8' is-struct='yes' visibility='default' filepath='/usr/include/c++/4.9/bits/allocator.h' line='104' column='1' id='c96bd77d'>
            <member-type access='public'>
              <typedef-decl name='other' type-id='f2fa6699' filepath='/usr/include/c++/4.9/bits/allocator.h' line='105' column='1' id='b402541a'/>
            </member-type>
          </class-decl>
        </member-type>
        <member-function access='public'>
          <function-decl name='allocator' filepath='/usr/include/c++/4.9/bits/allocator.h' line='113' column='1' visibility='default' binding='global' size-in-bits='64'>
            <parameter type-id='02621d51' is-artificial='yes'/>
            <return type-id='48b5725f'/>
          </function-decl>
        </member-function>
        <member-function access='public'>
          <function-decl name='allocator' filepath='/usr/include/c++/4.9/bits/allocator.h' line='115' column='1' visibility='default' binding='global' size-in-bits='64'>
            <parameter type-id='02621d51' is-artificial='yes'/>
            <parameter type-id='8f9f9f94'/>
            <return type-id='48b5725f'/>
          </function-decl>
        </member-function>
        <member-function access='public' destructor='yes'>
          <function-decl name='~allocator' filepath='/usr/include/c++/4.9/bits/allocator.h' line='121' column='1' visibility='default' binding='global' size-in-bits='64'>
            <parameter type-id='02621d51' is-artificial='yes'/>
            <parameter type-id='95e97e5e' is-artificial='yes'/>
            <return type-id='48b5725f'/>
          </function-decl>
        </member-function>
      </class-decl>
      <class-decl name='allocator&lt;char&gt;' size-in-bits='8' visibility='default' filepath='/usr/include/c++/4.9/bits/allocator.h' line='92' column='1' id='eb166b35'>
        <base-class access='public' layout-offset-in-bits='0' type-id='ae3b5d4b'/>
        <member-type access='public'>
          <typedef-decl name='size_type' type-id='7a51dc7f' filepath='/usr/include/c++/4.9/bits/allocator.h' line='95' column='1' id='ea4606d6'/>
        </member-type>
        <member-type access='public'>
          <typedef-decl name='reference' type-id='2aa915e1' filepath='/usr/include/c++/4.9/bits/allocator.h' line='99' column='1' id='8fee2199'/>
        </member-type>
        <member-type access='public'>
          <typedef-decl name='const_reference' type-id='8cf4ca3a' filepath='/usr/include/c++/4.9/bits/allocator.h' line='100' column='1' id='000926f5'/>
        </member-type>
        <member-function access='public'>
          <function-decl name='allocator' filepath='/usr/include/c++/4.9/bits/allocator.h' line='113' column='1' visibility='default' binding='global' size-in-bits='64'>
            <parameter type-id='4acb8155' is-artificial='yes'/>
            <return type-id='48b5725f'/>
          </function-decl>
        </member-function>
        <member-function access='public'>
          <function-decl name='allocator' filepath='/usr/include/c++/4.9/bits/allocator.h' line='115' column='1' visibility='default' binding='global' size-in-bits='64'>
            <parameter type-id='4acb8155' is-artificial='yes'/>
            <parameter type-id='d6d4f37a'/>
            <return type-id='48b5725f'/>
          </function-decl>
        </member-function>
        <member-function access='public' destructor='yes'>
          <function-decl name='~allocator' filepath='/usr/include/c++/4.9/bits/allocator.h' line='121' column='1' visibility='default' binding='global' size-in-bits='64'>
            <parameter type-id='4acb8155' is-artificial='yes'/>
            <parameter type-id='95e97e5e' is-artificial='yes'/>
            <return type-id='48b5725f'/>
          </function-decl>
        </member-function>
      </class-decl>
      <class-decl name='allocator&lt;long unsigned int&gt;' size-in-bits='8' visibility='default' filepath='/usr/include/c++/4.9/bits/allocator.h' line='92' column='1' id='a67ba367'>
        <base-class access='public' layout-offset-in-bits='0' type-id='9d796101'/>
        <member-function access='public'>
          <function-decl name='allocator' filepath='/usr/include/c++/4.9/bits/allocator.h' line='113' column='1' visibility='default' binding='global' size-in-bits='64'>
            <parameter type-id='2da62bff' is-artificial='yes'/>
            <return type-id='48b5725f'/>
          </function-decl>
        </member-function>
        <member-function access='public'>
          <function-decl name='allocator' filepath='/usr/include/c++/4.9/bits/allocator.h' line='115' column='1' visibility='default' binding='global' size-in-bits='64'>
            <parameter type-id='2da62bff' is-artificial='yes'/>
            <parameter type-id='17ece60e'/>
            <return type-id='48b5725f'/>
          </function-decl>
        </member-function>
        <member-function access='public' destructor='yes'>
          <function-decl name='~allocator' filepath='/usr/include/c++/4.9/bits/allocator.h' line='121' column='1' visibility='default' binding='global' size-in-bits='64'>
            <parameter type-id='2da62bff' is-artificial='yes'/>
            <parameter type-id='95e97e5e' is-artificial='yes'/>
            <return type-id='48b5725f'/>
          </function-decl>
        </member-function>
      </class-decl>
      <class-decl name='allocator&lt;mongo::logger::Appender&lt;mongo::logger::MessageEventEphemeral&gt;*&gt;' size-in-bits='8' visibility='default' filepath='/usr/include/c++/4.9/bits/allocator.h' line='92' column='1' id='25deba76'>
        <base-class access='public' layout-offset-in-bits='0' type-id='5d34846c'/>
        <member-type access='public'>
          <typedef-decl name='size_type' type-id='7a51dc7f' filepath='/usr/include/c++/4.9/bits/allocator.h' line='95' column='1' id='e78fcd9f'/>
        </member-type>
        <member-type access='public'>
          <typedef-decl name='pointer' type-id='4f944e3e' filepath='/usr/include/c++/4.9/bits/allocator.h' line='97' column='1' id='013fd828'/>
        </member-type>
        <member-type access='public'>
          <typedef-decl name='value_type' type-id='175bd7a0' filepath='/usr/include/c++/4.9/bits/allocator.h' line='101' column='1' id='58f1dee5'/>
        </member-type>
        <member-type access='public'>
          <class-decl name='rebind&lt;mongo::logger::Appender&lt;mongo::logger::MessageEventEphemeral&gt;*&gt;' size-in-bits='8' is-struct='yes' visibility='default' filepath='/usr/include/c++/4.9/bits/allocator.h' line='104' column='1' id='599e150d'>
            <member-type access='public'>
              <typedef-decl name='other' type-id='25deba76' filepath='/usr/include/c++/4.9/bits/allocator.h' line='105' column='1' id='c9d5dcb2'/>
            </member-type>
          </class-decl>
        </member-type>
        <member-function access='public'>
          <function-decl name='allocator' filepath='/usr/include/c++/4.9/bits/allocator.h' line='113' column='1' visibility='default' binding='global' size-in-bits='64'>
            <parameter type-id='06f69bbc' is-artificial='yes'/>
            <return type-id='48b5725f'/>
          </function-decl>
        </member-function>
        <member-function access='public'>
          <function-decl name='allocator' filepath='/usr/include/c++/4.9/bits/allocator.h' line='115' column='1' visibility='default' binding='global' size-in-bits='64'>
            <parameter type-id='06f69bbc' is-artificial='yes'/>
            <parameter type-id='1001773f'/>
            <return type-id='48b5725f'/>
          </function-decl>
        </member-function>
        <member-function access='public' destructor='yes'>
          <function-decl name='~allocator' filepath='/usr/include/c++/4.9/bits/allocator.h' line='121' column='1' visibility='default' binding='global' size-in-bits='64'>
            <parameter type-id='06f69bbc' is-artificial='yes'/>
            <parameter type-id='95e97e5e' is-artificial='yes'/>
            <return type-id='48b5725f'/>
          </function-decl>
        </member-function>
      </class-decl>
      <class-decl name='allocator&lt;mongo::optionenvironment::Constraint*&gt;' size-in-bits='8' visibility='default' filepath='/usr/include/c++/4.9/bits/allocator.h' line='92' column='1' id='92377e58'>
        <base-class access='public' layout-offset-in-bits='0' type-id='620fdf2a'/>
        <member-type access='public'>
          <typedef-decl name='size_type' type-id='7a51dc7f' filepath='/usr/include/c++/4.9/bits/allocator.h' line='95' column='1' id='470c1603'/>
        </member-type>
        <member-type access='public'>
          <typedef-decl name='pointer' type-id='79eb1460' filepath='/usr/include/c++/4.9/bits/allocator.h' line='97' column='1' id='5057067c'/>
        </member-type>
        <member-type access='public'>
          <typedef-decl name='value_type' type-id='8d3ed60a' filepath='/usr/include/c++/4.9/bits/allocator.h' line='101' column='1' id='6bbf1f49'/>
        </member-type>
        <member-type access='public'>
          <class-decl name='rebind&lt;mongo::optionenvironment::Constraint*&gt;' size-in-bits='8' is-struct='yes' visibility='default' filepath='/usr/include/c++/4.9/bits/allocator.h' line='104' column='1' id='19e90e33'>
            <member-type access='public'>
              <typedef-decl name='other' type-id='92377e58' filepath='/usr/include/c++/4.9/bits/allocator.h' line='105' column='1' id='46693d38'/>
            </member-type>
          </class-decl>
        </member-type>
        <member-function access='public'>
          <function-decl name='allocator' filepath='/usr/include/c++/4.9/bits/allocator.h' line='113' column='1' visibility='default' binding='global' size-in-bits='64'>
            <parameter type-id='02cd5cee' is-artificial='yes'/>
            <return type-id='48b5725f'/>
          </function-decl>
        </member-function>
        <member-function access='public'>
          <function-decl name='allocator' filepath='/usr/include/c++/4.9/bits/allocator.h' line='115' column='1' visibility='default' binding='global' size-in-bits='64'>
            <parameter type-id='02cd5cee' is-artificial='yes'/>
            <parameter type-id='1e14149b'/>
            <return type-id='48b5725f'/>
          </function-decl>
        </member-function>
        <member-function access='public' destructor='yes'>
          <function-decl name='~allocator' filepath='/usr/include/c++/4.9/bits/allocator.h' line='121' column='1' visibility='default' binding='global' size-in-bits='64'>
            <parameter type-id='02cd5cee' is-artificial='yes'/>
            <parameter type-id='95e97e5e' is-artificial='yes'/>
            <return type-id='48b5725f'/>
          </function-decl>
        </member-function>
      </class-decl>
      <class-decl name='allocator&lt;mongo::optionenvironment::KeyConstraint*&gt;' size-in-bits='8' visibility='default' filepath='/usr/include/c++/4.9/bits/allocator.h' line='92' column='1' id='7a54f84d'>
        <base-class access='public' layout-offset-in-bits='0' type-id='c92078d7'/>
        <member-type access='public'>
          <typedef-decl name='size_type' type-id='7a51dc7f' filepath='/usr/include/c++/4.9/bits/allocator.h' line='95' column='1' id='acf223fe'/>
        </member-type>
        <member-type access='public'>
          <typedef-decl name='pointer' type-id='5fb1f2fd' filepath='/usr/include/c++/4.9/bits/allocator.h' line='97' column='1' id='426d9685'/>
        </member-type>
        <member-type access='public'>
          <typedef-decl name='value_type' type-id='a8755305' filepath='/usr/include/c++/4.9/bits/allocator.h' line='101' column='1' id='4594bede'/>
        </member-type>
        <member-type access='public'>
          <class-decl name='rebind&lt;mongo::optionenvironment::KeyConstraint*&gt;' size-in-bits='8' is-struct='yes' visibility='default' filepath='/usr/include/c++/4.9/bits/allocator.h' line='104' column='1' id='f79ae165'>
            <member-type access='public'>
              <typedef-decl name='other' type-id='7a54f84d' filepath='/usr/include/c++/4.9/bits/allocator.h' line='105' column='1' id='9324322a'/>
            </member-type>
          </class-decl>
        </member-type>
        <member-function access='public'>
          <function-decl name='allocator' filepath='/usr/include/c++/4.9/bits/allocator.h' line='113' column='1' visibility='default' binding='global' size-in-bits='64'>
            <parameter type-id='4d4dab4d' is-artificial='yes'/>
            <return type-id='48b5725f'/>
          </function-decl>
        </member-function>
        <member-function access='public'>
          <function-decl name='allocator' filepath='/usr/include/c++/4.9/bits/allocator.h' line='115' column='1' visibility='default' binding='global' size-in-bits='64'>
            <parameter type-id='4d4dab4d' is-artificial='yes'/>
            <parameter type-id='99d51462'/>
            <return type-id='48b5725f'/>
          </function-decl>
        </member-function>
        <member-function access='public' destructor='yes'>
          <function-decl name='~allocator' filepath='/usr/include/c++/4.9/bits/allocator.h' line='121' column='1' visibility='default' binding='global' size-in-bits='64'>
            <parameter type-id='4d4dab4d' is-artificial='yes'/>
            <parameter type-id='95e97e5e' is-artificial='yes'/>
            <return type-id='48b5725f'/>
          </function-decl>
        </member-function>
      </class-decl>
      <class-decl name='allocator&lt;mongo::optionenvironment::OptionDescription&gt;' size-in-bits='8' visibility='default' filepath='/usr/include/c++/4.9/bits/allocator.h' line='92' column='1' id='052d8e22'>
        <base-class access='public' layout-offset-in-bits='0' type-id='e5642ba0'/>
        <member-type access='public'>
          <typedef-decl name='reference' type-id='3dd6602e' filepath='/usr/include/c++/4.9/bits/allocator.h' line='99' column='1' id='30737372'/>
        </member-type>
        <member-type access='public'>
          <typedef-decl name='const_reference' type-id='e98fd8bf' filepath='/usr/include/c++/4.9/bits/allocator.h' line='100' column='1' id='9ecd5616'/>
        </member-type>
        <member-type access='public'>
          <class-decl name='rebind&lt;mongo::optionenvironment::OptionDescription&gt;' size-in-bits='8' is-struct='yes' visibility='default' filepath='/usr/include/c++/4.9/bits/allocator.h' line='104' column='1' id='29eff9e3'>
            <member-type access='public'>
              <typedef-decl name='other' type-id='052d8e22' filepath='/usr/include/c++/4.9/bits/allocator.h' line='105' column='1' id='19734e4c'/>
            </member-type>
          </class-decl>
        </member-type>
        <member-type access='public'>
          <class-decl name='rebind&lt;std::_List_node&lt;mongo::optionenvironment::OptionDescription&gt; &gt;' size-in-bits='8' is-struct='yes' visibility='default' filepath='/usr/include/c++/4.9/bits/allocator.h' line='104' column='1' id='af0b8e24'>
            <member-type access='public'>
              <typedef-decl name='other' type-id='b449e105' filepath='/usr/include/c++/4.9/bits/allocator.h' line='105' column='1' id='1a78362d'/>
            </member-type>
          </class-decl>
        </member-type>
        <member-function access='public'>
          <function-decl name='allocator' filepath='/usr/include/c++/4.9/bits/allocator.h' line='113' column='1' visibility='default' binding='global' size-in-bits='64'>
            <parameter type-id='a20cfc80' is-artificial='yes'/>
            <return type-id='48b5725f'/>
          </function-decl>
        </member-function>
        <member-function access='public'>
          <function-decl name='allocator' filepath='/usr/include/c++/4.9/bits/allocator.h' line='115' column='1' visibility='default' binding='global' size-in-bits='64'>
            <parameter type-id='a20cfc80' is-artificial='yes'/>
            <parameter type-id='36703041'/>
            <return type-id='48b5725f'/>
          </function-decl>
        </member-function>
        <member-function access='public' destructor='yes'>
          <function-decl name='~allocator' filepath='/usr/include/c++/4.9/bits/allocator.h' line='121' column='1' visibility='default' binding='global' size-in-bits='64'>
            <parameter type-id='a20cfc80' is-artificial='yes'/>
            <parameter type-id='95e97e5e' is-artificial='yes'/>
            <return type-id='48b5725f'/>
          </function-decl>
        </member-function>
      </class-decl>
      <class-decl name='allocator&lt;mongo::optionenvironment::OptionSection&gt;' size-in-bits='8' visibility='default' filepath='/usr/include/c++/4.9/bits/allocator.h' line='92' column='1' id='8122aa85'>
        <base-class access='public' layout-offset-in-bits='0' type-id='4d2bcbf7'/>
        <member-type access='public'>
          <typedef-decl name='reference' type-id='a1607329' filepath='/usr/include/c++/4.9/bits/allocator.h' line='99' column='1' id='baa04877'/>
        </member-type>
        <member-type access='public'>
          <typedef-decl name='const_reference' type-id='3f715664' filepath='/usr/include/c++/4.9/bits/allocator.h' line='100' column='1' id='8f2ebb57'/>
        </member-type>
        <member-type access='public'>
          <class-decl name='rebind&lt;mongo::optionenvironment::OptionSection&gt;' size-in-bits='8' is-struct='yes' visibility='default' filepath='/usr/include/c++/4.9/bits/allocator.h' line='104' column='1' id='db457085'>
            <member-type access='public'>
              <typedef-decl name='other' type-id='8122aa85' filepath='/usr/include/c++/4.9/bits/allocator.h' line='105' column='1' id='a3a015fa'/>
            </member-type>
          </class-decl>
        </member-type>
        <member-type access='public'>
          <class-decl name='rebind&lt;std::_List_node&lt;mongo::optionenvironment::OptionSection&gt; &gt;' size-in-bits='8' is-struct='yes' visibility='default' filepath='/usr/include/c++/4.9/bits/allocator.h' line='104' column='1' id='c33ec4da'>
            <member-type access='public'>
              <typedef-decl name='other' type-id='f9660eda' filepath='/usr/include/c++/4.9/bits/allocator.h' line='105' column='1' id='1e830f0f'/>
            </member-type>
          </class-decl>
        </member-type>
        <member-function access='public'>
          <function-decl name='allocator' filepath='/usr/include/c++/4.9/bits/allocator.h' line='113' column='1' visibility='default' binding='global' size-in-bits='64'>
            <parameter type-id='25037975' is-artificial='yes'/>
            <return type-id='48b5725f'/>
          </function-decl>
        </member-function>
        <member-function access='public'>
          <function-decl name='allocator' filepath='/usr/include/c++/4.9/bits/allocator.h' line='115' column='1' visibility='default' binding='global' size-in-bits='64'>
            <parameter type-id='25037975' is-artificial='yes'/>
            <parameter type-id='bb7eeb38'/>
            <return type-id='48b5725f'/>
          </function-decl>
        </member-function>
        <member-function access='public' destructor='yes'>
          <function-decl name='~allocator' filepath='/usr/include/c++/4.9/bits/allocator.h' line='121' column='1' visibility='default' binding='global' size-in-bits='64'>
            <parameter type-id='25037975' is-artificial='yes'/>
            <parameter type-id='95e97e5e' is-artificial='yes'/>
            <return type-id='48b5725f'/>
          </function-decl>
        </member-function>
      </class-decl>
      <class-decl name='allocator&lt;std::_List_node&lt;mongo::optionenvironment::OptionDescription&gt; &gt;' size-in-bits='8' visibility='default' filepath='/usr/include/c++/4.9/bits/allocator.h' line='92' column='1' id='b449e105'>
        <base-class access='public' layout-offset-in-bits='0' type-id='8401074f'/>
        <member-function access='public'>
          <function-decl name='allocator' filepath='/usr/include/c++/4.9/bits/allocator.h' line='113' column='1' visibility='default' binding='global' size-in-bits='64'>
            <parameter type-id='5153aca5' is-artificial='yes'/>
            <return type-id='48b5725f'/>
          </function-decl>
        </member-function>
        <member-function access='public'>
          <function-decl name='allocator' filepath='/usr/include/c++/4.9/bits/allocator.h' line='115' column='1' visibility='default' binding='global' size-in-bits='64'>
            <parameter type-id='5153aca5' is-artificial='yes'/>
            <parameter type-id='560e928c'/>
            <return type-id='48b5725f'/>
          </function-decl>
        </member-function>
        <member-function access='public' destructor='yes'>
          <function-decl name='~allocator' filepath='/usr/include/c++/4.9/bits/allocator.h' line='121' column='1' visibility='default' binding='global' size-in-bits='64'>
            <parameter type-id='5153aca5' is-artificial='yes'/>
            <parameter type-id='95e97e5e' is-artificial='yes'/>
            <return type-id='48b5725f'/>
          </function-decl>
        </member-function>
        <member-function access='public' destructor='yes'>
          <function-decl name='~allocator' mangled-name='_ZNSaISt10_List_nodeIN5mongo17optionenvironment17OptionDescriptionEEED2Ev' filepath='/usr/include/c++/4.9/bits/allocator.h' line='121' column='1' visibility='default' binding='global' size-in-bits='64' elf-symbol-id='_ZNSaISt10_List_nodeIN5mongo17optionenvironment17OptionDescriptionEEED2Ev'>
            <parameter type-id='5153aca5' is-artificial='yes'/>
            <parameter type-id='95e97e5e' is-artificial='yes'/>
            <return type-id='48b5725f'/>
          </function-decl>
        </member-function>
        <member-function access='public'>
          <function-decl name='allocator' mangled-name='_ZNSaISt10_List_nodeIN5mongo17optionenvironment17OptionDescriptionEEEC2Ev' filepath='/usr/include/c++/4.9/bits/allocator.h' line='113' column='1' visibility='default' binding='global' size-in-bits='64' elf-symbol-id='_ZNSaISt10_List_nodeIN5mongo17optionenvironment17OptionDescriptionEEEC2Ev'>
            <parameter type-id='5153aca5' is-artificial='yes'/>
            <return type-id='48b5725f'/>
          </function-decl>
        </member-function>
      </class-decl>
      <class-decl name='allocator&lt;std::_List_node&lt;mongo::optionenvironment::OptionSection&gt; &gt;' size-in-bits='8' visibility='default' filepath='/usr/include/c++/4.9/bits/allocator.h' line='92' column='1' id='f9660eda'>
        <base-class access='public' layout-offset-in-bits='0' type-id='f1f3b078'/>
        <member-function access='public'>
          <function-decl name='allocator' filepath='/usr/include/c++/4.9/bits/allocator.h' line='113' column='1' visibility='default' binding='global' size-in-bits='64'>
            <parameter type-id='a2047d48' is-artificial='yes'/>
            <return type-id='48b5725f'/>
          </function-decl>
        </member-function>
        <member-function access='public'>
          <function-decl name='allocator' filepath='/usr/include/c++/4.9/bits/allocator.h' line='115' column='1' visibility='default' binding='global' size-in-bits='64'>
            <parameter type-id='a2047d48' is-artificial='yes'/>
            <parameter type-id='4feeecbd'/>
            <return type-id='48b5725f'/>
          </function-decl>
        </member-function>
        <member-function access='public' destructor='yes'>
          <function-decl name='~allocator' filepath='/usr/include/c++/4.9/bits/allocator.h' line='121' column='1' visibility='default' binding='global' size-in-bits='64'>
            <parameter type-id='a2047d48' is-artificial='yes'/>
            <parameter type-id='95e97e5e' is-artificial='yes'/>
            <return type-id='48b5725f'/>
          </function-decl>
        </member-function>
        <member-function access='public' destructor='yes'>
          <function-decl name='~allocator' mangled-name='_ZNSaISt10_List_nodeIN5mongo17optionenvironment13OptionSectionEEED2Ev' filepath='/usr/include/c++/4.9/bits/allocator.h' line='121' column='1' visibility='default' binding='global' size-in-bits='64' elf-symbol-id='_ZNSaISt10_List_nodeIN5mongo17optionenvironment13OptionSectionEEED2Ev'>
            <parameter type-id='a2047d48' is-artificial='yes'/>
            <parameter type-id='95e97e5e' is-artificial='yes'/>
            <return type-id='48b5725f'/>
          </function-decl>
        </member-function>
        <member-function access='public'>
          <function-decl name='allocator' mangled-name='_ZNSaISt10_List_nodeIN5mongo17optionenvironment13OptionSectionEEEC2Ev' filepath='/usr/include/c++/4.9/bits/allocator.h' line='113' column='1' visibility='default' binding='global' size-in-bits='64' elf-symbol-id='_ZNSaISt10_List_nodeIN5mongo17optionenvironment13OptionSectionEEEC2Ev'>
            <parameter type-id='a2047d48' is-artificial='yes'/>
            <return type-id='48b5725f'/>
          </function-decl>
        </member-function>
      </class-decl>
      <class-decl name='allocator&lt;std::_Rb_tree_node&lt;std::basic_string&lt;char, std::char_traits&lt;char&gt;, std::allocator&lt;char&gt; &gt; &gt; &gt;' size-in-bits='8' visibility='default' filepath='/usr/include/c++/4.9/bits/allocator.h' line='92' column='1' id='f0568441'>
        <base-class access='public' layout-offset-in-bits='0' type-id='6ccee52b'/>
        <member-function access='public'>
          <function-decl name='allocator' filepath='/usr/include/c++/4.9/bits/allocator.h' line='113' column='1' visibility='default' binding='global' size-in-bits='64'>
            <parameter type-id='1d4d4939' is-artificial='yes'/>
            <return type-id='48b5725f'/>
          </function-decl>
        </member-function>
        <member-function access='public'>
          <function-decl name='allocator' filepath='/usr/include/c++/4.9/bits/allocator.h' line='115' column='1' visibility='default' binding='global' size-in-bits='64'>
            <parameter type-id='1d4d4939' is-artificial='yes'/>
            <parameter type-id='1674ccf6'/>
            <return type-id='48b5725f'/>
          </function-decl>
        </member-function>
        <member-function access='public' destructor='yes'>
          <function-decl name='~allocator' filepath='/usr/include/c++/4.9/bits/allocator.h' line='121' column='1' visibility='default' binding='global' size-in-bits='64'>
            <parameter type-id='1d4d4939' is-artificial='yes'/>
            <parameter type-id='95e97e5e' is-artificial='yes'/>
            <return type-id='48b5725f'/>
          </function-decl>
        </member-function>
      </class-decl>
      <class-decl name='allocator&lt;std::_Rb_tree_node&lt;std::pair&lt;const std::basic_string&lt;char, std::char_traits&lt;char&gt;, std::allocator&lt;char&gt; &gt;, mongo::ServerParameter*&gt; &gt; &gt;' size-in-bits='8' visibility='default' filepath='/usr/include/c++/4.9/bits/allocator.h' line='92' column='1' id='bf493335'>
        <base-class access='public' layout-offset-in-bits='0' type-id='944877b7'/>
        <member-function access='public'>
          <function-decl name='allocator' filepath='/usr/include/c++/4.9/bits/allocator.h' line='113' column='1' visibility='default' binding='global' size-in-bits='64'>
            <parameter type-id='95590f95' is-artificial='yes'/>
            <return type-id='48b5725f'/>
          </function-decl>
        </member-function>
        <member-function access='public'>
          <function-decl name='allocator' filepath='/usr/include/c++/4.9/bits/allocator.h' line='115' column='1' visibility='default' binding='global' size-in-bits='64'>
            <parameter type-id='95590f95' is-artificial='yes'/>
            <parameter type-id='70a1d44e'/>
            <return type-id='48b5725f'/>
          </function-decl>
        </member-function>
        <member-function access='public' destructor='yes'>
          <function-decl name='~allocator' filepath='/usr/include/c++/4.9/bits/allocator.h' line='121' column='1' visibility='default' binding='global' size-in-bits='64'>
            <parameter type-id='95590f95' is-artificial='yes'/>
            <parameter type-id='95e97e5e' is-artificial='yes'/>
            <return type-id='48b5725f'/>
          </function-decl>
        </member-function>
      </class-decl>
      <class-decl name='allocator&lt;std::_Rb_tree_node&lt;std::pair&lt;const std::basic_string&lt;char, std::char_traits&lt;char&gt;, std::allocator&lt;char&gt; &gt;, mongo::optionenvironment::Value&gt; &gt; &gt;' size-in-bits='8' visibility='default' filepath='/usr/include/c++/4.9/bits/allocator.h' line='92' column='1' id='ab242dd8'>
        <base-class access='public' layout-offset-in-bits='0' type-id='5766dd86'/>
        <member-function access='public'>
          <function-decl name='allocator' filepath='/usr/include/c++/4.9/bits/allocator.h' line='113' column='1' visibility='default' binding='global' size-in-bits='64'>
            <parameter type-id='000dfd4e' is-artificial='yes'/>
            <return type-id='48b5725f'/>
          </function-decl>
        </member-function>
        <member-function access='public'>
          <function-decl name='allocator' filepath='/usr/include/c++/4.9/bits/allocator.h' line='115' column='1' visibility='default' binding='global' size-in-bits='64'>
            <parameter type-id='000dfd4e' is-artificial='yes'/>
            <parameter type-id='a26b02d1'/>
            <return type-id='48b5725f'/>
          </function-decl>
        </member-function>
        <member-function access='public' destructor='yes'>
          <function-decl name='~allocator' filepath='/usr/include/c++/4.9/bits/allocator.h' line='121' column='1' visibility='default' binding='global' size-in-bits='64'>
            <parameter type-id='000dfd4e' is-artificial='yes'/>
            <parameter type-id='95e97e5e' is-artificial='yes'/>
            <return type-id='48b5725f'/>
          </function-decl>
        </member-function>
      </class-decl>
      <class-decl name='allocator&lt;std::_Rb_tree_node&lt;std::pair&lt;const std::basic_string&lt;char, std::char_traits&lt;char&gt;, std::allocator&lt;char&gt; &gt;, std::basic_string&lt;char, std::char_traits&lt;char&gt;, std::allocator&lt;char&gt; &gt; &gt; &gt; &gt;' size-in-bits='8' visibility='default' filepath='/usr/include/c++/4.9/bits/allocator.h' line='92' column='1' id='59a87d47'>
        <base-class access='public' layout-offset-in-bits='0' type-id='8c3cde51'/>
        <member-type access='public'>
          <typedef-decl name='size_type' type-id='7a51dc7f' filepath='/usr/include/c++/4.9/bits/allocator.h' line='95' column='1' id='1852b670'/>
        </member-type>
        <member-type access='public'>
          <typedef-decl name='pointer' type-id='317b9045' filepath='/usr/include/c++/4.9/bits/allocator.h' line='97' column='1' id='6bc6f8bf'/>
        </member-type>
        <member-type access='public'>
          <typedef-decl name='value_type' type-id='ef463c95' filepath='/usr/include/c++/4.9/bits/allocator.h' line='101' column='1' id='467c50f0'/>
        </member-type>
        <member-function access='public'>
          <function-decl name='allocator' filepath='/usr/include/c++/4.9/bits/allocator.h' line='113' column='1' visibility='default' binding='global' size-in-bits='64'>
            <parameter type-id='589b2fdf' is-artificial='yes'/>
            <return type-id='48b5725f'/>
          </function-decl>
        </member-function>
        <member-function access='public'>
          <function-decl name='allocator' filepath='/usr/include/c++/4.9/bits/allocator.h' line='115' column='1' visibility='default' binding='global' size-in-bits='64'>
            <parameter type-id='589b2fdf' is-artificial='yes'/>
            <parameter type-id='944b823c'/>
            <return type-id='48b5725f'/>
          </function-decl>
        </member-function>
        <member-function access='public' destructor='yes'>
          <function-decl name='~allocator' filepath='/usr/include/c++/4.9/bits/allocator.h' line='121' column='1' visibility='default' binding='global' size-in-bits='64'>
            <parameter type-id='589b2fdf' is-artificial='yes'/>
            <parameter type-id='95e97e5e' is-artificial='yes'/>
            <return type-id='48b5725f'/>
          </function-decl>
        </member-function>
        <member-function access='public' destructor='yes'>
          <function-decl name='~allocator' mangled-name='_ZNSaISt13_Rb_tree_nodeISt4pairIKSsSsEEED2Ev' filepath='/usr/include/c++/4.9/bits/allocator.h' line='121' column='1' visibility='default' binding='global' size-in-bits='64' elf-symbol-id='_ZNSaISt13_Rb_tree_nodeISt4pairIKSsSsEEED2Ev'>
            <parameter type-id='589b2fdf' is-artificial='yes'/>
            <parameter type-id='95e97e5e' is-artificial='yes'/>
            <return type-id='48b5725f'/>
          </function-decl>
        </member-function>
        <member-function access='public'>
          <function-decl name='allocator' mangled-name='_ZNSaISt13_Rb_tree_nodeISt4pairIKSsSsEEEC2Ev' filepath='/usr/include/c++/4.9/bits/allocator.h' line='113' column='1' visibility='default' binding='global' size-in-bits='64' elf-symbol-id='_ZNSaISt13_Rb_tree_nodeISt4pairIKSsSsEEEC2Ev'>
            <parameter type-id='589b2fdf' is-artificial='yes'/>
            <return type-id='48b5725f'/>
          </function-decl>
        </member-function>
      </class-decl>
      <class-decl name='allocator&lt;std::__detail::_Hash_node&lt;std::pair&lt;const std::basic_string&lt;char, std::char_traits&lt;char&gt;, std::allocator&lt;char&gt; &gt;, mongo::logger::LogDomain&lt;mongo::logger::MessageEventEphemeral&gt;*&gt;, true&gt; &gt;' size-in-bits='8' visibility='default' filepath='/usr/include/c++/4.9/bits/allocator.h' line='92' column='1' id='51120c8b'>
        <base-class access='public' layout-offset-in-bits='0' type-id='535450e1'/>
        <member-type access='public'>
          <typedef-decl name='value_type' type-id='3ae61ff9' filepath='/usr/include/c++/4.9/bits/allocator.h' line='101' column='1' id='e325b890'/>
        </member-type>
        <member-function access='public'>
          <function-decl name='allocator' filepath='/usr/include/c++/4.9/bits/allocator.h' line='113' column='1' visibility='default' binding='global' size-in-bits='64'>
            <parameter type-id='097142bb' is-artificial='yes'/>
            <return type-id='48b5725f'/>
          </function-decl>
        </member-function>
        <member-function access='public'>
          <function-decl name='allocator' filepath='/usr/include/c++/4.9/bits/allocator.h' line='115' column='1' visibility='default' binding='global' size-in-bits='64'>
            <parameter type-id='097142bb' is-artificial='yes'/>
            <parameter type-id='c14a7cfc'/>
            <return type-id='48b5725f'/>
          </function-decl>
        </member-function>
        <member-function access='public' destructor='yes'>
          <function-decl name='~allocator' filepath='/usr/include/c++/4.9/bits/allocator.h' line='121' column='1' visibility='default' binding='global' size-in-bits='64'>
            <parameter type-id='097142bb' is-artificial='yes'/>
            <parameter type-id='95e97e5e' is-artificial='yes'/>
            <return type-id='48b5725f'/>
          </function-decl>
        </member-function>
      </class-decl>
      <class-decl name='allocator&lt;std::basic_string&lt;char, std::char_traits&lt;char&gt;, std::allocator&lt;char&gt; &gt; &gt;' size-in-bits='8' visibility='default' filepath='/usr/include/c++/4.9/bits/allocator.h' line='92' column='1' id='8c16474d'>
        <base-class access='public' layout-offset-in-bits='0' type-id='5532abfb'/>
        <member-type access='public'>
          <typedef-decl name='size_type' type-id='7a51dc7f' filepath='/usr/include/c++/4.9/bits/allocator.h' line='95' column='1' id='8a147cc4'/>
        </member-type>
        <member-type access='public'>
          <typedef-decl name='pointer' type-id='16934a6f' filepath='/usr/include/c++/4.9/bits/allocator.h' line='97' column='1' id='64fb7c33'/>
        </member-type>
        <member-type access='public'>
          <typedef-decl name='value_type' type-id='c2931f67' filepath='/usr/include/c++/4.9/bits/allocator.h' line='101' column='1' id='2b385664'/>
        </member-type>
        <member-type access='public'>
          <class-decl name='rebind&lt;std::_Rb_tree_node&lt;std::basic_string&lt;char, std::char_traits&lt;char&gt;, std::allocator&lt;char&gt; &gt; &gt; &gt;' size-in-bits='8' is-struct='yes' visibility='default' filepath='/usr/include/c++/4.9/bits/allocator.h' line='104' column='1' id='3216b719'>
            <member-type access='public'>
              <typedef-decl name='other' type-id='f0568441' filepath='/usr/include/c++/4.9/bits/allocator.h' line='105' column='1' id='4528b73c'/>
            </member-type>
          </class-decl>
        </member-type>
        <member-type access='public'>
          <class-decl name='rebind&lt;std::basic_string&lt;char, std::char_traits&lt;char&gt;, std::allocator&lt;char&gt; &gt; &gt;' size-in-bits='8' is-struct='yes' visibility='default' filepath='/usr/include/c++/4.9/bits/allocator.h' line='104' column='1' id='69431125'>
            <member-type access='public'>
              <typedef-decl name='other' type-id='8c16474d' filepath='/usr/include/c++/4.9/bits/allocator.h' line='105' column='1' id='e7ce66a6'/>
            </member-type>
          </class-decl>
        </member-type>
        <member-function access='public'>
          <function-decl name='allocator' filepath='/usr/include/c++/4.9/bits/allocator.h' line='113' column='1' visibility='default' binding='global' size-in-bits='64'>
            <parameter type-id='a01090ed' is-artificial='yes'/>
            <return type-id='48b5725f'/>
          </function-decl>
        </member-function>
        <member-function access='public'>
          <function-decl name='allocator' filepath='/usr/include/c++/4.9/bits/allocator.h' line='115' column='1' visibility='default' binding='global' size-in-bits='64'>
            <parameter type-id='a01090ed' is-artificial='yes'/>
            <parameter type-id='fbb475c8'/>
            <return type-id='48b5725f'/>
          </function-decl>
        </member-function>
        <member-function access='public' destructor='yes'>
          <function-decl name='~allocator' filepath='/usr/include/c++/4.9/bits/allocator.h' line='121' column='1' visibility='default' binding='global' size-in-bits='64'>
            <parameter type-id='a01090ed' is-artificial='yes'/>
            <parameter type-id='95e97e5e' is-artificial='yes'/>
            <return type-id='48b5725f'/>
          </function-decl>
        </member-function>
        <member-function access='public' destructor='yes'>
          <function-decl name='~allocator' mangled-name='_ZNSaISsED2Ev' filepath='/usr/include/c++/4.9/bits/allocator.h' line='121' column='1' visibility='default' binding='global' size-in-bits='64' elf-symbol-id='_ZNSaISsED2Ev'>
            <parameter type-id='a01090ed' is-artificial='yes'/>
            <parameter type-id='95e97e5e' is-artificial='yes'/>
            <return type-id='48b5725f'/>
          </function-decl>
        </member-function>
        <member-function access='public'>
          <function-decl name='allocator' mangled-name='_ZNSaISsEC2ERKS_' filepath='/usr/include/c++/4.9/bits/allocator.h' line='115' column='1' visibility='default' binding='global' size-in-bits='64' elf-symbol-id='_ZNSaISsEC2ERKS_'>
            <parameter type-id='a01090ed' is-artificial='yes'/>
            <parameter type-id='fbb475c8'/>
            <return type-id='48b5725f'/>
          </function-decl>
        </member-function>
        <member-function access='public'>
          <function-decl name='allocator' mangled-name='_ZNSaISsEC2Ev' filepath='/usr/include/c++/4.9/bits/allocator.h' line='113' column='1' visibility='default' binding='global' size-in-bits='64' elf-symbol-id='_ZNSaISsEC2Ev'>
            <parameter type-id='a01090ed' is-artificial='yes'/>
            <return type-id='48b5725f'/>
          </function-decl>
        </member-function>
      </class-decl>
      <class-decl name='allocator&lt;std::pair&lt;const std::basic_string&lt;char, std::char_traits&lt;char&gt;, std::allocator&lt;char&gt; &gt;, mongo::ServerParameter*&gt; &gt;' size-in-bits='8' visibility='default' filepath='/usr/include/c++/4.9/bits/allocator.h' line='92' column='1' id='46c7c4e1'>
        <base-class access='public' layout-offset-in-bits='0' type-id='af8f8b57'/>
        <member-type access='public'>
          <typedef-decl name='size_type' type-id='7a51dc7f' filepath='/usr/include/c++/4.9/bits/allocator.h' line='95' column='1' id='86481eec'/>
        </member-type>
        <member-type access='public'>
          <typedef-decl name='pointer' type-id='91026be3' filepath='/usr/include/c++/4.9/bits/allocator.h' line='97' column='1' id='184f4d4b'/>
        </member-type>
        <member-type access='public'>
          <typedef-decl name='value_type' type-id='70c6ed63' filepath='/usr/include/c++/4.9/bits/allocator.h' line='101' column='1' id='475c77ac'/>
        </member-type>
        <member-type access='public'>
          <class-decl name='rebind&lt;std::_Rb_tree_node&lt;std::pair&lt;const std::basic_string&lt;char, std::char_traits&lt;char&gt;, std::allocator&lt;char&gt; &gt;, mongo::ServerParameter*&gt; &gt; &gt;' size-in-bits='8' is-struct='yes' visibility='default' filepath='/usr/include/c++/4.9/bits/allocator.h' line='104' column='1' id='730c40f9'>
            <member-type access='public'>
              <typedef-decl name='other' type-id='bf493335' filepath='/usr/include/c++/4.9/bits/allocator.h' line='105' column='1' id='efa19b54'/>
            </member-type>
          </class-decl>
        </member-type>
        <member-function access='public'>
          <function-decl name='allocator' filepath='/usr/include/c++/4.9/bits/allocator.h' line='113' column='1' visibility='default' binding='global' size-in-bits='64'>
            <parameter type-id='e4de5ad9' is-artificial='yes'/>
            <return type-id='48b5725f'/>
          </function-decl>
        </member-function>
        <member-function access='public'>
          <function-decl name='allocator' filepath='/usr/include/c++/4.9/bits/allocator.h' line='115' column='1' visibility='default' binding='global' size-in-bits='64'>
            <parameter type-id='e4de5ad9' is-artificial='yes'/>
            <parameter type-id='621dc790'/>
            <return type-id='48b5725f'/>
          </function-decl>
        </member-function>
        <member-function access='public' destructor='yes'>
          <function-decl name='~allocator' filepath='/usr/include/c++/4.9/bits/allocator.h' line='121' column='1' visibility='default' binding='global' size-in-bits='64'>
            <parameter type-id='e4de5ad9' is-artificial='yes'/>
            <parameter type-id='95e97e5e' is-artificial='yes'/>
            <return type-id='48b5725f'/>
          </function-decl>
        </member-function>
      </class-decl>
      <class-decl name='allocator&lt;std::pair&lt;const std::basic_string&lt;char, std::char_traits&lt;char&gt;, std::allocator&lt;char&gt; &gt;, mongo::logger::LogDomain&lt;mongo::logger::MessageEventEphemeral&gt;*&gt; &gt;' size-in-bits='8' visibility='default' filepath='/usr/include/c++/4.9/bits/allocator.h' line='92' column='1' id='2f965b5f'>
        <base-class access='public' layout-offset-in-bits='0' type-id='9a9ec5e1'/>
        <member-function access='public'>
          <function-decl name='allocator' filepath='/usr/include/c++/4.9/bits/allocator.h' line='113' column='1' visibility='default' binding='global' size-in-bits='64'>
            <parameter type-id='a5be3597' is-artificial='yes'/>
            <return type-id='48b5725f'/>
          </function-decl>
        </member-function>
        <member-function access='public'>
          <function-decl name='allocator' filepath='/usr/include/c++/4.9/bits/allocator.h' line='115' column='1' visibility='default' binding='global' size-in-bits='64'>
            <parameter type-id='a5be3597' is-artificial='yes'/>
            <parameter type-id='1e794fa6'/>
            <return type-id='48b5725f'/>
          </function-decl>
        </member-function>
        <member-function access='public' destructor='yes'>
          <function-decl name='~allocator' filepath='/usr/include/c++/4.9/bits/allocator.h' line='121' column='1' visibility='default' binding='global' size-in-bits='64'>
            <parameter type-id='a5be3597' is-artificial='yes'/>
            <parameter type-id='95e97e5e' is-artificial='yes'/>
            <return type-id='48b5725f'/>
          </function-decl>
        </member-function>
      </class-decl>
      <class-decl name='allocator&lt;std::pair&lt;const std::basic_string&lt;char, std::char_traits&lt;char&gt;, std::allocator&lt;char&gt; &gt;, mongo::optionenvironment::Value&gt; &gt;' size-in-bits='8' visibility='default' filepath='/usr/include/c++/4.9/bits/allocator.h' line='92' column='1' id='accb8af4'>
        <base-class access='public' layout-offset-in-bits='0' type-id='6190fe36'/>
        <member-type access='public'>
          <typedef-decl name='size_type' type-id='7a51dc7f' filepath='/usr/include/c++/4.9/bits/allocator.h' line='95' column='1' id='97b65a8f'/>
        </member-type>
        <member-type access='public'>
          <typedef-decl name='pointer' type-id='bace9d40' filepath='/usr/include/c++/4.9/bits/allocator.h' line='97' column='1' id='68e52c38'/>
        </member-type>
        <member-type access='public'>
          <typedef-decl name='value_type' type-id='cb3bf8e2' filepath='/usr/include/c++/4.9/bits/allocator.h' line='101' column='1' id='d9c70fb5'/>
        </member-type>
        <member-type access='public'>
          <class-decl name='rebind&lt;std::_Rb_tree_node&lt;std::pair&lt;const std::basic_string&lt;char, std::char_traits&lt;char&gt;, std::allocator&lt;char&gt; &gt;, mongo::optionenvironment::Value&gt; &gt; &gt;' size-in-bits='8' is-struct='yes' visibility='default' filepath='/usr/include/c++/4.9/bits/allocator.h' line='104' column='1' id='b03088b5'>
            <member-type access='public'>
              <typedef-decl name='other' type-id='ab242dd8' filepath='/usr/include/c++/4.9/bits/allocator.h' line='105' column='1' id='992661a0'/>
            </member-type>
          </class-decl>
        </member-type>
        <member-function access='public'>
          <function-decl name='allocator' filepath='/usr/include/c++/4.9/bits/allocator.h' line='113' column='1' visibility='default' binding='global' size-in-bits='64'>
            <parameter type-id='f7e22b12' is-artificial='yes'/>
            <return type-id='48b5725f'/>
          </function-decl>
        </member-function>
        <member-function access='public'>
          <function-decl name='allocator' filepath='/usr/include/c++/4.9/bits/allocator.h' line='115' column='1' visibility='default' binding='global' size-in-bits='64'>
            <parameter type-id='f7e22b12' is-artificial='yes'/>
            <parameter type-id='612d35cf'/>
            <return type-id='48b5725f'/>
          </function-decl>
        </member-function>
        <member-function access='public' destructor='yes'>
          <function-decl name='~allocator' filepath='/usr/include/c++/4.9/bits/allocator.h' line='121' column='1' visibility='default' binding='global' size-in-bits='64'>
            <parameter type-id='f7e22b12' is-artificial='yes'/>
            <parameter type-id='95e97e5e' is-artificial='yes'/>
            <return type-id='48b5725f'/>
          </function-decl>
        </member-function>
      </class-decl>
      <class-decl name='allocator&lt;std::pair&lt;const std::basic_string&lt;char, std::char_traits&lt;char&gt;, std::allocator&lt;char&gt; &gt;, std::basic_string&lt;char, std::char_traits&lt;char&gt;, std::allocator&lt;char&gt; &gt; &gt; &gt;' size-in-bits='8' visibility='default' filepath='/usr/include/c++/4.9/bits/allocator.h' line='92' column='1' id='e0f0e597'>
        <base-class access='public' layout-offset-in-bits='0' type-id='7c37fd55'/>
        <member-type access='public'>
          <typedef-decl name='size_type' type-id='7a51dc7f' filepath='/usr/include/c++/4.9/bits/allocator.h' line='95' column='1' id='b94f72be'/>
        </member-type>
        <member-type access='public'>
          <typedef-decl name='pointer' type-id='7ee4cd6d' filepath='/usr/include/c++/4.9/bits/allocator.h' line='97' column='1' id='1e61d645'/>
        </member-type>
        <member-type access='public'>
          <typedef-decl name='value_type' type-id='05b7d99d' filepath='/usr/include/c++/4.9/bits/allocator.h' line='101' column='1' id='0ab55a9e'/>
        </member-type>
        <member-type access='public'>
          <class-decl name='rebind&lt;std::_Rb_tree_node&lt;std::pair&lt;const std::basic_string&lt;char, std::char_traits&lt;char&gt;, std::allocator&lt;char&gt; &gt;, std::basic_string&lt;char, std::char_traits&lt;char&gt;, std::allocator&lt;char&gt; &gt; &gt; &gt; &gt;' size-in-bits='8' is-struct='yes' visibility='default' filepath='/usr/include/c++/4.9/bits/allocator.h' line='104' column='1' id='5884c145'>
            <member-type access='public'>
              <typedef-decl name='other' type-id='59a87d47' filepath='/usr/include/c++/4.9/bits/allocator.h' line='105' column='1' id='f36b8890'/>
            </member-type>
          </class-decl>
        </member-type>
        <member-function access='public'>
          <function-decl name='allocator' filepath='/usr/include/c++/4.9/bits/allocator.h' line='113' column='1' visibility='default' binding='global' size-in-bits='64'>
            <parameter type-id='04ce95af' is-artificial='yes'/>
            <return type-id='48b5725f'/>
          </function-decl>
        </member-function>
        <member-function access='public'>
          <function-decl name='allocator' filepath='/usr/include/c++/4.9/bits/allocator.h' line='115' column='1' visibility='default' binding='global' size-in-bits='64'>
            <parameter type-id='04ce95af' is-artificial='yes'/>
            <parameter type-id='d35a5242'/>
            <return type-id='48b5725f'/>
          </function-decl>
        </member-function>
        <member-function access='public' destructor='yes'>
          <function-decl name='~allocator' filepath='/usr/include/c++/4.9/bits/allocator.h' line='121' column='1' visibility='default' binding='global' size-in-bits='64'>
            <parameter type-id='04ce95af' is-artificial='yes'/>
            <parameter type-id='95e97e5e' is-artificial='yes'/>
            <return type-id='48b5725f'/>
          </function-decl>
        </member-function>
      </class-decl>
      <class-decl name='allocator&lt;std::shared_ptr&lt;mongo::optionenvironment::Constraint&gt; &gt;' size-in-bits='8' visibility='default' filepath='/usr/include/c++/4.9/bits/allocator.h' line='92' column='1' id='93bf8a31'>
        <base-class access='public' layout-offset-in-bits='0' type-id='1abfd453'/>
        <member-type access='public'>
          <typedef-decl name='size_type' type-id='7a51dc7f' filepath='/usr/include/c++/4.9/bits/allocator.h' line='95' column='1' id='9f8edb72'/>
        </member-type>
        <member-type access='public'>
          <typedef-decl name='pointer' type-id='62ad46f3' filepath='/usr/include/c++/4.9/bits/allocator.h' line='97' column='1' id='75cf2759'/>
        </member-type>
        <member-type access='public'>
          <typedef-decl name='value_type' type-id='0bfbb723' filepath='/usr/include/c++/4.9/bits/allocator.h' line='101' column='1' id='69910cf2'/>
        </member-type>
        <member-type access='public'>
          <class-decl name='rebind&lt;std::shared_ptr&lt;mongo::optionenvironment::Constraint&gt; &gt;' size-in-bits='8' is-struct='yes' visibility='default' filepath='/usr/include/c++/4.9/bits/allocator.h' line='104' column='1' id='df8ed64d'>
            <member-type access='public'>
              <typedef-decl name='other' type-id='93bf8a31' filepath='/usr/include/c++/4.9/bits/allocator.h' line='105' column='1' id='bedafd7a'/>
            </member-type>
          </class-decl>
        </member-type>
        <member-function access='public'>
          <function-decl name='allocator' filepath='/usr/include/c++/4.9/bits/allocator.h' line='113' column='1' visibility='default' binding='global' size-in-bits='64'>
            <parameter type-id='15933cb9' is-artificial='yes'/>
            <return type-id='48b5725f'/>
          </function-decl>
        </member-function>
        <member-function access='public'>
          <function-decl name='allocator' filepath='/usr/include/c++/4.9/bits/allocator.h' line='115' column='1' visibility='default' binding='global' size-in-bits='64'>
            <parameter type-id='15933cb9' is-artificial='yes'/>
            <parameter type-id='7b47575e'/>
            <return type-id='48b5725f'/>
          </function-decl>
        </member-function>
        <member-function access='public' destructor='yes'>
          <function-decl name='~allocator' filepath='/usr/include/c++/4.9/bits/allocator.h' line='121' column='1' visibility='default' binding='global' size-in-bits='64'>
            <parameter type-id='15933cb9' is-artificial='yes'/>
            <parameter type-id='95e97e5e' is-artificial='yes'/>
            <return type-id='48b5725f'/>
          </function-decl>
        </member-function>
        <member-function access='public' destructor='yes'>
          <function-decl name='~allocator' mangled-name='_ZNSaISt10shared_ptrIN5mongo17optionenvironment10ConstraintEEED2Ev' filepath='/usr/include/c++/4.9/bits/allocator.h' line='121' column='1' visibility='default' binding='global' size-in-bits='64' elf-symbol-id='_ZNSaISt10shared_ptrIN5mongo17optionenvironment10ConstraintEEED2Ev'>
            <parameter type-id='15933cb9' is-artificial='yes'/>
            <parameter type-id='95e97e5e' is-artificial='yes'/>
            <return type-id='48b5725f'/>
          </function-decl>
        </member-function>
      </class-decl>
      <enum-decl name='memory_order' filepath='/usr/include/c++/4.9/bits/atomic_base.h' line='56' column='1' id='2c6d7c89'>
        <underlying-type type-id='9cac1fee'/>
        <enumerator name='memory_order_relaxed' value='0'/>
        <enumerator name='memory_order_consume' value='1'/>
        <enumerator name='memory_order_acquire' value='2'/>
        <enumerator name='memory_order_release' value='3'/>
        <enumerator name='memory_order_acq_rel' value='4'/>
        <enumerator name='memory_order_seq_cst' value='5'/>
      </enum-decl>
      <typedef-decl name='memory_order' type-id='2c6d7c89' filepath='/usr/include/c++/4.9/bits/atomic_base.h' line='64' column='1' id='c72c355d'/>
      <class-decl name='__atomic_base&lt;unsigned int&gt;' size-in-bits='32' is-struct='yes' visibility='default' filepath='/usr/include/c++/4.9/bits/atomic_base.h' line='353' column='1' id='671ca727'>
        <member-type access='private'>
          <typedef-decl name='__int_type' type-id='f0981eeb' filepath='/usr/include/c++/4.9/bits/atomic_base.h' line='356' column='1' id='30f32c26'/>
        </member-type>
        <data-member access='private' layout-offset-in-bits='0'>
          <var-decl name='_M_i' type-id='30f32c26' visibility='default' filepath='/usr/include/c++/4.9/bits/atomic_base.h' line='358' column='1'/>
        </data-member>
        <member-function access='public'>
          <function-decl name='__atomic_base' filepath='/usr/include/c++/4.9/bits/atomic_base.h' line='361' column='1' visibility='default' binding='global' size-in-bits='64'>
            <parameter type-id='380e969f' is-artificial='yes'/>
            <return type-id='48b5725f'/>
          </function-decl>
        </member-function>
        <member-function access='public' destructor='yes'>
          <function-decl name='~__atomic_base' filepath='/usr/include/c++/4.9/bits/atomic_base.h' line='362' column='1' visibility='default' binding='global' size-in-bits='64'>
            <parameter type-id='380e969f' is-artificial='yes'/>
            <parameter type-id='95e97e5e' is-artificial='yes'/>
            <return type-id='48b5725f'/>
          </function-decl>
        </member-function>
        <member-function access='public'>
          <function-decl name='__atomic_base' filepath='/usr/include/c++/4.9/bits/atomic_base.h' line='363' column='1' visibility='default' binding='global' size-in-bits='64'>
            <parameter type-id='380e969f' is-artificial='yes'/>
            <parameter type-id='048143e4'/>
            <return type-id='48b5725f'/>
          </function-decl>
        </member-function>
        <member-function access='public'>
          <function-decl name='__atomic_base' filepath='/usr/include/c++/4.9/bits/atomic_base.h' line='368' column='1' visibility='default' binding='global' size-in-bits='64'>
            <parameter type-id='380e969f' is-artificial='yes'/>
            <parameter type-id='30f32c26'/>
            <return type-id='48b5725f'/>
          </function-decl>
        </member-function>
        <member-function access='public'>
          <function-decl name='fetch_sub' mangled-name='_ZNSt13__atomic_baseIjE9fetch_subEjSt12memory_order' filepath='/usr/include/c++/4.9/bits/atomic_base.h' line='626' column='1' visibility='default' binding='global' size-in-bits='64'>
            <parameter type-id='380e969f' is-artificial='yes'/>
            <parameter type-id='30f32c26'/>
            <parameter type-id='c72c355d'/>
            <return type-id='30f32c26'/>
          </function-decl>
        </member-function>
      </class-decl>
      <class-decl name='basic_string&lt;char, std::char_traits&lt;char&gt;, std::allocator&lt;char&gt; &gt;' size-in-bits='64' visibility='default' filepath='/usr/include/c++/4.9/bits/basic_string.h' line='112' column='1' id='c2931f67'>
        <member-type access='public'>
          <typedef-decl name='allocator_type' type-id='eb166b35' filepath='/usr/include/c++/4.9/bits/basic_string.h' line='120' column='1' id='582e2ec8'/>
        </member-type>
        <member-type access='public'>
          <typedef-decl name='size_type' type-id='ea4606d6' filepath='/usr/include/c++/4.9/bits/basic_string.h' line='121' column='1' id='4ababdf0'/>
        </member-type>
        <member-type access='public'>
          <typedef-decl name='reference' type-id='8fee2199' filepath='/usr/include/c++/4.9/bits/basic_string.h' line='123' column='1' id='1f65a6a3'/>
        </member-type>
        <member-type access='public'>
          <typedef-decl name='const_reference' type-id='000926f5' filepath='/usr/include/c++/4.9/bits/basic_string.h' line='124' column='1' id='856a05f3'/>
        </member-type>
        <member-type access='public'>
          <typedef-decl name='iterator' type-id='60a45a77' filepath='/usr/include/c++/4.9/bits/basic_string.h' line='127' column='1' id='5cf73f8c'/>
        </member-type>
        <member-type access='public'>
          <typedef-decl name='const_iterator' type-id='f9b78d2a' filepath='/usr/include/c++/4.9/bits/basic_string.h' line='129' column='1' id='aa23c7bc'/>
        </member-type>
        <member-type access='public'>
          <typedef-decl name='const_reverse_iterator' type-id='0404b734' filepath='/usr/include/c++/4.9/bits/basic_string.h' line='130' column='1' id='fca5e6cf'/>
        </member-type>
        <member-type access='public'>
          <typedef-decl name='reverse_iterator' type-id='20ab28bd' filepath='/usr/include/c++/4.9/bits/basic_string.h' line='131' column='1' id='cfe1a53f'/>
        </member-type>
        <member-type access='private'>
          <class-decl name='_Rep_base' size-in-bits='192' is-struct='yes' visibility='default' filepath='/usr/include/c++/4.9/bits/basic_string.h' line='148' column='1' id='6c007811'>
            <data-member access='public' layout-offset-in-bits='0'>
              <var-decl name='_M_length' type-id='4ababdf0' visibility='default' filepath='/usr/include/c++/4.9/bits/basic_string.h' line='150' column='1'/>
            </data-member>
            <data-member access='public' layout-offset-in-bits='64'>
              <var-decl name='_M_capacity' type-id='4ababdf0' visibility='default' filepath='/usr/include/c++/4.9/bits/basic_string.h' line='151' column='1'/>
            </data-member>
            <data-member access='public' layout-offset-in-bits='128'>
              <var-decl name='_M_refcount' type-id='e9464a99' visibility='default' filepath='/usr/include/c++/4.9/bits/basic_string.h' line='152' column='1'/>
            </data-member>
          </class-decl>
        </member-type>
        <member-type access='private'>
          <class-decl name='_Rep' size-in-bits='192' is-struct='yes' visibility='default' filepath='/usr/include/c++/4.9/bits/basic_string.h' line='155' column='1' id='34601093'>
            <base-class access='public' layout-offset-in-bits='0' type-id='6c007811'/>
            <data-member access='public' static='yes'>
              <var-decl name='_S_max_size' type-id='b5b164a0' visibility='default' filepath='/usr/include/c++/4.9/bits/basic_string.tcc' line='50' column='1'/>
            </data-member>
            <data-member access='public' static='yes'>
              <var-decl name='_S_terminal' type-id='9b45d938' visibility='default' filepath='/usr/include/c++/4.9/bits/basic_string.tcc' line='55' column='1'/>
            </data-member>
            <data-member access='public' static='yes'>
              <var-decl name='_S_empty_rep_storage' type-id='c99b5ecd' visibility='default' filepath='/usr/include/c++/4.9/bits/basic_string.tcc' line='66' column='1'/>
            </data-member>
          </class-decl>
        </member-type>
        <member-type access='private'>
          <class-decl name='_Alloc_hider' size-in-bits='64' is-struct='yes' visibility='default' filepath='/usr/include/c++/4.9/bits/basic_string.h' line='272' column='1' id='bab0e33c'>
            <base-class access='public' layout-offset-in-bits='0' type-id='eb166b35'/>
            <data-member access='public' layout-offset-in-bits='0'>
              <var-decl name='_M_p' type-id='26a90f95' visibility='default' filepath='/usr/include/c++/4.9/bits/basic_string.h' line='277' column='1'/>
            </data-member>
            <member-function access='public' constructor='yes'>
              <function-decl name='_Alloc_hider' filepath='/usr/include/c++/4.9/bits/basic_string.h' line='274' column='1' visibility='default' binding='global' size-in-bits='64'>
                <parameter type-id='daf943aa' is-artificial='yes'/>
                <parameter type-id='26a90f95'/>
                <parameter type-id='d6d4f37a'/>
                <return type-id='48b5725f'/>
              </function-decl>
            </member-function>
          </class-decl>
        </member-type>
        <data-member access='public' static='yes'>
          <var-decl name='npos' type-id='b5b164a0' visibility='default' filepath='/usr/include/c++/4.9/bits/basic_string.h' line='285' column='1'/>
        </data-member>
        <data-member access='private' layout-offset-in-bits='0'>
          <var-decl name='_M_dataplus' type-id='bab0e33c' visibility='default' filepath='/usr/include/c++/4.9/bits/basic_string.h' line='289' column='1'/>
        </data-member>
        <member-function access='public'>
          <function-decl name='basic_string' filepath='/usr/include/c++/4.9/bits/basic_string.h' line='442' column='1' visibility='default' binding='global' size-in-bits='64'>
            <parameter type-id='16934a6f' is-artificial='yes'/>
            <return type-id='48b5725f'/>
          </function-decl>
        </member-function>
        <member-function access='public'>
          <function-decl name='basic_string' filepath='/usr/include/c++/4.9/bits/basic_string.h' line='453' column='1' visibility='default' binding='global' size-in-bits='64'>
            <parameter type-id='16934a6f' is-artificial='yes'/>
            <parameter type-id='d6d4f37a'/>
            <return type-id='48b5725f'/>
          </function-decl>
        </member-function>
        <member-function access='public'>
          <function-decl name='basic_string' filepath='/usr/include/c++/4.9/bits/basic_string.h' line='460' column='1' visibility='default' binding='global' size-in-bits='64'>
            <parameter type-id='16934a6f' is-artificial='yes'/>
            <parameter type-id='0d8dd23c'/>
            <return type-id='48b5725f'/>
          </function-decl>
        </member-function>
        <member-function access='public'>
          <function-decl name='basic_string' filepath='/usr/include/c++/4.9/bits/basic_string.h' line='467' column='1' visibility='default' binding='global' size-in-bits='64'>
            <parameter type-id='16934a6f' is-artificial='yes'/>
            <parameter type-id='0d8dd23c'/>
            <parameter type-id='4ababdf0'/>
            <parameter type-id='4ababdf0'/>
            <return type-id='48b5725f'/>
          </function-decl>
        </member-function>
        <member-function access='public'>
          <function-decl name='basic_string' filepath='/usr/include/c++/4.9/bits/basic_string.h' line='476' column='1' visibility='default' binding='global' size-in-bits='64'>
            <parameter type-id='16934a6f' is-artificial='yes'/>
            <parameter type-id='0d8dd23c'/>
            <parameter type-id='4ababdf0'/>
            <parameter type-id='4ababdf0'/>
            <parameter type-id='d6d4f37a'/>
            <return type-id='48b5725f'/>
          </function-decl>
        </member-function>
        <member-function access='public'>
          <function-decl name='basic_string' filepath='/usr/include/c++/4.9/bits/basic_string.h' line='488' column='1' visibility='default' binding='global' size-in-bits='64'>
            <parameter type-id='16934a6f' is-artificial='yes'/>
            <parameter type-id='80f4b756'/>
            <parameter type-id='4ababdf0'/>
            <parameter type-id='d6d4f37a'/>
            <return type-id='48b5725f'/>
          </function-decl>
        </member-function>
        <member-function access='public'>
          <function-decl name='basic_string' filepath='/usr/include/c++/4.9/bits/basic_string.h' line='495' column='1' visibility='default' binding='global' size-in-bits='64'>
            <parameter type-id='16934a6f' is-artificial='yes'/>
            <parameter type-id='80f4b756'/>
            <parameter type-id='d6d4f37a'/>
            <return type-id='48b5725f'/>
          </function-decl>
        </member-function>
        <member-function access='public'>
          <function-decl name='basic_string' filepath='/usr/include/c++/4.9/bits/basic_string.h' line='502' column='1' visibility='default' binding='global' size-in-bits='64'>
            <parameter type-id='16934a6f' is-artificial='yes'/>
            <parameter type-id='4ababdf0'/>
            <parameter type-id='a84c031d'/>
            <parameter type-id='d6d4f37a'/>
            <return type-id='48b5725f'/>
          </function-decl>
        </member-function>
        <member-function access='public'>
          <function-decl name='basic_string' filepath='/usr/include/c++/4.9/bits/basic_string.h' line='512' column='1' visibility='default' binding='global' size-in-bits='64'>
            <parameter type-id='16934a6f' is-artificial='yes'/>
            <parameter type-id='72e7e727'/>
            <return type-id='48b5725f'/>
          </function-decl>
        </member-function>
        <member-function access='public'>
          <function-decl name='basic_string' filepath='/usr/include/c++/4.9/bits/basic_string.h' line='530' column='1' visibility='default' binding='global' size-in-bits='64'>
            <parameter type-id='16934a6f' is-artificial='yes'/>
            <parameter type-id='5580186d'/>
            <parameter type-id='d6d4f37a'/>
            <return type-id='48b5725f'/>
          </function-decl>
        </member-function>
        <member-function access='public' destructor='yes'>
          <function-decl name='~basic_string' filepath='/usr/include/c++/4.9/bits/basic_string.h' line='546' column='1' visibility='default' binding='global' size-in-bits='64'>
            <parameter type-id='16934a6f' is-artificial='yes'/>
            <parameter type-id='95e97e5e' is-artificial='yes'/>
            <return type-id='48b5725f'/>
          </function-decl>
        </member-function>
      </class-decl>
      <class-decl name='hash&lt;std::basic_string&lt;char, std::char_traits&lt;char&gt;, std::allocator&lt;char&gt; &gt; &gt;' size-in-bits='8' is-struct='yes' visibility='default' filepath='/usr/include/c++/4.9/bits/basic_string.h' line='3079' column='1' id='20a4a626'>
        <base-class access='public' layout-offset-in-bits='0' type-id='1211061c'/>
      </class-decl>
      <class-decl name='__hash_base&lt;long unsigned int, std::basic_string&lt;char, std::char_traits&lt;char&gt;, std::allocator&lt;char&gt; &gt; &gt;' size-in-bits='8' is-struct='yes' visibility='default' filepath='/usr/include/c++/4.9/bits/functional_hash.h' line='50' column='1' id='1211061c'/>
      <class-decl name='_Hashtable&lt;std::basic_string&lt;char, std::char_traits&lt;char&gt;, std::allocator&lt;char&gt; &gt;, std::pair&lt;const std::basic_string&lt;char, std::char_traits&lt;char&gt;, std::allocator&lt;char&gt; &gt;, mongo::logger::LogDomain&lt;mongo::logger::MessageEventEphemeral&gt;*&gt;, std::allocator&lt;std::pair&lt;const std::basic_string&lt;char, std::char_traits&lt;char&gt;, std::allocator&lt;char&gt; &gt;, mongo::logger::LogDomain&lt;mongo::logger::MessageEventEphemeral&gt;*&gt; &gt;, std::__detail::_Select1st, std::equal_to&lt;std::basic_string&lt;char, std::char_traits&lt;char&gt;, std::allocator&lt;char&gt; &gt; &gt;, std::hash&lt;std::basic_string&lt;char, std::char_traits&lt;char&gt;, std::allocator&lt;char&gt; &gt; &gt;, std::__detail::_Mod_range_hashing, std::__detail::_Default_ranged_hash, std::__detail::_Prime_rehash_policy, std::__detail::_Hashtable_traits&lt;true, false, true&gt; &gt;' size-in-bits='448' visibility='default' filepath='/usr/include/c++/4.9/bits/hashtable.h' line='170' column='1' id='54510924'>
        <base-class access='public' layout-offset-in-bits='0' type-id='f8fcf572'/>
        <base-class access='public' layout-offset-in-bits='0' type-id='1cd8dc81'/>
        <base-class access='public' layout-offset-in-bits='0' type-id='ed6a285f'/>
        <base-class access='public' layout-offset-in-bits='0' type-id='7151ab78'/>
        <base-class access='public' layout-offset-in-bits='0' type-id='e03c27e3'/>
        <base-class access='private' layout-offset-in-bits='0' type-id='f825a5b0'/>
        <member-type access='private'>
          <typedef-decl name='__node_type' type-id='3ae61ff9' filepath='/usr/include/c++/4.9/bits/hashtable.h' line='188' column='1' id='1f40069c'/>
        </member-type>
        <member-type access='public'>
          <typedef-decl name='__hashtable_alloc' type-id='f825a5b0' filepath='/usr/include/c++/4.9/bits/hashtable.h' line='192' column='1' id='50f1047f'/>
        </member-type>
        <member-type access='private'>
          <typedef-decl name='__node_base' type-id='68c773b5' filepath='/usr/include/c++/4.9/bits/hashtable.h' line='198' column='1' id='c3c11301'/>
        </member-type>
        <member-type access='private'>
          <typedef-decl name='__bucket_type' type-id='6bccd5b6' filepath='/usr/include/c++/4.9/bits/hashtable.h' line='199' column='1' id='1d81ccc2'/>
        </member-type>
        <member-type access='public'>
          <typedef-decl name='key_type' type-id='c2931f67' filepath='/usr/include/c++/4.9/bits/hashtable.h' line='202' column='1' id='ca7ccf71'/>
        </member-type>
        <member-type access='public'>
          <typedef-decl name='value_type' type-id='e21d274d' filepath='/usr/include/c++/4.9/bits/hashtable.h' line='203' column='1' id='ab67de67'/>
        </member-type>
        <member-type access='public'>
          <typedef-decl name='allocator_type' type-id='2f965b5f' filepath='/usr/include/c++/4.9/bits/hashtable.h' line='204' column='1' id='c87ae2df'/>
        </member-type>
        <member-type access='public'>
          <typedef-decl name='key_equal' type-id='32496eb6' filepath='/usr/include/c++/4.9/bits/hashtable.h' line='205' column='1' id='be7b0733'/>
        </member-type>
        <member-type access='private'>
          <typedef-decl name='__rehash_state' type-id='761a220b' filepath='/usr/include/c++/4.9/bits/hashtable.h' line='216' column='1' id='968f0aac'/>
        </member-type>
        <member-type access='private'>
          <typedef-decl name='__hash_code' type-id='57218c5d' filepath='/usr/include/c++/4.9/bits/hashtable.h' line='231' column='1' id='b730dbd1'/>
        </member-type>
        <member-type access='public'>
          <typedef-decl name='size_type' type-id='4cf6e78d' filepath='/usr/include/c++/4.9/bits/hashtable.h' line='302' column='1' id='161f4701'/>
        </member-type>
        <member-type access='public'>
          <typedef-decl name='iterator' type-id='8dd5ce23' filepath='/usr/include/c++/4.9/bits/hashtable.h' line='305' column='1' id='5de5e4ff'/>
        </member-type>
        <member-type access='public'>
          <typedef-decl name='const_iterator' type-id='df2a1a7f' filepath='/usr/include/c++/4.9/bits/hashtable.h' line='306' column='1' id='fe51ccdb'/>
        </member-type>
        <member-type access='public'>
          <typedef-decl name='local_iterator' type-id='92983c13' filepath='/usr/include/c++/4.9/bits/hashtable.h' line='308' column='1' id='c2a6d68f'/>
        </member-type>
        <member-type access='public'>
          <typedef-decl name='const_local_iterator' type-id='111d600f' filepath='/usr/include/c++/4.9/bits/hashtable.h' line='310' column='1' id='bab9dbcb'/>
        </member-type>
        <data-member access='private' layout-offset-in-bits='0'>
          <var-decl name='_M_buckets' type-id='da8b7615' visibility='default' filepath='/usr/include/c++/4.9/bits/hashtable.h' line='313' column='1'/>
        </data-member>
        <data-member access='private' layout-offset-in-bits='64'>
          <var-decl name='_M_bucket_count' type-id='161f4701' visibility='default' filepath='/usr/include/c++/4.9/bits/hashtable.h' line='314' column='1'/>
        </data-member>
        <data-member access='private' layout-offset-in-bits='128'>
          <var-decl name='_M_before_begin' type-id='c3c11301' visibility='default' filepath='/usr/include/c++/4.9/bits/hashtable.h' line='315' column='1'/>
        </data-member>
        <data-member access='private' layout-offset-in-bits='192'>
          <var-decl name='_M_element_count' type-id='161f4701' visibility='default' filepath='/usr/include/c++/4.9/bits/hashtable.h' line='316' column='1'/>
        </data-member>
        <data-member access='private' layout-offset-in-bits='256'>
          <var-decl name='_M_rehash_policy' type-id='209bdce6' visibility='default' filepath='/usr/include/c++/4.9/bits/hashtable.h' line='317' column='1'/>
        </data-member>
        <data-member access='private' layout-offset-in-bits='384'>
          <var-decl name='_M_single_bucket' type-id='1d81ccc2' visibility='default' filepath='/usr/include/c++/4.9/bits/hashtable.h' line='325' column='1'/>
        </data-member>
        <member-function access='public'>
          <function-decl name='_Hashtable' filepath='/usr/include/c++/4.9/bits/hashtable.h' line='788' column='1' visibility='default' binding='global' size-in-bits='64'>
            <parameter type-id='d3779fd2' is-artificial='yes'/>
            <parameter type-id='161f4701'/>
            <parameter type-id='d2f61d57'/>
            <parameter type-id='4546e702'/>
            <parameter type-id='b22c937f'/>
            <parameter type-id='baa42bef'/>
            <parameter type-id='ec31d8e5'/>
            <parameter type-id='89042bcb'/>
            <return type-id='48b5725f'/>
          </function-decl>
        </member-function>
        <member-function access='public'>
          <function-decl name='_Hashtable' filepath='/usr/include/c++/4.9/bits/hashtable.h' line='1096' column='1' visibility='default' binding='global' size-in-bits='64'>
            <parameter type-id='d3779fd2' is-artificial='yes'/>
            <parameter type-id='797e1269'/>
            <return type-id='48b5725f'/>
          </function-decl>
        </member-function>
        <member-function access='public'>
          <function-decl name='_Hashtable' filepath='/usr/include/c++/4.9/bits/hashtable.h' line='1118' column='1' visibility='default' binding='global' size-in-bits='64'>
            <parameter type-id='d3779fd2' is-artificial='yes'/>
            <parameter type-id='695aaa28'/>
            <return type-id='48b5725f'/>
          </function-decl>
        </member-function>
        <member-function access='public'>
          <function-decl name='_Hashtable' filepath='/usr/include/c++/4.9/bits/hashtable.h' line='1150' column='1' visibility='default' binding='global' size-in-bits='64'>
            <parameter type-id='d3779fd2' is-artificial='yes'/>
            <parameter type-id='797e1269'/>
            <parameter type-id='89042bcb'/>
            <return type-id='48b5725f'/>
          </function-decl>
        </member-function>
        <member-function access='public'>
          <function-decl name='_Hashtable' filepath='/usr/include/c++/4.9/bits/hashtable.h' line='1171' column='1' visibility='default' binding='global' size-in-bits='64'>
            <parameter type-id='d3779fd2' is-artificial='yes'/>
            <parameter type-id='695aaa28'/>
            <parameter type-id='89042bcb'/>
            <return type-id='48b5725f'/>
          </function-decl>
        </member-function>
        <member-function access='public'>
          <function-decl name='_Hashtable' filepath='/usr/include/c++/4.9/bits/hashtable.h' line='409' column='1' visibility='default' binding='global' size-in-bits='64'>
            <parameter type-id='d3779fd2' is-artificial='yes'/>
            <parameter type-id='89042bcb'/>
            <return type-id='48b5725f'/>
          </function-decl>
        </member-function>
        <member-function access='public'>
          <function-decl name='_Hashtable' filepath='/usr/include/c++/4.9/bits/hashtable.h' line='415' column='1' visibility='default' binding='global' size-in-bits='64'>
            <parameter type-id='d3779fd2' is-artificial='yes'/>
            <parameter type-id='161f4701'/>
            <parameter type-id='d2f61d57'/>
            <parameter type-id='9384e9ff'/>
            <parameter type-id='89042bcb'/>
            <return type-id='48b5725f'/>
          </function-decl>
        </member-function>
        <member-function access='public'>
          <function-decl name='_Hashtable' filepath='/usr/include/c++/4.9/bits/hashtable.h' line='433' column='1' visibility='default' binding='global' size-in-bits='64'>
            <parameter type-id='d3779fd2' is-artificial='yes'/>
            <parameter type-id='5d1fd297'/>
            <parameter type-id='161f4701'/>
            <parameter type-id='d2f61d57'/>
            <parameter type-id='9384e9ff'/>
            <parameter type-id='89042bcb'/>
            <return type-id='48b5725f'/>
          </function-decl>
        </member-function>
        <member-function access='public' destructor='yes'>
          <function-decl name='~_Hashtable' filepath='/usr/include/c++/4.9/bits/hashtable.h' line='1216' column='1' visibility='default' binding='global' size-in-bits='64'>
            <parameter type-id='d3779fd2' is-artificial='yes'/>
            <parameter type-id='95e97e5e' is-artificial='yes'/>
            <return type-id='48b5725f'/>
          </function-decl>
        </member-function>
      </class-decl>
      <enum-decl name='_Ios_Fmtflags' filepath='/usr/include/c++/4.9/bits/ios_base.h' line='51' column='1' id='deb7653e'>
        <underlying-type type-id='9cac1fee'/>
        <enumerator name='_S_boolalpha' value='1'/>
        <enumerator name='_S_dec' value='2'/>
        <enumerator name='_S_fixed' value='4'/>
        <enumerator name='_S_hex' value='8'/>
        <enumerator name='_S_internal' value='16'/>
        <enumerator name='_S_left' value='32'/>
        <enumerator name='_S_oct' value='64'/>
        <enumerator name='_S_right' value='128'/>
        <enumerator name='_S_scientific' value='256'/>
        <enumerator name='_S_showbase' value='512'/>
        <enumerator name='_S_showpoint' value='1024'/>
        <enumerator name='_S_showpos' value='2048'/>
        <enumerator name='_S_skipws' value='4096'/>
        <enumerator name='_S_unitbuf' value='8192'/>
        <enumerator name='_S_uppercase' value='16384'/>
        <enumerator name='_S_adjustfield' value='176'/>
        <enumerator name='_S_basefield' value='74'/>
        <enumerator name='_S_floatfield' value='260'/>
        <enumerator name='_S_ios_fmtflags_end' value='65536'/>
      </enum-decl>
      <enum-decl name='_Ios_Openmode' filepath='/usr/include/c++/4.9/bits/ios_base.h' line='103' column='1' id='be001bcf'>
        <underlying-type type-id='9cac1fee'/>
        <enumerator name='_S_app' value='1'/>
        <enumerator name='_S_ate' value='2'/>
        <enumerator name='_S_bin' value='4'/>
        <enumerator name='_S_in' value='8'/>
        <enumerator name='_S_out' value='16'/>
        <enumerator name='_S_trunc' value='32'/>
        <enumerator name='_S_ios_openmode_end' value='65536'/>
      </enum-decl>
      <enum-decl name='_Ios_Iostate' filepath='/usr/include/c++/4.9/bits/ios_base.h' line='143' column='1' id='3eae72a5'>
        <underlying-type type-id='9cac1fee'/>
        <enumerator name='_S_goodbit' value='0'/>
        <enumerator name='_S_badbit' value='1'/>
        <enumerator name='_S_eofbit' value='2'/>
        <enumerator name='_S_failbit' value='4'/>
        <enumerator name='_S_ios_iostate_end' value='65536'/>
      </enum-decl>
      <enum-decl name='_Ios_Seekdir' filepath='/usr/include/c++/4.9/bits/ios_base.h' line='181' column='1' id='3c72183b'>
        <underlying-type type-id='9cac1fee'/>
        <enumerator name='_S_beg' value='0'/>
        <enumerator name='_S_cur' value='1'/>
        <enumerator name='_S_end' value='2'/>
        <enumerator name='_S_ios_seekdir_end' value='65536'/>
      </enum-decl>
      <class-decl name='__ptrtr_not_void&lt;boost::shared_ptr&lt;boost::program_options::option_description&gt;, boost::shared_ptr&lt;boost::program_options::option_description&gt; &gt;' size-in-bits='8' is-struct='yes' visibility='default' filepath='/usr/include/c++/4.9/bits/ptr_traits.h' line='105' column='1' id='42ad5663'>
        <member-type access='public'>
          <typedef-decl name='__type' type-id='9dfdad4e' filepath='/usr/include/c++/4.9/bits/ptr_traits.h' line='107' column='1' id='6b9d5730'/>
        </member-type>
      </class-decl>
      <class-decl name='__ptrtr_not_void&lt;boost::shared_ptr&lt;boost::program_options::options_description&gt;, boost::shared_ptr&lt;boost::program_options::options_description&gt; &gt;' size-in-bits='8' is-struct='yes' visibility='default' filepath='/usr/include/c++/4.9/bits/ptr_traits.h' line='105' column='1' id='784d67dd'>
        <member-type access='public'>
          <typedef-decl name='__type' type-id='f4d787bb' filepath='/usr/include/c++/4.9/bits/ptr_traits.h' line='107' column='1' id='6359e17a'/>
        </member-type>
      </class-decl>
      <class-decl name='__ptrtr_not_void&lt;mongo::logger::Appender&lt;mongo::logger::MessageEventEphemeral&gt;*, mongo::logger::Appender&lt;mongo::logger::MessageEventEphemeral&gt;*&gt;' size-in-bits='8' is-struct='yes' visibility='default' filepath='/usr/include/c++/4.9/bits/ptr_traits.h' line='105' column='1' id='1929b22b'>
        <member-type access='public'>
          <typedef-decl name='__type' type-id='175bd7a0' filepath='/usr/include/c++/4.9/bits/ptr_traits.h' line='107' column='1' id='af956092'/>
        </member-type>
      </class-decl>
      <class-decl name='__ptrtr_not_void&lt;mongo::optionenvironment::Constraint*, mongo::optionenvironment::Constraint*&gt;' size-in-bits='8' is-struct='yes' visibility='default' filepath='/usr/include/c++/4.9/bits/ptr_traits.h' line='105' column='1' id='1988a539'>
        <member-type access='public'>
          <typedef-decl name='__type' type-id='8d3ed60a' filepath='/usr/include/c++/4.9/bits/ptr_traits.h' line='107' column='1' id='6b861cd4'/>
        </member-type>
      </class-decl>
      <class-decl name='__ptrtr_not_void&lt;mongo::optionenvironment::KeyConstraint*, mongo::optionenvironment::KeyConstraint*&gt;' size-in-bits='8' is-struct='yes' visibility='default' filepath='/usr/include/c++/4.9/bits/ptr_traits.h' line='105' column='1' id='5eaae673'>
        <member-type access='public'>
          <typedef-decl name='__type' type-id='a8755305' filepath='/usr/include/c++/4.9/bits/ptr_traits.h' line='107' column='1' id='5f630eaa'/>
        </member-type>
      </class-decl>
      <class-decl name='__ptrtr_not_void&lt;std::_Rb_tree_node&lt;std::pair&lt;const std::basic_string&lt;char, std::char_traits&lt;char&gt;, std::allocator&lt;char&gt; &gt;, std::basic_string&lt;char, std::char_traits&lt;char&gt;, std::allocator&lt;char&gt; &gt; &gt; &gt;, std::_Rb_tree_node&lt;std::pair&lt;const std::basic_string&lt;char, std::char_traits&lt;char&gt;, std::allocator&lt;char&gt; &gt;, std::basic_string&lt;char, std::char_traits&lt;char&gt;, std::allocator&lt;char&gt; &gt; &gt; &gt; &gt;' size-in-bits='8' is-struct='yes' visibility='default' filepath='/usr/include/c++/4.9/bits/ptr_traits.h' line='105' column='1' id='1f3a7a61'>
        <member-type access='public'>
          <typedef-decl name='__type' type-id='ef463c95' filepath='/usr/include/c++/4.9/bits/ptr_traits.h' line='107' column='1' id='77e66f8a'/>
        </member-type>
      </class-decl>
      <class-decl name='__ptrtr_not_void&lt;std::basic_string&lt;char, std::char_traits&lt;char&gt;, std::allocator&lt;char&gt; &gt;, std::basic_string&lt;char, std::char_traits&lt;char&gt;, std::allocator&lt;char&gt; &gt; &gt;' size-in-bits='8' is-struct='yes' visibility='default' filepath='/usr/include/c++/4.9/bits/ptr_traits.h' line='105' column='1' id='2acd7cd1'>
        <member-type access='public'>
          <typedef-decl name='__type' type-id='c2931f67' filepath='/usr/include/c++/4.9/bits/ptr_traits.h' line='107' column='1' id='862144ae'/>
        </member-type>
      </class-decl>
      <class-decl name='__ptrtr_not_void&lt;std::pair&lt;const std::basic_string&lt;char, std::char_traits&lt;char&gt;, std::allocator&lt;char&gt; &gt;, mongo::ServerParameter*&gt;, std::pair&lt;const std::basic_string&lt;char, std::char_traits&lt;char&gt;, std::allocator&lt;char&gt; &gt;, mongo::ServerParameter*&gt; &gt;' size-in-bits='8' is-struct='yes' visibility='default' filepath='/usr/include/c++/4.9/bits/ptr_traits.h' line='105' column='1' id='0b6aaf29'>
        <member-type access='public'>
          <typedef-decl name='__type' type-id='70c6ed63' filepath='/usr/include/c++/4.9/bits/ptr_traits.h' line='107' column='1' id='bb3a9216'/>
        </member-type>
      </class-decl>
      <class-decl name='__ptrtr_not_void&lt;std::pair&lt;const std::basic_string&lt;char, std::char_traits&lt;char&gt;, std::allocator&lt;char&gt; &gt;, mongo::optionenvironment::Value&gt;, std::pair&lt;const std::basic_string&lt;char, std::char_traits&lt;char&gt;, std::allocator&lt;char&gt; &gt;, mongo::optionenvironment::Value&gt; &gt;' size-in-bits='8' is-struct='yes' visibility='default' filepath='/usr/include/c++/4.9/bits/ptr_traits.h' line='105' column='1' id='8ad94589'>
        <member-type access='public'>
          <typedef-decl name='__type' type-id='cb3bf8e2' filepath='/usr/include/c++/4.9/bits/ptr_traits.h' line='107' column='1' id='8d352a4e'/>
        </member-type>
      </class-decl>
      <class-decl name='__ptrtr_not_void&lt;std::pair&lt;const std::basic_string&lt;char, std::char_traits&lt;char&gt;, std::allocator&lt;char&gt; &gt;, std::basic_string&lt;char, std::char_traits&lt;char&gt;, std::allocator&lt;char&gt; &gt; &gt;, std::pair&lt;const std::basic_string&lt;char, std::char_traits&lt;char&gt;, std::allocator&lt;char&gt; &gt;, std::basic_string&lt;char, std::char_traits&lt;char&gt;, std::allocator&lt;char&gt; &gt; &gt; &gt;' size-in-bits='8' is-struct='yes' visibility='default' filepath='/usr/include/c++/4.9/bits/ptr_traits.h' line='105' column='1' id='b34082a9'>
        <member-type access='public'>
          <typedef-decl name='__type' type-id='05b7d99d' filepath='/usr/include/c++/4.9/bits/ptr_traits.h' line='107' column='1' id='407a18d6'/>
        </member-type>
      </class-decl>
      <class-decl name='__ptrtr_not_void&lt;std::shared_ptr&lt;mongo::optionenvironment::Constraint&gt;, std::shared_ptr&lt;mongo::optionenvironment::Constraint&gt; &gt;' size-in-bits='8' is-struct='yes' visibility='default' filepath='/usr/include/c++/4.9/bits/ptr_traits.h' line='105' column='1' id='ca17a5fd'>
        <member-type access='public'>
          <typedef-decl name='__type' type-id='0bfbb723' filepath='/usr/include/c++/4.9/bits/ptr_traits.h' line='107' column='1' id='0a646536'/>
        </member-type>
      </class-decl>
      <class-decl name='pointer_traits&lt;boost::shared_ptr&lt;boost::program_options::option_description&gt;*&gt;' size-in-bits='8' is-struct='yes' visibility='default' filepath='/usr/include/c++/4.9/bits/ptr_traits.h' line='150' column='1' id='7b970d14'>
        <member-type access='public'>
          <typedef-decl name='pointer' type-id='5b1b61b4' filepath='/usr/include/c++/4.9/bits/ptr_traits.h' line='153' column='1' id='41b9f878'/>
        </member-type>
        <member-type access='public'>
          <typedef-decl name='difference_type' type-id='d368b855' filepath='/usr/include/c++/4.9/bits/ptr_traits.h' line='157' column='1' id='d25d73e1'/>
        </member-type>
        <member-type access='public'>
          <typedef-decl name='rebind' type-id='eaa32e2f' filepath='/usr/include/c++/4.9/bits/ptr_traits.h' line='160' column='1' id='bd991521'/>
        </member-type>
      </class-decl>
      <class-decl name='pointer_traits&lt;boost::shared_ptr&lt;boost::program_options::options_description&gt;*&gt;' size-in-bits='8' is-struct='yes' visibility='default' filepath='/usr/include/c++/4.9/bits/ptr_traits.h' line='150' column='1' id='171fdf5d'>
        <member-type access='public'>
          <typedef-decl name='pointer' type-id='dae7bd7b' filepath='/usr/include/c++/4.9/bits/ptr_traits.h' line='153' column='1' id='df3e66d5'/>
        </member-type>
        <member-type access='public'>
          <typedef-decl name='difference_type' type-id='d368b855' filepath='/usr/include/c++/4.9/bits/ptr_traits.h' line='157' column='1' id='5b4a3d60'/>
        </member-type>
        <member-type access='public'>
          <typedef-decl name='rebind' type-id='eaa32e2f' filepath='/usr/include/c++/4.9/bits/ptr_traits.h' line='160' column='1' id='40188396'/>
        </member-type>
      </class-decl>
      <class-decl name='pointer_traits&lt;mongo::logger::Appender&lt;mongo::logger::MessageEventEphemeral&gt;**&gt;' size-in-bits='8' is-struct='yes' visibility='default' filepath='/usr/include/c++/4.9/bits/ptr_traits.h' line='150' column='1' id='bf51b226'>
        <member-type access='public'>
          <typedef-decl name='pointer' type-id='4f944e3e' filepath='/usr/include/c++/4.9/bits/ptr_traits.h' line='153' column='1' id='c78ebe98'/>
        </member-type>
        <member-type access='public'>
          <typedef-decl name='difference_type' type-id='d368b855' filepath='/usr/include/c++/4.9/bits/ptr_traits.h' line='157' column='1' id='d6969b41'/>
        </member-type>
        <member-type access='public'>
          <typedef-decl name='rebind' type-id='eaa32e2f' filepath='/usr/include/c++/4.9/bits/ptr_traits.h' line='160' column='1' id='6001c4c1'/>
        </member-type>
      </class-decl>
      <class-decl name='pointer_traits&lt;mongo::optionenvironment::Constraint**&gt;' size-in-bits='8' is-struct='yes' visibility='default' filepath='/usr/include/c++/4.9/bits/ptr_traits.h' line='150' column='1' id='02c8250c'>
        <member-type access='public'>
          <typedef-decl name='pointer' type-id='79eb1460' filepath='/usr/include/c++/4.9/bits/ptr_traits.h' line='153' column='1' id='116047e4'/>
        </member-type>
        <member-type access='public'>
          <typedef-decl name='difference_type' type-id='d368b855' filepath='/usr/include/c++/4.9/bits/ptr_traits.h' line='157' column='1' id='597f811d'/>
        </member-type>
        <member-type access='public'>
          <typedef-decl name='rebind' type-id='eaa32e2f' filepath='/usr/include/c++/4.9/bits/ptr_traits.h' line='160' column='1' id='90e3736d'/>
        </member-type>
      </class-decl>
      <class-decl name='pointer_traits&lt;mongo::optionenvironment::KeyConstraint**&gt;' size-in-bits='8' is-struct='yes' visibility='default' filepath='/usr/include/c++/4.9/bits/ptr_traits.h' line='150' column='1' id='3f09a5bb'>
        <member-type access='public'>
          <typedef-decl name='pointer' type-id='5fb1f2fd' filepath='/usr/include/c++/4.9/bits/ptr_traits.h' line='153' column='1' id='868a6acb'/>
        </member-type>
        <member-type access='public'>
          <typedef-decl name='difference_type' type-id='d368b855' filepath='/usr/include/c++/4.9/bits/ptr_traits.h' line='157' column='1' id='6d2f571a'/>
        </member-type>
        <member-type access='public'>
          <typedef-decl name='rebind' type-id='eaa32e2f' filepath='/usr/include/c++/4.9/bits/ptr_traits.h' line='160' column='1' id='e5414fd0'/>
        </member-type>
      </class-decl>
      <class-decl name='pointer_traits&lt;std::_Rb_tree_node&lt;std::pair&lt;const std::basic_string&lt;char, std::char_traits&lt;char&gt;, std::allocator&lt;char&gt; &gt;, std::basic_string&lt;char, std::char_traits&lt;char&gt;, std::allocator&lt;char&gt; &gt; &gt; &gt;*&gt;' size-in-bits='8' is-struct='yes' visibility='default' filepath='/usr/include/c++/4.9/bits/ptr_traits.h' line='150' column='1' id='76497b3f'>
        <member-type access='public'>
          <typedef-decl name='pointer' type-id='317b9045' filepath='/usr/include/c++/4.9/bits/ptr_traits.h' line='153' column='1' id='d103e29d'/>
        </member-type>
        <member-type access='public'>
          <typedef-decl name='difference_type' type-id='d368b855' filepath='/usr/include/c++/4.9/bits/ptr_traits.h' line='157' column='1' id='2e69e4d8'/>
        </member-type>
        <member-type access='public'>
          <typedef-decl name='rebind' type-id='eaa32e2f' filepath='/usr/include/c++/4.9/bits/ptr_traits.h' line='160' column='1' id='c03b0cfe'/>
        </member-type>
      </class-decl>
      <class-decl name='pointer_traits&lt;std::basic_string&lt;char, std::char_traits&lt;char&gt;, std::allocator&lt;char&gt; &gt;*&gt;' size-in-bits='8' is-struct='yes' visibility='default' filepath='/usr/include/c++/4.9/bits/ptr_traits.h' line='150' column='1' id='a1f2cffd'>
        <member-type access='public'>
          <typedef-decl name='pointer' type-id='16934a6f' filepath='/usr/include/c++/4.9/bits/ptr_traits.h' line='153' column='1' id='40897d01'/>
        </member-type>
        <member-type access='public'>
          <typedef-decl name='difference_type' type-id='d368b855' filepath='/usr/include/c++/4.9/bits/ptr_traits.h' line='157' column='1' id='f8630e2c'/>
        </member-type>
        <member-type access='public'>
          <typedef-decl name='rebind' type-id='eaa32e2f' filepath='/usr/include/c++/4.9/bits/ptr_traits.h' line='160' column='1' id='ead93da2'/>
        </member-type>
      </class-decl>
      <class-decl name='pointer_traits&lt;std::pair&lt;const std::basic_string&lt;char, std::char_traits&lt;char&gt;, std::allocator&lt;char&gt; &gt;, mongo::ServerParameter*&gt;*&gt;' size-in-bits='8' is-struct='yes' visibility='default' filepath='/usr/include/c++/4.9/bits/ptr_traits.h' line='150' column='1' id='276491a9'>
        <member-type access='public'>
          <typedef-decl name='pointer' type-id='91026be3' filepath='/usr/include/c++/4.9/bits/ptr_traits.h' line='153' column='1' id='129cdf29'/>
        </member-type>
        <member-type access='public'>
          <typedef-decl name='difference_type' type-id='d368b855' filepath='/usr/include/c++/4.9/bits/ptr_traits.h' line='157' column='1' id='bc0d1a24'/>
        </member-type>
        <member-type access='public'>
          <typedef-decl name='rebind' type-id='eaa32e2f' filepath='/usr/include/c++/4.9/bits/ptr_traits.h' line='160' column='1' id='190acf4a'/>
        </member-type>
      </class-decl>
      <class-decl name='pointer_traits&lt;std::pair&lt;const std::basic_string&lt;char, std::char_traits&lt;char&gt;, std::allocator&lt;char&gt; &gt;, mongo::optionenvironment::Value&gt;*&gt;' size-in-bits='8' is-struct='yes' visibility='default' filepath='/usr/include/c++/4.9/bits/ptr_traits.h' line='150' column='1' id='fc578bb8'>
        <member-type access='public'>
          <typedef-decl name='pointer' type-id='bace9d40' filepath='/usr/include/c++/4.9/bits/ptr_traits.h' line='153' column='1' id='240517f6'/>
        </member-type>
        <member-type access='public'>
          <typedef-decl name='difference_type' type-id='d368b855' filepath='/usr/include/c++/4.9/bits/ptr_traits.h' line='157' column='1' id='1e0a19bb'/>
        </member-type>
        <member-type access='public'>
          <typedef-decl name='rebind' type-id='eaa32e2f' filepath='/usr/include/c++/4.9/bits/ptr_traits.h' line='160' column='1' id='9c62a023'/>
        </member-type>
      </class-decl>
      <class-decl name='pointer_traits&lt;std::pair&lt;const std::basic_string&lt;char, std::char_traits&lt;char&gt;, std::allocator&lt;char&gt; &gt;, std::basic_string&lt;char, std::char_traits&lt;char&gt;, std::allocator&lt;char&gt; &gt; &gt;*&gt;' size-in-bits='8' is-struct='yes' visibility='default' filepath='/usr/include/c++/4.9/bits/ptr_traits.h' line='150' column='1' id='0eb1d7cb'>
        <member-type access='public'>
          <typedef-decl name='pointer' type-id='7ee4cd6d' filepath='/usr/include/c++/4.9/bits/ptr_traits.h' line='153' column='1' id='8a036037'/>
        </member-type>
        <member-type access='public'>
          <typedef-decl name='difference_type' type-id='d368b855' filepath='/usr/include/c++/4.9/bits/ptr_traits.h' line='157' column='1' id='10ff0536'/>
        </member-type>
        <member-type access='public'>
          <typedef-decl name='rebind' type-id='eaa32e2f' filepath='/usr/include/c++/4.9/bits/ptr_traits.h' line='160' column='1' id='d11a814c'/>
        </member-type>
      </class-decl>
      <class-decl name='pointer_traits&lt;std::shared_ptr&lt;mongo::optionenvironment::Constraint&gt;*&gt;' size-in-bits='8' is-struct='yes' visibility='default' filepath='/usr/include/c++/4.9/bits/ptr_traits.h' line='150' column='1' id='702814a5'>
        <member-type access='public'>
          <typedef-decl name='pointer' type-id='62ad46f3' filepath='/usr/include/c++/4.9/bits/ptr_traits.h' line='153' column='1' id='a147707b'/>
        </member-type>
        <member-type access='public'>
          <typedef-decl name='difference_type' type-id='d368b855' filepath='/usr/include/c++/4.9/bits/ptr_traits.h' line='157' column='1' id='82c2f74a'/>
        </member-type>
        <member-type access='public'>
          <typedef-decl name='rebind' type-id='eaa32e2f' filepath='/usr/include/c++/4.9/bits/ptr_traits.h' line='160' column='1' id='a04bd160'/>
        </member-type>
      </class-decl>
      <class-decl name='mersenne_twister_engine&lt;long unsigned int, 32ul, 624ul, 397ul, 31ul, 2567483615ul, 11ul, 4294967295ul, 7ul, 2636928640ul, 15ul, 4022730752ul, 18ul, 1812433253ul&gt;' size-in-bits='40000' visibility='default' filepath='/usr/include/c++/4.9/bits/random.h' line='451' column='1' id='16e7d704'>
        <member-type access='public'>
          <typedef-decl name='result_type' type-id='7359adad' filepath='/usr/include/c++/4.9/bits/random.h' line='482' column='1' id='850fea19'/>
        </member-type>
        <data-member access='public' static='yes'>
          <var-decl name='word_size' type-id='ce1751af' visibility='default' filepath='/usr/include/c++/4.9/bits/random.h' line='485' column='1'/>
        </data-member>
        <data-member access='public' static='yes'>
          <var-decl name='state_size' type-id='ce1751af' mangled-name='_ZNSt23mersenne_twister_engineImLm32ELm624ELm397ELm31ELm2567483615ELm11ELm4294967295ELm7ELm2636928640ELm15ELm4022730752ELm18ELm1812433253EE10state_sizeE' visibility='default' filepath='/usr/include/c++/4.9/bits/random.h' line='486' column='1'/>
        </data-member>
        <data-member access='public' static='yes'>
          <var-decl name='shift_size' type-id='ce1751af' visibility='default' filepath='/usr/include/c++/4.9/bits/random.h' line='487' column='1'/>
        </data-member>
        <data-member access='public' static='yes'>
          <var-decl name='mask_bits' type-id='ce1751af' visibility='default' filepath='/usr/include/c++/4.9/bits/random.h' line='488' column='1'/>
        </data-member>
        <data-member access='public' static='yes'>
          <var-decl name='xor_mask' type-id='66b0a789' visibility='default' filepath='/usr/include/c++/4.9/bits/random.h' line='489' column='1'/>
        </data-member>
        <data-member access='public' static='yes'>
          <var-decl name='tempering_u' type-id='ce1751af' visibility='default' filepath='/usr/include/c++/4.9/bits/random.h' line='490' column='1'/>
        </data-member>
        <data-member access='public' static='yes'>
          <var-decl name='tempering_d' type-id='66b0a789' visibility='default' filepath='/usr/include/c++/4.9/bits/random.h' line='491' column='1'/>
        </data-member>
        <data-member access='public' static='yes'>
          <var-decl name='tempering_s' type-id='ce1751af' visibility='default' filepath='/usr/include/c++/4.9/bits/random.h' line='492' column='1'/>
        </data-member>
        <data-member access='public' static='yes'>
          <var-decl name='tempering_b' type-id='66b0a789' visibility='default' filepath='/usr/include/c++/4.9/bits/random.h' line='493' column='1'/>
        </data-member>
        <data-member access='public' static='yes'>
          <var-decl name='tempering_t' type-id='ce1751af' visibility='default' filepath='/usr/include/c++/4.9/bits/random.h' line='494' column='1'/>
        </data-member>
        <data-member access='public' static='yes'>
          <var-decl name='tempering_c' type-id='66b0a789' visibility='default' filepath='/usr/include/c++/4.9/bits/random.h' line='495' column='1'/>
        </data-member>
        <data-member access='public' static='yes'>
          <var-decl name='tempering_l' type-id='ce1751af' visibility='default' filepath='/usr/include/c++/4.9/bits/random.h' line='496' column='1'/>
        </data-member>
        <data-member access='public' static='yes'>
          <var-decl name='initialization_multiplier' type-id='66b0a789' visibility='default' filepath='/usr/include/c++/4.9/bits/random.h' line='497' column='1'/>
        </data-member>
        <data-member access='public' static='yes'>
          <var-decl name='default_seed' type-id='66b0a789' visibility='default' filepath='/usr/include/c++/4.9/bits/random.h' line='498' column='1'/>
        </data-member>
        <data-member access='private' layout-offset-in-bits='0'>
          <var-decl name='_M_x' type-id='75c76965' visibility='default' filepath='/usr/include/c++/4.9/bits/random.h' line='621' column='1'/>
        </data-member>
        <data-member access='private' layout-offset-in-bits='39936'>
          <var-decl name='_M_p' type-id='7a51dc7f' visibility='default' filepath='/usr/include/c++/4.9/bits/random.h' line='622' column='1'/>
        </data-member>
        <member-function access='public'>
          <function-decl name='mersenne_twister_engine' filepath='/usr/include/c++/4.9/bits/random.h' line='502' column='1' visibility='default' binding='global' size-in-bits='64'>
            <parameter type-id='c651db02' is-artificial='yes'/>
            <parameter type-id='850fea19'/>
            <return type-id='48b5725f'/>
          </function-decl>
        </member-function>
      </class-decl>
      <class-decl name='shared_ptr&lt;mongo::optionenvironment::Constraint&gt;' size-in-bits='128' visibility='default' filepath='/usr/include/c++/4.9/bits/shared_ptr.h' line='93' column='1' id='0bfbb723'>
        <base-class access='public' layout-offset-in-bits='0' type-id='5a9e6648'/>
        <member-function access='public'>
          <function-decl name='shared_ptr' filepath='/usr/include/c++/4.9/bits/shared_ptr.h' line='100' column='1' visibility='default' binding='global' size-in-bits='64'>
            <parameter type-id='62ad46f3' is-artificial='yes'/>
            <return type-id='48b5725f'/>
          </function-decl>
        </member-function>
        <member-function access='public'>
          <function-decl name='shared_ptr' filepath='/usr/include/c++/4.9/bits/shared_ptr.h' line='103' column='1' visibility='default' binding='global' size-in-bits='64'>
            <parameter type-id='62ad46f3' is-artificial='yes'/>
            <parameter type-id='dfaa2a3a'/>
            <return type-id='48b5725f'/>
          </function-decl>
        </member-function>
        <member-function access='public'>
          <function-decl name='shared_ptr' filepath='/usr/include/c++/4.9/bits/shared_ptr.h' line='226' column='1' visibility='default' binding='global' size-in-bits='64'>
            <parameter type-id='62ad46f3' is-artificial='yes'/>
            <parameter type-id='2be49663'/>
            <return type-id='48b5725f'/>
          </function-decl>
        </member-function>
        <member-function access='private'>
          <function-decl name='shared_ptr' filepath='/usr/include/c++/4.9/bits/shared_ptr.h' line='324' column='1' visibility='default' binding='global' size-in-bits='64'>
            <parameter type-id='62ad46f3' is-artificial='yes'/>
            <parameter type-id='3051ee9d'/>
            <parameter type-id='e2b67d34'/>
            <return type-id='48b5725f'/>
          </function-decl>
        </member-function>
      </class-decl>
      <class-decl name='_Mutex_base&lt;(__gnu_cxx::_Lock_policy)2u&gt;' size-in-bits='8' visibility='default' filepath='/usr/include/c++/4.9/bits/shared_ptr_base.h' line='88' column='1' id='63715f13'>
        <member-type access='protected'>
          <enum-decl name='__anonymous_enum__' is-anonymous='yes' filepath='/usr/include/c++/4.9/bits/shared_ptr_base.h' line='92' column='1' id='08f5ca17'>
            <underlying-type type-id='9cac1fee'/>
            <enumerator name='_S_need_barriers' value='0'/>
          </enum-decl>
        </member-type>
      </class-decl>
      <class-decl name='_Sp_counted_base&lt;(__gnu_cxx::_Lock_policy)2u&gt;' size-in-bits='128' visibility='default' filepath='/usr/include/c++/4.9/bits/shared_ptr_base.h' line='107' column='1' id='cda954c4'>
        <base-class access='public' layout-offset-in-bits='0' type-id='63715f13'/>
        <data-member access='private' layout-offset-in-bits='64'>
          <var-decl name='_M_use_count' type-id='e9464a99' visibility='default' filepath='/usr/include/c++/4.9/bits/shared_ptr_base.h' line='206' column='1'/>
        </data-member>
        <data-member access='private' layout-offset-in-bits='96'>
          <var-decl name='_M_weak_count' type-id='e9464a99' visibility='default' filepath='/usr/include/c++/4.9/bits/shared_ptr_base.h' line='207' column='1'/>
        </data-member>
        <member-function access='public'>
          <function-decl name='_Sp_counted_base' filepath='/usr/include/c++/4.9/bits/shared_ptr_base.h' line='111' column='1' visibility='default' binding='global' size-in-bits='64'>
            <parameter type-id='95aaf5a2' is-artificial='yes'/>
            <return type-id='48b5725f'/>
          </function-decl>
        </member-function>
        <member-function access='private'>
          <function-decl name='_Sp_counted_base' filepath='/usr/include/c++/4.9/bits/shared_ptr_base.h' line='203' column='1' visibility='default' binding='global' size-in-bits='64'>
            <parameter type-id='95aaf5a2' is-artificial='yes'/>
            <parameter type-id='4296c905'/>
            <return type-id='48b5725f'/>
          </function-decl>
        </member-function>
        <member-function access='public'>
          <function-decl name='_M_release' mangled-name='_ZNSt16_Sp_counted_baseILN9__gnu_cxx12_Lock_policyE2EE10_M_releaseEv' filepath='/usr/include/c++/4.9/bits/shared_ptr_base.h' line='142' column='1' visibility='default' binding='global' size-in-bits='64' elf-symbol-id='_ZNSt16_Sp_counted_baseILN9__gnu_cxx12_Lock_policyE2EE10_M_releaseEv'>
            <parameter type-id='95aaf5a2' is-artificial='yes'/>
            <return type-id='48b5725f'/>
          </function-decl>
        </member-function>
        <member-function access='public' destructor='yes' vtable-offset='-1'>
          <function-decl name='~_Sp_counted_base' filepath='/usr/include/c++/4.9/bits/shared_ptr_base.h' line='115' column='1' visibility='default' binding='global' size-in-bits='64'>
            <parameter type-id='95aaf5a2' is-artificial='yes'/>
            <parameter type-id='95e97e5e' is-artificial='yes'/>
            <return type-id='48b5725f'/>
          </function-decl>
        </member-function>
        <member-function access='public' vtable-offset='2'>
          <function-decl name='_M_dispose' mangled-name='_ZNSt16_Sp_counted_baseILN9__gnu_cxx12_Lock_policyE2EE10_M_disposeEv' filepath='/usr/include/c++/4.9/bits/shared_ptr_base.h' line='121' column='1' visibility='default' binding='global' size-in-bits='64'>
            <parameter type-id='95aaf5a2' is-artificial='yes'/>
            <return type-id='48b5725f'/>
          </function-decl>
        </member-function>
        <member-function access='public' vtable-offset='3'>
          <function-decl name='_M_destroy' mangled-name='_ZNSt16_Sp_counted_baseILN9__gnu_cxx12_Lock_policyE2EE10_M_destroyEv' filepath='/usr/include/c++/4.9/bits/shared_ptr_base.h' line='125' column='1' visibility='default' binding='global' size-in-bits='64'>
            <parameter type-id='95aaf5a2' is-artificial='yes'/>
            <return type-id='48b5725f'/>
          </function-decl>
        </member-function>
        <member-function access='public' vtable-offset='4'>
          <function-decl name='_M_get_deleter' mangled-name='_ZNSt16_Sp_counted_baseILN9__gnu_cxx12_Lock_policyE2EE14_M_get_deleterERKSt9type_info' filepath='/usr/include/c++/4.9/bits/shared_ptr_base.h' line='129' column='1' visibility='default' binding='global' size-in-bits='64'>
            <parameter type-id='95aaf5a2' is-artificial='yes'/>
            <parameter type-id='3c7175d8'/>
            <return type-id='eaa32e2f'/>
          </function-decl>
        </member-function>
      </class-decl>
      <class-decl name='__shared_count&lt;(__gnu_cxx::_Lock_policy)2u&gt;' size-in-bits='64' visibility='default' filepath='/usr/include/c++/4.9/bits/shared_ptr_base.h' line='557' column='1' id='e386d682'>
        <data-member access='private' layout-offset-in-bits='0'>
          <var-decl name='_M_pi' type-id='95aaf5a2' visibility='default' filepath='/usr/include/c++/4.9/bits/shared_ptr_base.h' line='727' column='1'/>
        </data-member>
        <member-function access='public'>
          <function-decl name='__shared_count' filepath='/usr/include/c++/4.9/bits/shared_ptr_base.h' line='560' column='1' visibility='default' binding='global' size-in-bits='64'>
            <parameter type-id='847fce40' is-artificial='yes'/>
            <return type-id='48b5725f'/>
          </function-decl>
        </member-function>
        <member-function access='public'>
          <function-decl name='__shared_count' filepath='/usr/include/c++/4.9/bits/shared_ptr_base.h' line='816' column='1' visibility='default' binding='global' size-in-bits='64'>
            <parameter type-id='847fce40' is-artificial='yes'/>
            <parameter type-id='907e2542'/>
            <return type-id='48b5725f'/>
          </function-decl>
        </member-function>
        <member-function access='public'>
          <function-decl name='__shared_count' filepath='/usr/include/c++/4.9/bits/shared_ptr_base.h' line='828' column='1' visibility='default' binding='global' size-in-bits='64'>
            <parameter type-id='847fce40' is-artificial='yes'/>
            <parameter type-id='907e2542'/>
            <parameter type-id='e2b67d34'/>
            <return type-id='48b5725f'/>
          </function-decl>
        </member-function>
        <member-function access='public' destructor='yes'>
          <function-decl name='~__shared_count' filepath='/usr/include/c++/4.9/bits/shared_ptr_base.h' line='663' column='1' visibility='default' binding='global' size-in-bits='64'>
            <parameter type-id='847fce40' is-artificial='yes'/>
            <parameter type-id='95e97e5e' is-artificial='yes'/>
            <return type-id='48b5725f'/>
          </function-decl>
        </member-function>
        <member-function access='public'>
          <function-decl name='__shared_count' filepath='/usr/include/c++/4.9/bits/shared_ptr_base.h' line='669' column='1' visibility='default' binding='global' size-in-bits='64'>
            <parameter type-id='847fce40' is-artificial='yes'/>
            <parameter type-id='f1dd5e17'/>
            <return type-id='48b5725f'/>
          </function-decl>
        </member-function>
        <member-function access='public' destructor='yes'>
          <function-decl name='~__shared_count' mangled-name='_ZNSt14__shared_countILN9__gnu_cxx12_Lock_policyE2EED2Ev' filepath='/usr/include/c++/4.9/bits/shared_ptr_base.h' line='663' column='1' visibility='default' binding='global' size-in-bits='64' elf-symbol-id='_ZNSt14__shared_countILN9__gnu_cxx12_Lock_policyE2EED2Ev'>
            <parameter type-id='847fce40' is-artificial='yes'/>
            <parameter type-id='95e97e5e' is-artificial='yes'/>
            <return type-id='48b5725f'/>
          </function-decl>
        </member-function>
      </class-decl>
      <class-decl name='__shared_ptr&lt;mongo::optionenvironment::Constraint, (__gnu_cxx::_Lock_policy)2u&gt;' size-in-bits='128' visibility='default' filepath='/usr/include/c++/4.9/bits/shared_ptr_base.h' line='860' column='1' id='5a9e6648'>
        <data-member access='private' layout-offset-in-bits='0'>
          <var-decl name='_M_ptr' type-id='8d3ed60a' visibility='default' filepath='/usr/include/c++/4.9/bits/shared_ptr_base.h' line='1174' column='1'/>
        </data-member>
        <data-member access='private' layout-offset-in-bits='64'>
          <var-decl name='_M_refcount' type-id='e386d682' visibility='default' filepath='/usr/include/c++/4.9/bits/shared_ptr_base.h' line='1175' column='1'/>
        </data-member>
        <member-function access='public'>
          <function-decl name='__shared_ptr' filepath='/usr/include/c++/4.9/bits/shared_ptr_base.h' line='865' column='1' visibility='default' binding='global' size-in-bits='64'>
            <parameter type-id='e91869fe' is-artificial='yes'/>
            <return type-id='48b5725f'/>
          </function-decl>
        </member-function>
        <member-function access='public'>
          <function-decl name='__shared_ptr' filepath='/usr/include/c++/4.9/bits/shared_ptr_base.h' line='912' column='1' visibility='default' binding='global' size-in-bits='64'>
            <parameter type-id='e91869fe' is-artificial='yes'/>
            <parameter type-id='961d894d'/>
            <return type-id='48b5725f'/>
          </function-decl>
        </member-function>
        <member-function access='public' destructor='yes'>
          <function-decl name='~__shared_ptr' filepath='/usr/include/c++/4.9/bits/shared_ptr_base.h' line='914' column='1' visibility='default' binding='global' size-in-bits='64'>
            <parameter type-id='e91869fe' is-artificial='yes'/>
            <parameter type-id='95e97e5e' is-artificial='yes'/>
            <return type-id='48b5725f'/>
          </function-decl>
        </member-function>
        <member-function access='public'>
          <function-decl name='__shared_ptr' filepath='/usr/include/c++/4.9/bits/shared_ptr_base.h' line='922' column='1' visibility='default' binding='global' size-in-bits='64'>
            <parameter type-id='e91869fe' is-artificial='yes'/>
            <parameter type-id='3964c1fc'/>
            <return type-id='48b5725f'/>
          </function-decl>
        </member-function>
        <member-function access='protected'>
          <function-decl name='__shared_ptr' filepath='/usr/include/c++/4.9/bits/shared_ptr_base.h' line='1145' column='1' visibility='default' binding='global' size-in-bits='64'>
            <parameter type-id='e91869fe' is-artificial='yes'/>
            <parameter type-id='248c9944'/>
            <parameter type-id='e2b67d34'/>
            <return type-id='48b5725f'/>
          </function-decl>
        </member-function>
        <member-function access='public' destructor='yes'>
          <function-decl name='~__shared_ptr' mangled-name='_ZNSt12__shared_ptrIN5mongo17optionenvironment10ConstraintELN9__gnu_cxx12_Lock_policyE2EED2Ev' filepath='/usr/include/c++/4.9/bits/shared_ptr_base.h' line='914' column='1' visibility='default' binding='global' size-in-bits='64' elf-symbol-id='_ZNSt12__shared_ptrIN5mongo17optionenvironment10ConstraintELN9__gnu_cxx12_Lock_policyE2EED2Ev'>
            <parameter type-id='e91869fe' is-artificial='yes'/>
            <parameter type-id='95e97e5e' is-artificial='yes'/>
            <return type-id='48b5725f'/>
          </function-decl>
        </member-function>
      </class-decl>
      <class-decl name='__copy_move&lt;false, false, std::random_access_iterator_tag&gt;' size-in-bits='8' is-struct='yes' visibility='default' filepath='/usr/include/c++/4.9/bits/stl_algobase.h' line='327' column='1' id='bd566a80'>
        <member-function access='public' static='yes'>
          <function-decl name='__copy_m&lt;const std::basic_string&lt;char&gt;*, std::basic_string&lt;char&gt;*&gt;' mangled-name='_ZNSt11__copy_moveILb0ELb0ESt26random_access_iterator_tagE8__copy_mIPKSsPSsEET0_T_S7_S6_' filepath='/usr/include/c++/4.9/bits/stl_algobase.h' line='331' column='1' visibility='default' binding='global' size-in-bits='64' elf-symbol-id='_ZNSt11__copy_moveILb0ELb0ESt26random_access_iterator_tagE8__copy_mIPKSsPSsEET0_T_S7_S6_'>
            <parameter type-id='118dd888'/>
            <parameter type-id='118dd888'/>
            <parameter type-id='16934a6f'/>
            <return type-id='16934a6f'/>
          </function-decl>
        </member-function>
        <member-function access='public' static='yes'>
          <function-decl name='__copy_m&lt;std::basic_string&lt;char&gt;*, std::basic_string&lt;char&gt;*&gt;' mangled-name='_ZNSt11__copy_moveILb0ELb0ESt26random_access_iterator_tagE8__copy_mIPSsS3_EET0_T_S5_S4_' filepath='/usr/include/c++/4.9/bits/stl_algobase.h' line='331' column='1' visibility='default' binding='global' size-in-bits='64' elf-symbol-id='_ZNSt11__copy_moveILb0ELb0ESt26random_access_iterator_tagE8__copy_mIPSsS3_EET0_T_S5_S4_'>
            <parameter type-id='16934a6f'/>
            <parameter type-id='16934a6f'/>
            <parameter type-id='16934a6f'/>
            <return type-id='16934a6f'/>
          </function-decl>
        </member-function>
      </class-decl>
      <typedef-decl name='_Bit_type' type-id='7359adad' filepath='/usr/include/c++/4.9/bits/stl_bvector.h' line='67' column='1' id='1ee7c18a'/>
      <class-decl name='_Bit_reference' size-in-bits='128' is-struct='yes' visibility='default' filepath='/usr/include/c++/4.9/bits/stl_bvector.h' line='70' column='1' id='dbc41e38'>
        <data-member access='public' layout-offset-in-bits='0'>
          <var-decl name='_M_p' type-id='3113c6cb' visibility='default' filepath='/usr/include/c++/4.9/bits/stl_bvector.h' line='72' column='1'/>
        </data-member>
        <data-member access='public' layout-offset-in-bits='64'>
          <var-decl name='_M_mask' type-id='1ee7c18a' visibility='default' filepath='/usr/include/c++/4.9/bits/stl_bvector.h' line='73' column='1'/>
        </data-member>
        <member-function access='public' constructor='yes'>
          <function-decl name='_Bit_reference' filepath='/usr/include/c++/4.9/bits/stl_bvector.h' line='75' column='1' visibility='default' binding='global' size-in-bits='64'>
            <parameter type-id='c1c8ddfe' is-artificial='yes'/>
            <parameter type-id='3113c6cb'/>
            <parameter type-id='1ee7c18a'/>
            <return type-id='48b5725f'/>
          </function-decl>
        </member-function>
        <member-function access='public' constructor='yes'>
          <function-decl name='_Bit_reference' filepath='/usr/include/c++/4.9/bits/stl_bvector.h' line='78' column='1' visibility='default' binding='global' size-in-bits='64'>
            <parameter type-id='c1c8ddfe' is-artificial='yes'/>
            <return type-id='48b5725f'/>
          </function-decl>
        </member-function>
      </class-decl>
      <class-decl name='_Bit_iterator_base' size-in-bits='128' is-struct='yes' visibility='default' filepath='/usr/include/c++/4.9/bits/stl_bvector.h' line='136' column='1' id='0fe6b87f'>
        <base-class access='public' layout-offset-in-bits='0' type-id='116fe8d2'/>
        <data-member access='public' layout-offset-in-bits='0'>
          <var-decl name='_M_p' type-id='3113c6cb' visibility='default' filepath='/usr/include/c++/4.9/bits/stl_bvector.h' line='139' column='1'/>
        </data-member>
        <data-member access='public' layout-offset-in-bits='64'>
          <var-decl name='_M_offset' type-id='f0981eeb' visibility='default' filepath='/usr/include/c++/4.9/bits/stl_bvector.h' line='140' column='1'/>
        </data-member>
        <member-function access='public' constructor='yes'>
          <function-decl name='_Bit_iterator_base' filepath='/usr/include/c++/4.9/bits/stl_bvector.h' line='142' column='1' visibility='default' binding='global' size-in-bits='64'>
            <parameter type-id='ef85a8b7' is-artificial='yes'/>
            <parameter type-id='3113c6cb'/>
            <parameter type-id='f0981eeb'/>
            <return type-id='48b5725f'/>
          </function-decl>
        </member-function>
      </class-decl>
      <class-decl name='_Bit_iterator' size-in-bits='128' is-struct='yes' visibility='default' filepath='/usr/include/c++/4.9/bits/stl_bvector.h' line='214' column='1' id='2e59ea49'>
        <base-class access='public' layout-offset-in-bits='0' type-id='0fe6b87f'/>
        <member-type access='public'>
          <typedef-decl name='reference' type-id='dbc41e38' filepath='/usr/include/c++/4.9/bits/stl_bvector.h' line='216' column='1' id='fca1f6a1'/>
        </member-type>
        <member-type access='public'>
          <typedef-decl name='pointer' type-id='c1c8ddfe' filepath='/usr/include/c++/4.9/bits/stl_bvector.h' line='217' column='1' id='77abf6d5'/>
        </member-type>
        <member-type access='public'>
          <typedef-decl name='iterator' type-id='2e59ea49' filepath='/usr/include/c++/4.9/bits/stl_bvector.h' line='218' column='1' id='3beb1226'/>
        </member-type>
        <member-function access='public' constructor='yes'>
          <function-decl name='_Bit_iterator' filepath='/usr/include/c++/4.9/bits/stl_bvector.h' line='220' column='1' visibility='default' binding='global' size-in-bits='64'>
            <parameter type-id='6d7bef21' is-artificial='yes'/>
            <return type-id='48b5725f'/>
          </function-decl>
        </member-function>
        <member-function access='public' constructor='yes'>
          <function-decl name='_Bit_iterator' filepath='/usr/include/c++/4.9/bits/stl_bvector.h' line='222' column='1' visibility='default' binding='global' size-in-bits='64'>
            <parameter type-id='6d7bef21' is-artificial='yes'/>
            <parameter type-id='3113c6cb'/>
            <parameter type-id='f0981eeb'/>
            <return type-id='48b5725f'/>
          </function-decl>
        </member-function>
      </class-decl>
      <class-decl name='_Bit_const_iterator' size-in-bits='128' is-struct='yes' visibility='default' filepath='/usr/include/c++/4.9/bits/stl_bvector.h' line='300' column='1' id='1ba823a9'>
        <base-class access='public' layout-offset-in-bits='0' type-id='0fe6b87f'/>
        <member-type access='public'>
          <typedef-decl name='reference' type-id='c894953d' filepath='/usr/include/c++/4.9/bits/stl_bvector.h' line='302' column='1' id='9da63511'/>
        </member-type>
        <member-type access='public'>
          <typedef-decl name='const_reference' type-id='c894953d' filepath='/usr/include/c++/4.9/bits/stl_bvector.h' line='303' column='1' id='0b653e3d'/>
        </member-type>
        <member-type access='public'>
          <typedef-decl name='pointer' type-id='cfe2266a' filepath='/usr/include/c++/4.9/bits/stl_bvector.h' line='304' column='1' id='641a7da5'/>
        </member-type>
        <member-type access='public'>
          <typedef-decl name='const_iterator' type-id='1ba823a9' filepath='/usr/include/c++/4.9/bits/stl_bvector.h' line='305' column='1' id='92fd742a'/>
        </member-type>
        <member-function access='public' constructor='yes'>
          <function-decl name='_Bit_const_iterator' filepath='/usr/include/c++/4.9/bits/stl_bvector.h' line='307' column='1' visibility='default' binding='global' size-in-bits='64'>
            <parameter type-id='ed42da51' is-artificial='yes'/>
            <return type-id='48b5725f'/>
          </function-decl>
        </member-function>
        <member-function access='public' constructor='yes'>
          <function-decl name='_Bit_const_iterator' filepath='/usr/include/c++/4.9/bits/stl_bvector.h' line='309' column='1' visibility='default' binding='global' size-in-bits='64'>
            <parameter type-id='ed42da51' is-artificial='yes'/>
            <parameter type-id='3113c6cb'/>
            <parameter type-id='f0981eeb'/>
            <return type-id='48b5725f'/>
          </function-decl>
        </member-function>
        <member-function access='public' constructor='yes'>
          <function-decl name='_Bit_const_iterator' filepath='/usr/include/c++/4.9/bits/stl_bvector.h' line='312' column='1' visibility='default' binding='global' size-in-bits='64'>
            <parameter type-id='ed42da51' is-artificial='yes'/>
            <parameter type-id='58116732'/>
            <return type-id='48b5725f'/>
          </function-decl>
        </member-function>
      </class-decl>
      <class-decl name='_Bvector_base&lt;std::allocator&lt;bool&gt; &gt;' size-in-bits='320' is-struct='yes' visibility='default' filepath='/usr/include/c++/4.9/bits/stl_bvector.h' line='411' column='1' id='989aa642'>
        <member-type access='public'>
          <typedef-decl name='_Bit_alloc_type' type-id='77119f8e' filepath='/usr/include/c++/4.9/bits/stl_bvector.h' line='414' column='1' id='3a2cb094'/>
        </member-type>
        <member-type access='public'>
          <class-decl name='_Bvector_impl' size-in-bits='320' is-struct='yes' visibility='default' filepath='/usr/include/c++/4.9/bits/stl_bvector.h' line='416' column='1' id='35f24617'>
            <base-class access='public' layout-offset-in-bits='0' type-id='a67ba367'/>
            <data-member access='public' layout-offset-in-bits='0'>
              <var-decl name='_M_start' type-id='2e59ea49' visibility='default' filepath='/usr/include/c++/4.9/bits/stl_bvector.h' line='419' column='1'/>
            </data-member>
            <data-member access='public' layout-offset-in-bits='128'>
              <var-decl name='_M_finish' type-id='2e59ea49' visibility='default' filepath='/usr/include/c++/4.9/bits/stl_bvector.h' line='420' column='1'/>
            </data-member>
            <data-member access='public' layout-offset-in-bits='256'>
              <var-decl name='_M_end_of_storage' type-id='3113c6cb' visibility='default' filepath='/usr/include/c++/4.9/bits/stl_bvector.h' line='421' column='1'/>
            </data-member>
            <member-function access='public' constructor='yes'>
              <function-decl name='_Bvector_impl' filepath='/usr/include/c++/4.9/bits/stl_bvector.h' line='423' column='1' visibility='default' binding='global' size-in-bits='64'>
                <parameter type-id='7b66e53f' is-artificial='yes'/>
                <return type-id='48b5725f'/>
              </function-decl>
            </member-function>
            <member-function access='public' constructor='yes'>
              <function-decl name='_Bvector_impl' filepath='/usr/include/c++/4.9/bits/stl_bvector.h' line='427' column='1' visibility='default' binding='global' size-in-bits='64'>
                <parameter type-id='7b66e53f' is-artificial='yes'/>
                <parameter type-id='fd8a1286'/>
                <return type-id='48b5725f'/>
              </function-decl>
            </member-function>
            <member-function access='public' constructor='yes'>
              <function-decl name='_Bvector_impl' filepath='/usr/include/c++/4.9/bits/stl_bvector.h' line='432' column='1' visibility='default' binding='global' size-in-bits='64'>
                <parameter type-id='7b66e53f' is-artificial='yes'/>
                <parameter type-id='82b069d5'/>
                <return type-id='48b5725f'/>
              </function-decl>
            </member-function>
          </class-decl>
        </member-type>
        <member-type access='public'>
          <typedef-decl name='allocator_type' type-id='18a15b7d' filepath='/usr/include/c++/4.9/bits/stl_bvector.h' line='440' column='1' id='ecca0a17'/>
        </member-type>
        <data-member access='protected' layout-offset-in-bits='0'>
          <var-decl name='_M_impl' type-id='35f24617' visibility='default' filepath='/usr/include/c++/4.9/bits/stl_bvector.h' line='477' column='1'/>
        </data-member>
        <member-function access='public'>
          <function-decl name='_Bvector_base' filepath='/usr/include/c++/4.9/bits/stl_bvector.h' line='454' column='1' visibility='default' binding='global' size-in-bits='64'>
            <parameter type-id='6a7f87c0' is-artificial='yes'/>
            <return type-id='48b5725f'/>
          </function-decl>
        </member-function>
        <member-function access='public'>
          <function-decl name='_Bvector_base' filepath='/usr/include/c++/4.9/bits/stl_bvector.h' line='457' column='1' visibility='default' binding='global' size-in-bits='64'>
            <parameter type-id='6a7f87c0' is-artificial='yes'/>
            <parameter type-id='9ff12473'/>
            <return type-id='48b5725f'/>
          </function-decl>
        </member-function>
        <member-function access='public'>
          <function-decl name='_Bvector_base' filepath='/usr/include/c++/4.9/bits/stl_bvector.h' line='461' column='1' visibility='default' binding='global' size-in-bits='64'>
            <parameter type-id='6a7f87c0' is-artificial='yes'/>
            <parameter type-id='0ce03aa6'/>
            <return type-id='48b5725f'/>
          </function-decl>
        </member-function>
        <member-function access='public' destructor='yes'>
          <function-decl name='~_Bvector_base' filepath='/usr/include/c++/4.9/bits/stl_bvector.h' line='473' column='1' visibility='default' binding='global' size-in-bits='64'>
            <parameter type-id='6a7f87c0' is-artificial='yes'/>
            <parameter type-id='95e97e5e' is-artificial='yes'/>
            <return type-id='48b5725f'/>
          </function-decl>
        </member-function>
      </class-decl>
      <class-decl name='vector&lt;bool, std::allocator&lt;bool&gt; &gt;' size-in-bits='320' visibility='default' filepath='/usr/include/c++/4.9/bits/stl_bvector.h' line='526' column='1' id='19cbbdd1'>
        <base-class access='protected' layout-offset-in-bits='0' type-id='989aa642'/>
        <member-type access='public'>
          <typedef-decl name='size_type' type-id='7a51dc7f' filepath='/usr/include/c++/4.9/bits/stl_bvector.h' line='536' column='1' id='53393e8e'/>
        </member-type>
        <member-type access='public'>
          <typedef-decl name='reference' type-id='dbc41e38' filepath='/usr/include/c++/4.9/bits/stl_bvector.h' line='538' column='1' id='386aac41'/>
        </member-type>
        <member-type access='public'>
          <typedef-decl name='const_reference' type-id='c894953d' filepath='/usr/include/c++/4.9/bits/stl_bvector.h' line='539' column='1' id='a61c5acd'/>
        </member-type>
        <member-type access='public'>
          <typedef-decl name='iterator' type-id='2e59ea49' filepath='/usr/include/c++/4.9/bits/stl_bvector.h' line='542' column='1' id='0dcd2946'/>
        </member-type>
        <member-type access='public'>
          <typedef-decl name='const_iterator' type-id='1ba823a9' filepath='/usr/include/c++/4.9/bits/stl_bvector.h' line='543' column='1' id='63ef4d1a'/>
        </member-type>
        <member-type access='public'>
          <typedef-decl name='const_reverse_iterator' type-id='711dbda1' filepath='/usr/include/c++/4.9/bits/stl_bvector.h' line='544' column='1' id='f5ebbd71'/>
        </member-type>
        <member-type access='public'>
          <typedef-decl name='reverse_iterator' type-id='3dfa3ea1' filepath='/usr/include/c++/4.9/bits/stl_bvector.h' line='545' column='1' id='4a8bddf5'/>
        </member-type>
        <member-type access='public'>
          <typedef-decl name='allocator_type' type-id='18a15b7d' filepath='/usr/include/c++/4.9/bits/stl_bvector.h' line='546' column='1' id='4d78fbea'/>
        </member-type>
        <member-function access='public'>
          <function-decl name='vector' filepath='/usr/include/c++/4.9/bits/stl_bvector.h' line='558' column='1' visibility='default' binding='global' size-in-bits='64'>
            <parameter type-id='ad808e99' is-artificial='yes'/>
            <return type-id='48b5725f'/>
          </function-decl>
        </member-function>
        <member-function access='public'>
          <function-decl name='vector' filepath='/usr/include/c++/4.9/bits/stl_bvector.h' line='562' column='1' visibility='default' binding='global' size-in-bits='64'>
            <parameter type-id='ad808e99' is-artificial='yes'/>
            <parameter type-id='3cf4b434'/>
            <return type-id='48b5725f'/>
          </function-decl>
        </member-function>
        <member-function access='public'>
          <function-decl name='vector' filepath='/usr/include/c++/4.9/bits/stl_bvector.h' line='567' column='1' visibility='default' binding='global' size-in-bits='64'>
            <parameter type-id='ad808e99' is-artificial='yes'/>
            <parameter type-id='53393e8e'/>
            <parameter type-id='3cf4b434'/>
            <return type-id='48b5725f'/>
          </function-decl>
        </member-function>
        <member-function access='public'>
          <function-decl name='vector' filepath='/usr/include/c++/4.9/bits/stl_bvector.h' line='571' column='1' visibility='default' binding='global' size-in-bits='64'>
            <parameter type-id='ad808e99' is-artificial='yes'/>
            <parameter type-id='53393e8e'/>
            <parameter type-id='c3e21386'/>
            <parameter type-id='3cf4b434'/>
            <return type-id='48b5725f'/>
          </function-decl>
        </member-function>
        <member-function access='public'>
          <function-decl name='vector' filepath='/usr/include/c++/4.9/bits/stl_bvector.h' line='591' column='1' visibility='default' binding='global' size-in-bits='64'>
            <parameter type-id='ad808e99' is-artificial='yes'/>
            <parameter type-id='d57503d2'/>
            <return type-id='48b5725f'/>
          </function-decl>
        </member-function>
        <member-function access='public'>
          <function-decl name='vector' filepath='/usr/include/c++/4.9/bits/stl_bvector.h' line='599' column='1' visibility='default' binding='global' size-in-bits='64'>
            <parameter type-id='ad808e99' is-artificial='yes'/>
            <parameter type-id='607e0241'/>
            <return type-id='48b5725f'/>
          </function-decl>
        </member-function>
        <member-function access='public'>
          <function-decl name='vector' filepath='/usr/include/c++/4.9/bits/stl_bvector.h' line='602' column='1' visibility='default' binding='global' size-in-bits='64'>
            <parameter type-id='ad808e99' is-artificial='yes'/>
            <parameter type-id='330de355'/>
            <parameter type-id='3cf4b434'/>
            <return type-id='48b5725f'/>
          </function-decl>
        </member-function>
        <member-function access='public' destructor='yes'>
          <function-decl name='~vector' filepath='/usr/include/c++/4.9/bits/stl_bvector.h' line='629' column='1' visibility='default' binding='global' size-in-bits='64'>
            <parameter type-id='ad808e99' is-artificial='yes'/>
            <parameter type-id='95e97e5e' is-artificial='yes'/>
            <return type-id='48b5725f'/>
          </function-decl>
        </member-function>
      </class-decl>
      <class-decl name='_Destroy_aux&lt;false&gt;' size-in-bits='8' is-struct='yes' visibility='default' filepath='/usr/include/c++/4.9/bits/stl_construct.h' line='96' column='1' id='ea0078d5'>
        <member-function access='public' static='yes'>
          <function-decl name='__destroy&lt;std::basic_string&lt;char&gt;*&gt;' mangled-name='_ZNSt12_Destroy_auxILb0EE9__destroyIPSsEEvT_S3_' filepath='/usr/include/c++/4.9/bits/stl_construct.h' line='100' column='1' visibility='default' binding='global' size-in-bits='64' elf-symbol-id='_ZNSt12_Destroy_auxILb0EE9__destroyIPSsEEvT_S3_'>
            <parameter type-id='16934a6f'/>
            <parameter type-id='16934a6f'/>
            <return type-id='48b5725f'/>
          </function-decl>
        </member-function>
        <member-function access='public' static='yes'>
          <function-decl name='__destroy&lt;std::shared_ptr&lt;mongo::optionenvironment::Constraint&gt;*&gt;' mangled-name='_ZNSt12_Destroy_auxILb0EE9__destroyIPSt10shared_ptrIN5mongo17optionenvironment10ConstraintEEEEvT_S8_' filepath='/usr/include/c++/4.9/bits/stl_construct.h' line='100' column='1' visibility='default' binding='global' size-in-bits='64' elf-symbol-id='_ZNSt12_Destroy_auxILb0EE9__destroyIPSt10shared_ptrIN5mongo17optionenvironment10ConstraintEEEEvT_S8_'>
            <parameter type-id='62ad46f3'/>
            <parameter type-id='62ad46f3'/>
            <return type-id='48b5725f'/>
          </function-decl>
        </member-function>
        <member-function access='public' static='yes'>
          <function-decl name='__destroy&lt;__gnu_cxx::__normal_iterator&lt;std::basic_string&lt;char&gt;*, std::vector&lt;std::basic_string&lt;char&gt; &gt; &gt; &gt;' mangled-name='_ZNSt12_Destroy_auxILb0EE9__destroyIN9__gnu_cxx17__normal_iteratorIPSsSt6vectorISsSaISsEEEEEEvT_S9_' filepath='/usr/include/c++/4.9/bits/stl_construct.h' line='100' column='1' visibility='default' binding='global' size-in-bits='64' elf-symbol-id='_ZNSt12_Destroy_auxILb0EE9__destroyIN9__gnu_cxx17__normal_iteratorIPSsSt6vectorISsSaISsEEEEEEvT_S9_'>
            <parameter type-id='fe24d8b1'/>
            <parameter type-id='fe24d8b1'/>
            <return type-id='48b5725f'/>
          </function-decl>
        </member-function>
      </class-decl>
      <class-decl name='unary_function&lt;mongo::InitializerContext*, mongo::Status&gt;' size-in-bits='8' is-struct='yes' visibility='default' filepath='/usr/include/c++/4.9/bits/stl_function.h' line='105' column='1' id='56697a11'/>
      <class-decl name='binary_function&lt;std::basic_string&lt;char, std::char_traits&lt;char&gt;, std::allocator&lt;char&gt; &gt;, std::basic_string&lt;char, std::char_traits&lt;char&gt;, std::allocator&lt;char&gt; &gt;, bool&gt;' size-in-bits='8' is-struct='yes' visibility='default' filepath='/usr/include/c++/4.9/bits/stl_function.h' line='118' column='1' id='34341f6e'/>
      <class-decl name='equal_to&lt;std::basic_string&lt;char, std::char_traits&lt;char&gt;, std::allocator&lt;char&gt; &gt; &gt;' size-in-bits='8' is-struct='yes' visibility='default' filepath='/usr/include/c++/4.9/bits/stl_function.h' line='340' column='1' id='32496eb6'>
        <base-class access='public' layout-offset-in-bits='0' type-id='34341f6e'/>
      </class-decl>
      <class-decl name='less&lt;std::basic_string&lt;char, std::char_traits&lt;char&gt;, std::allocator&lt;char&gt; &gt; &gt;' size-in-bits='8' is-struct='yes' visibility='default' filepath='/usr/include/c++/4.9/bits/stl_function.h' line='367' column='1' id='39a2107d'>
        <base-class access='public' layout-offset-in-bits='0' type-id='34341f6e'/>
      </class-decl>
      <class-decl name='reverse_iterator&lt;std::_Bit_const_iterator&gt;' size-in-bits='128' visibility='default' filepath='/usr/include/c++/4.9/bits/stl_iterator.h' line='97' column='1' id='711dbda1'>
        <base-class access='public' layout-offset-in-bits='0' type-id='d388e64f'/>
        <member-type access='public'>
          <typedef-decl name='iterator_type' type-id='1ba823a9' filepath='/usr/include/c++/4.9/bits/stl_iterator.h' line='110' column='1' id='2da1efb5'/>
        </member-type>
        <member-type access='public'>
          <typedef-decl name='difference_type' type-id='892f44a7' filepath='/usr/include/c++/4.9/bits/stl_iterator.h' line='111' column='1' id='61591b3a'/>
        </member-type>
        <member-type access='public'>
          <typedef-decl name='pointer' type-id='58e27902' filepath='/usr/include/c++/4.9/bits/stl_iterator.h' line='112' column='1' id='6a5c6eab'/>
        </member-type>
        <member-type access='public'>
          <typedef-decl name='reference' type-id='d8ed1ab2' filepath='/usr/include/c++/4.9/bits/stl_iterator.h' line='113' column='1' id='eb4e2aff'/>
        </member-type>
        <data-member access='protected' layout-offset-in-bits='0'>
          <var-decl name='current' type-id='1ba823a9' visibility='default' filepath='/usr/include/c++/4.9/bits/stl_iterator.h' line='105' column='1'/>
        </data-member>
        <member-function access='public'>
          <function-decl name='reverse_iterator' filepath='/usr/include/c++/4.9/bits/stl_iterator.h' line='121' column='1' visibility='default' binding='global' size-in-bits='64'>
            <parameter type-id='048e9509' is-artificial='yes'/>
            <return type-id='48b5725f'/>
          </function-decl>
        </member-function>
        <member-function access='public'>
          <function-decl name='reverse_iterator' filepath='/usr/include/c++/4.9/bits/stl_iterator.h' line='127' column='1' visibility='default' binding='global' size-in-bits='64'>
            <parameter type-id='048e9509' is-artificial='yes'/>
            <parameter type-id='2da1efb5'/>
            <return type-id='48b5725f'/>
          </function-decl>
        </member-function>
        <member-function access='public'>
          <function-decl name='reverse_iterator' filepath='/usr/include/c++/4.9/bits/stl_iterator.h' line='132' column='1' visibility='default' binding='global' size-in-bits='64'>
            <parameter type-id='048e9509' is-artificial='yes'/>
            <parameter type-id='236f0a50'/>
            <return type-id='48b5725f'/>
          </function-decl>
        </member-function>
      </class-decl>
      <class-decl name='reverse_iterator&lt;std::_Bit_iterator&gt;' size-in-bits='128' visibility='default' filepath='/usr/include/c++/4.9/bits/stl_iterator.h' line='97' column='1' id='3dfa3ea1'>
        <base-class access='public' layout-offset-in-bits='0' type-id='d47f80f4'/>
        <member-type access='public'>
          <typedef-decl name='iterator_type' type-id='2e59ea49' filepath='/usr/include/c++/4.9/bits/stl_iterator.h' line='110' column='1' id='b4aa4825'/>
        </member-type>
        <member-type access='public'>
          <typedef-decl name='difference_type' type-id='37ca34f7' filepath='/usr/include/c++/4.9/bits/stl_iterator.h' line='111' column='1' id='b442f48a'/>
        </member-type>
        <member-type access='public'>
          <typedef-decl name='pointer' type-id='fb8b90d2' filepath='/usr/include/c++/4.9/bits/stl_iterator.h' line='112' column='1' id='b1b218bb'/>
        </member-type>
        <member-type access='public'>
          <typedef-decl name='reference' type-id='938866e2' filepath='/usr/include/c++/4.9/bits/stl_iterator.h' line='113' column='1' id='9abde02f'/>
        </member-type>
        <data-member access='protected' layout-offset-in-bits='0'>
          <var-decl name='current' type-id='2e59ea49' visibility='default' filepath='/usr/include/c++/4.9/bits/stl_iterator.h' line='105' column='1'/>
        </data-member>
        <member-function access='public'>
          <function-decl name='reverse_iterator' filepath='/usr/include/c++/4.9/bits/stl_iterator.h' line='121' column='1' visibility='default' binding='global' size-in-bits='64'>
            <parameter type-id='33a27099' is-artificial='yes'/>
            <return type-id='48b5725f'/>
          </function-decl>
        </member-function>
        <member-function access='public'>
          <function-decl name='reverse_iterator' filepath='/usr/include/c++/4.9/bits/stl_iterator.h' line='127' column='1' visibility='default' binding='global' size-in-bits='64'>
            <parameter type-id='33a27099' is-artificial='yes'/>
            <parameter type-id='b4aa4825'/>
            <return type-id='48b5725f'/>
          </function-decl>
        </member-function>
        <member-function access='public'>
          <function-decl name='reverse_iterator' filepath='/usr/include/c++/4.9/bits/stl_iterator.h' line='132' column='1' visibility='default' binding='global' size-in-bits='64'>
            <parameter type-id='33a27099' is-artificial='yes'/>
            <parameter type-id='f3eed4e0'/>
            <return type-id='48b5725f'/>
          </function-decl>
        </member-function>
      </class-decl>
      <class-decl name='move_iterator&lt;std::basic_string&lt;char, std::char_traits&lt;char&gt;, std::allocator&lt;char&gt; &gt;*&gt;' size-in-bits='64' visibility='default' filepath='/usr/include/c++/4.9/bits/stl_iterator.h' line='947' column='1' id='932fa588'>
        <member-type access='public'>
          <typedef-decl name='iterator_type' type-id='16934a6f' filepath='/usr/include/c++/4.9/bits/stl_iterator.h' line='955' column='1' id='ab393f6a'/>
        </member-type>
        <member-type access='public'>
          <typedef-decl name='value_type' type-id='1c78be0f' filepath='/usr/include/c++/4.9/bits/stl_iterator.h' line='957' column='1' id='f937412d'/>
        </member-type>
        <member-type access='public'>
          <typedef-decl name='difference_type' type-id='f4cdfb57' filepath='/usr/include/c++/4.9/bits/stl_iterator.h' line='958' column='1' id='30b5cff9'/>
        </member-type>
        <member-type access='public'>
          <typedef-decl name='pointer' type-id='16934a6f' filepath='/usr/include/c++/4.9/bits/stl_iterator.h' line='960' column='1' id='a3653d00'/>
        </member-type>
        <member-type access='public'>
          <typedef-decl name='reference' type-id='0c549d1a' filepath='/usr/include/c++/4.9/bits/stl_iterator.h' line='961' column='1' id='2492d460'/>
        </member-type>
        <data-member access='protected' layout-offset-in-bits='0'>
          <var-decl name='_M_current' type-id='16934a6f' visibility='default' filepath='/usr/include/c++/4.9/bits/stl_iterator.h' line='950' column='1'/>
        </data-member>
        <member-function access='public'>
          <function-decl name='move_iterator' filepath='/usr/include/c++/4.9/bits/stl_iterator.h' line='963' column='1' visibility='default' binding='global' size-in-bits='64'>
            <parameter type-id='62f32aee' is-artificial='yes'/>
            <return type-id='48b5725f'/>
          </function-decl>
        </member-function>
        <member-function access='public'>
          <function-decl name='move_iterator' filepath='/usr/include/c++/4.9/bits/stl_iterator.h' line='967' column='1' visibility='default' binding='global' size-in-bits='64'>
            <parameter type-id='62f32aee' is-artificial='yes'/>
            <parameter type-id='ab393f6a'/>
            <return type-id='48b5725f'/>
          </function-decl>
        </member-function>
        <member-function access='public'>
          <function-decl name='move_iterator' mangled-name='_ZNSt13move_iteratorIPSsEC2ES0_' filepath='/usr/include/c++/4.9/bits/stl_iterator.h' line='967' column='1' visibility='default' binding='global' size-in-bits='64' elf-symbol-id='_ZNSt13move_iteratorIPSsEC2ES0_'>
            <parameter type-id='62f32aee' is-artificial='yes'/>
            <parameter type-id='ab393f6a'/>
            <return type-id='48b5725f'/>
          </function-decl>
        </member-function>
        <member-function access='public'>
          <function-decl name='operator++' mangled-name='_ZNSt13move_iteratorIPSsEppEv' filepath='/usr/include/c++/4.9/bits/stl_iterator.h' line='987' column='1' visibility='default' binding='global' size-in-bits='64' elf-symbol-id='_ZNSt13move_iteratorIPSsEppEv'>
            <parameter type-id='62f32aee' is-artificial='yes'/>
            <return type-id='5ef324a2'/>
          </function-decl>
        </member-function>
        <member-function access='public' const='yes'>
          <function-decl name='operator*' mangled-name='_ZNKSt13move_iteratorIPSsEdeEv' filepath='/usr/include/c++/4.9/bits/stl_iterator.h' line='979' column='1' visibility='default' binding='global' size-in-bits='64' elf-symbol-id='_ZNKSt13move_iteratorIPSsEdeEv'>
            <parameter type-id='ec17f283' is-artificial='yes'/>
            <return type-id='2492d460'/>
          </function-decl>
        </member-function>
        <member-function access='public' const='yes'>
          <function-decl name='base' mangled-name='_ZNKSt13move_iteratorIPSsE4baseEv' filepath='/usr/include/c++/4.9/bits/stl_iterator.h' line='975' column='1' visibility='default' binding='global' size-in-bits='64' elf-symbol-id='_ZNKSt13move_iteratorIPSsE4baseEv'>
            <parameter type-id='ec17f283' is-artificial='yes'/>
            <return type-id='ab393f6a'/>
          </function-decl>
        </member-function>
      </class-decl>
      <class-decl name='iterator&lt;std::random_access_iterator_tag, bool, long int, bool const*, bool&gt;' size-in-bits='8' is-struct='yes' visibility='default' filepath='/usr/include/c++/4.9/bits/stl_iterator_base_types.h' line='118' column='1' id='d388e64f'/>
      <class-decl name='iterator&lt;std::random_access_iterator_tag, bool, long int, bool*, bool&amp;&gt;' size-in-bits='8' is-struct='yes' visibility='default' filepath='/usr/include/c++/4.9/bits/stl_iterator_base_types.h' line='118' column='1' id='116fe8d2'>
        <member-type access='public'>
          <typedef-decl name='difference_type' type-id='bd54fe1a' filepath='/usr/include/c++/4.9/bits/stl_iterator_base_types.h' line='125' column='1' id='fa724ca1'/>
        </member-type>
      </class-decl>
      <class-decl name='iterator&lt;std::random_access_iterator_tag, bool, long int, std::_Bit_reference*, std::_Bit_reference&gt;' size-in-bits='8' is-struct='yes' visibility='default' filepath='/usr/include/c++/4.9/bits/stl_iterator_base_types.h' line='118' column='1' id='d47f80f4'/>
      <class-decl name='__iterator_traits&lt;std::_Bit_const_iterator, true&gt;' size-in-bits='8' is-struct='yes' visibility='default' filepath='/usr/include/c++/4.9/bits/stl_iterator_base_types.h' line='149' column='1' id='845c3184'>
        <member-type access='public'>
          <typedef-decl name='difference_type' type-id='fa724ca1' filepath='/usr/include/c++/4.9/bits/stl_iterator_base_types.h' line='153' column='1' id='892f44a7'/>
        </member-type>
        <member-type access='public'>
          <typedef-decl name='pointer' type-id='641a7da5' filepath='/usr/include/c++/4.9/bits/stl_iterator_base_types.h' line='154' column='1' id='58e27902'/>
        </member-type>
        <member-type access='public'>
          <typedef-decl name='reference' type-id='9da63511' filepath='/usr/include/c++/4.9/bits/stl_iterator_base_types.h' line='155' column='1' id='d8ed1ab2'/>
        </member-type>
      </class-decl>
      <class-decl name='__iterator_traits&lt;std::_Bit_iterator, true&gt;' size-in-bits='8' is-struct='yes' visibility='default' filepath='/usr/include/c++/4.9/bits/stl_iterator_base_types.h' line='149' column='1' id='45259c90'>
        <member-type access='public'>
          <typedef-decl name='difference_type' type-id='fa724ca1' filepath='/usr/include/c++/4.9/bits/stl_iterator_base_types.h' line='153' column='1' id='37ca34f7'/>
        </member-type>
        <member-type access='public'>
          <typedef-decl name='pointer' type-id='77abf6d5' filepath='/usr/include/c++/4.9/bits/stl_iterator_base_types.h' line='154' column='1' id='fb8b90d2'/>
        </member-type>
        <member-type access='public'>
          <typedef-decl name='reference' type-id='fca1f6a1' filepath='/usr/include/c++/4.9/bits/stl_iterator_base_types.h' line='155' column='1' id='938866e2'/>
        </member-type>
      </class-decl>
      <class-decl name='iterator_traits&lt;char*&gt;' size-in-bits='8' is-struct='yes' visibility='default' filepath='/usr/include/c++/4.9/bits/stl_iterator_base_types.h' line='175' column='1' id='484c8eec'>
        <member-type access='public'>
          <typedef-decl name='difference_type' type-id='d368b855' filepath='/usr/include/c++/4.9/bits/stl_iterator_base_types.h' line='179' column='1' id='5270b9ad'/>
        </member-type>
        <member-type access='public'>
          <typedef-decl name='pointer' type-id='26a90f95' filepath='/usr/include/c++/4.9/bits/stl_iterator_base_types.h' line='180' column='1' id='95318974'/>
        </member-type>
        <member-type access='public'>
          <typedef-decl name='reference' type-id='2aa915e1' filepath='/usr/include/c++/4.9/bits/stl_iterator_base_types.h' line='181' column='1' id='8a30d254'/>
        </member-type>
      </class-decl>
      <class-decl name='iterator_traits&lt;std::basic_string&lt;char, std::char_traits&lt;char&gt;, std::allocator&lt;char&gt; &gt;*&gt;' size-in-bits='8' is-struct='yes' visibility='default' filepath='/usr/include/c++/4.9/bits/stl_iterator_base_types.h' line='175' column='1' id='a01ce5f6'>
        <member-type access='public'>
          <typedef-decl name='value_type' type-id='c2931f67' filepath='/usr/include/c++/4.9/bits/stl_iterator_base_types.h' line='178' column='1' id='1c78be0f'/>
        </member-type>
        <member-type access='public'>
          <typedef-decl name='difference_type' type-id='d368b855' filepath='/usr/include/c++/4.9/bits/stl_iterator_base_types.h' line='179' column='1' id='f4cdfb57'/>
        </member-type>
        <member-type access='public'>
          <typedef-decl name='pointer' type-id='16934a6f' filepath='/usr/include/c++/4.9/bits/stl_iterator_base_types.h' line='180' column='1' id='024c2d72'/>
        </member-type>
        <member-type access='public'>
          <typedef-decl name='reference' type-id='1a9350bb' filepath='/usr/include/c++/4.9/bits/stl_iterator_base_types.h' line='181' column='1' id='53270182'/>
        </member-type>
      </class-decl>
      <class-decl name='iterator_traits&lt;char const*&gt;' size-in-bits='8' is-struct='yes' visibility='default' filepath='/usr/include/c++/4.9/bits/stl_iterator_base_types.h' line='186' column='1' id='63567803'>
        <member-type access='public'>
          <typedef-decl name='difference_type' type-id='d368b855' filepath='/usr/include/c++/4.9/bits/stl_iterator_base_types.h' line='190' column='1' id='f809c500'/>
        </member-type>
        <member-type access='public'>
          <typedef-decl name='pointer' type-id='80f4b756' filepath='/usr/include/c++/4.9/bits/stl_iterator_base_types.h' line='191' column='1' id='03971db5'/>
        </member-type>
        <member-type access='public'>
          <typedef-decl name='reference' type-id='8cf4ca3a' filepath='/usr/include/c++/4.9/bits/stl_iterator_base_types.h' line='192' column='1' id='a86ca381'/>
        </member-type>
      </class-decl>
      <class-decl name='iterator_traits&lt;const std::basic_string&lt;char, std::char_traits&lt;char&gt;, std::allocator&lt;char&gt; &gt;*&gt;' size-in-bits='8' is-struct='yes' visibility='default' filepath='/usr/include/c++/4.9/bits/stl_iterator_base_types.h' line='186' column='1' id='f49ec107'>
        <member-type access='public'>
          <typedef-decl name='difference_type' type-id='d368b855' filepath='/usr/include/c++/4.9/bits/stl_iterator_base_types.h' line='190' column='1' id='11d199e4'/>
        </member-type>
        <member-type access='public'>
          <typedef-decl name='pointer' type-id='118dd888' filepath='/usr/include/c++/4.9/bits/stl_iterator_base_types.h' line='191' column='1' id='9d71d9e9'/>
        </member-type>
        <member-type access='public'>
          <typedef-decl name='reference' type-id='0d8dd23c' filepath='/usr/include/c++/4.9/bits/stl_iterator_base_types.h' line='192' column='1' id='c9190c45'/>
        </member-type>
      </class-decl>
      <class-decl name='_Iter_base&lt;__gnu_cxx::__normal_iterator&lt;const std::basic_string&lt;char, std::char_traits&lt;char&gt;, std::allocator&lt;char&gt; &gt;*, std::vector&lt;std::basic_string&lt;char, std::char_traits&lt;char&gt;, std::allocator&lt;char&gt; &gt;, std::allocator&lt;std::basic_string&lt;char, std::char_traits&lt;char&gt;, std::allocator&lt;char&gt; &gt; &gt; &gt; &gt;, false&gt;' size-in-bits='8' is-struct='yes' visibility='default' filepath='/usr/include/c++/4.9/bits/stl_iterator_base_types.h' line='209' column='1' id='7ba0e657'>
        <member-type access='public'>
          <typedef-decl name='iterator_type' type-id='9f371d90' filepath='/usr/include/c++/4.9/bits/stl_iterator_base_types.h' line='211' column='1' id='1ccd2187'/>
        </member-type>
        <member-function access='public' static='yes'>
          <function-decl name='_S_base' mangled-name='_ZNSt10_Iter_baseIN9__gnu_cxx17__normal_iteratorIPKSsSt6vectorISsSaISsEEEELb0EE7_S_baseES7_' filepath='/usr/include/c++/4.9/bits/stl_iterator_base_types.h' line='212' column='1' visibility='default' binding='global' size-in-bits='64' elf-symbol-id='_ZNSt10_Iter_baseIN9__gnu_cxx17__normal_iteratorIPKSsSt6vectorISsSaISsEEEELb0EE7_S_baseES7_'>
            <parameter type-id='9f371d90'/>
            <return type-id='1ccd2187'/>
          </function-decl>
        </member-function>
      </class-decl>
      <class-decl name='_Iter_base&lt;std::basic_string&lt;char, std::char_traits&lt;char&gt;, std::allocator&lt;char&gt; &gt;*, false&gt;' size-in-bits='8' is-struct='yes' visibility='default' filepath='/usr/include/c++/4.9/bits/stl_iterator_base_types.h' line='209' column='1' id='d09daff0'>
        <member-type access='public'>
          <typedef-decl name='iterator_type' type-id='16934a6f' filepath='/usr/include/c++/4.9/bits/stl_iterator_base_types.h' line='211' column='1' id='4f72b00a'/>
        </member-type>
        <member-function access='public' static='yes'>
          <function-decl name='_S_base' mangled-name='_ZNSt10_Iter_baseIPSsLb0EE7_S_baseES0_' filepath='/usr/include/c++/4.9/bits/stl_iterator_base_types.h' line='212' column='1' visibility='default' binding='global' size-in-bits='64' elf-symbol-id='_ZNSt10_Iter_baseIPSsLb0EE7_S_baseES0_'>
            <parameter type-id='16934a6f'/>
            <return type-id='4f72b00a'/>
          </function-decl>
        </member-function>
      </class-decl>
      <class-decl name='_Iter_base&lt;__gnu_cxx::__normal_iterator&lt;const std::basic_string&lt;char, std::char_traits&lt;char&gt;, std::allocator&lt;char&gt; &gt;*, std::vector&lt;std::basic_string&lt;char, std::char_traits&lt;char&gt;, std::allocator&lt;char&gt; &gt;, std::allocator&lt;std::basic_string&lt;char, std::char_traits&lt;char&gt;, std::allocator&lt;char&gt; &gt; &gt; &gt; &gt;, true&gt;' size-in-bits='8' is-struct='yes' visibility='default' filepath='/usr/include/c++/4.9/bits/stl_iterator_base_types.h' line='217' column='1' id='54064a72'>
        <member-type access='public'>
          <typedef-decl name='iterator_type' type-id='825fdd66' filepath='/usr/include/c++/4.9/bits/stl_iterator_base_types.h' line='219' column='1' id='e0dcf582'/>
        </member-type>
        <member-function access='public' static='yes'>
          <function-decl name='_S_base' mangled-name='_ZNSt10_Iter_baseIN9__gnu_cxx17__normal_iteratorIPKSsSt6vectorISsSaISsEEEELb1EE7_S_baseES7_' filepath='/usr/include/c++/4.9/bits/stl_iterator_base_types.h' line='220' column='1' visibility='default' binding='global' size-in-bits='64' elf-symbol-id='_ZNSt10_Iter_baseIN9__gnu_cxx17__normal_iteratorIPKSsSt6vectorISsSaISsEEEELb1EE7_S_baseES7_'>
            <parameter type-id='9f371d90'/>
            <return type-id='e0dcf582'/>
          </function-decl>
        </member-function>
      </class-decl>
      <class-decl name='_Iter_base&lt;__gnu_cxx::__normal_iterator&lt;std::basic_string&lt;char, std::char_traits&lt;char&gt;, std::allocator&lt;char&gt; &gt;*, std::vector&lt;std::basic_string&lt;char, std::char_traits&lt;char&gt;, std::allocator&lt;char&gt; &gt;, std::allocator&lt;std::basic_string&lt;char, std::char_traits&lt;char&gt;, std::allocator&lt;char&gt; &gt; &gt; &gt; &gt;, true&gt;' size-in-bits='8' is-struct='yes' visibility='default' filepath='/usr/include/c++/4.9/bits/stl_iterator_base_types.h' line='217' column='1' id='729647a5'>
        <member-type access='public'>
          <typedef-decl name='iterator_type' type-id='78a5b16d' filepath='/usr/include/c++/4.9/bits/stl_iterator_base_types.h' line='219' column='1' id='55523043'/>
        </member-type>
        <member-function access='public' static='yes'>
          <function-decl name='_S_base' mangled-name='_ZNSt10_Iter_baseIN9__gnu_cxx17__normal_iteratorIPSsSt6vectorISsSaISsEEEELb1EE7_S_baseES6_' filepath='/usr/include/c++/4.9/bits/stl_iterator_base_types.h' line='220' column='1' visibility='default' binding='global' size-in-bits='64' elf-symbol-id='_ZNSt10_Iter_baseIN9__gnu_cxx17__normal_iteratorIPSsSt6vectorISsSaISsEEEELb1EE7_S_baseES6_'>
            <parameter type-id='fe24d8b1'/>
            <return type-id='55523043'/>
          </function-decl>
        </member-function>
      </class-decl>
      <class-decl name='_List_node&lt;mongo::optionenvironment::OptionDescription&gt;' size-in-bits='2496' is-struct='yes' visibility='default' filepath='/usr/include/c++/4.9/bits/stl_list.h' line='106' column='1' id='cd342967'>
        <base-class access='public' layout-offset-in-bits='0' type-id='c3d55545'/>
        <data-member access='public' layout-offset-in-bits='128'>
          <var-decl name='_M_data' type-id='5065f754' visibility='default' filepath='/usr/include/c++/4.9/bits/stl_list.h' line='109' column='1'/>
        </data-member>
      </class-decl>
      <class-decl name='_List_node&lt;mongo::optionenvironment::OptionSection&gt;' size-in-bits='448' is-struct='yes' visibility='default' filepath='/usr/include/c++/4.9/bits/stl_list.h' line='106' column='1' id='8c85715c'>
        <base-class access='public' layout-offset-in-bits='0' type-id='c3d55545'/>
        <data-member access='public' layout-offset-in-bits='128'>
          <var-decl name='_M_data' type-id='29a39e7d' visibility='default' filepath='/usr/include/c++/4.9/bits/stl_list.h' line='109' column='1'/>
        </data-member>
      </class-decl>
      <class-decl name='_List_base&lt;mongo::optionenvironment::OptionDescription, std::allocator&lt;mongo::optionenvironment::OptionDescription&gt; &gt;' size-in-bits='128' visibility='default' filepath='/usr/include/c++/4.9/bits/stl_list.h' line='298' column='1' id='3d22250d'>
        <member-type access='protected'>
          <typedef-decl name='_Node_alloc_type' type-id='1a78362d' filepath='/usr/include/c++/4.9/bits/stl_list.h' line='315' column='1' id='ad5e76c4'/>
        </member-type>
        <member-type access='protected'>
          <typedef-decl name='_Tp_alloc_type' type-id='19734e4c' filepath='/usr/include/c++/4.9/bits/stl_list.h' line='317' column='1' id='55b896e8'/>
        </member-type>
        <member-type access='protected'>
          <class-decl name='_List_impl' size-in-bits='128' is-struct='yes' visibility='default' filepath='/usr/include/c++/4.9/bits/stl_list.h' line='319' column='1' id='23bb83e9'>
            <base-class access='public' layout-offset-in-bits='0' type-id='b449e105'/>
            <data-member access='public' layout-offset-in-bits='0'>
              <var-decl name='_M_node' type-id='c3d55545' visibility='default' filepath='/usr/include/c++/4.9/bits/stl_list.h' line='322' column='1'/>
            </data-member>
            <member-function access='public' constructor='yes'>
              <function-decl name='_List_impl' filepath='/usr/include/c++/4.9/bits/stl_list.h' line='324' column='1' visibility='default' binding='global' size-in-bits='64'>
                <parameter type-id='bf5dc171' is-artificial='yes'/>
                <return type-id='48b5725f'/>
              </function-decl>
            </member-function>
            <member-function access='public' constructor='yes'>
              <function-decl name='_List_impl' filepath='/usr/include/c++/4.9/bits/stl_list.h' line='328' column='1' visibility='default' binding='global' size-in-bits='64'>
                <parameter type-id='bf5dc171' is-artificial='yes'/>
                <parameter type-id='85a8ebd6'/>
                <return type-id='48b5725f'/>
              </function-decl>
            </member-function>
            <member-function access='public' constructor='yes'>
              <function-decl name='_List_impl' filepath='/usr/include/c++/4.9/bits/stl_list.h' line='333' column='1' visibility='default' binding='global' size-in-bits='64'>
                <parameter type-id='bf5dc171' is-artificial='yes'/>
                <parameter type-id='0c5b3871'/>
                <return type-id='48b5725f'/>
              </function-decl>
            </member-function>
            <member-function access='public' constructor='yes'>
              <function-decl name='_List_impl' mangled-name='_ZNSt10_List_baseIN5mongo17optionenvironment17OptionDescriptionESaIS2_EE10_List_implC2Ev' filepath='/usr/include/c++/4.9/bits/stl_list.h' line='324' column='1' visibility='default' binding='global' size-in-bits='64' elf-symbol-id='_ZNSt10_List_baseIN5mongo17optionenvironment17OptionDescriptionESaIS2_EE10_List_implC2Ev'>
                <parameter type-id='bf5dc171' is-artificial='yes'/>
                <return type-id='48b5725f'/>
              </function-decl>
            </member-function>
          </class-decl>
        </member-type>
        <member-type access='public'>
          <typedef-decl name='allocator_type' type-id='052d8e22' filepath='/usr/include/c++/4.9/bits/stl_list.h' line='350' column='1' id='7edf4b6a'/>
        </member-type>
        <data-member access='protected' layout-offset-in-bits='0'>
          <var-decl name='_M_impl' type-id='23bb83e9' visibility='default' filepath='/usr/include/c++/4.9/bits/stl_list.h' line='339' column='1'/>
        </data-member>
        <member-function access='public'>
          <function-decl name='_List_base' filepath='/usr/include/c++/4.9/bits/stl_list.h' line='368' column='1' visibility='default' binding='global' size-in-bits='64'>
            <parameter type-id='ff67f76d' is-artificial='yes'/>
            <return type-id='48b5725f'/>
          </function-decl>
        </member-function>
        <member-function access='public'>
          <function-decl name='_List_base' filepath='/usr/include/c++/4.9/bits/stl_list.h' line='372' column='1' visibility='default' binding='global' size-in-bits='64'>
            <parameter type-id='ff67f76d' is-artificial='yes'/>
            <parameter type-id='85a8ebd6'/>
            <return type-id='48b5725f'/>
          </function-decl>
        </member-function>
        <member-function access='public'>
          <function-decl name='_List_base' filepath='/usr/include/c++/4.9/bits/stl_list.h' line='377' column='1' visibility='default' binding='global' size-in-bits='64'>
            <parameter type-id='ff67f76d' is-artificial='yes'/>
            <parameter type-id='db8cff7d'/>
            <return type-id='48b5725f'/>
          </function-decl>
        </member-function>
        <member-function access='public' destructor='yes'>
          <function-decl name='~_List_base' filepath='/usr/include/c++/4.9/bits/stl_list.h' line='386' column='1' visibility='default' binding='global' size-in-bits='64'>
            <parameter type-id='ff67f76d' is-artificial='yes'/>
            <parameter type-id='95e97e5e' is-artificial='yes'/>
            <return type-id='48b5725f'/>
          </function-decl>
        </member-function>
        <member-function access='public' destructor='yes'>
          <function-decl name='~_List_base' mangled-name='_ZNSt10_List_baseIN5mongo17optionenvironment17OptionDescriptionESaIS2_EED2Ev' filepath='/usr/include/c++/4.9/bits/stl_list.h' line='386' column='1' visibility='default' binding='global' size-in-bits='64' elf-symbol-id='_ZNSt10_List_baseIN5mongo17optionenvironment17OptionDescriptionESaIS2_EED2Ev'>
            <parameter type-id='ff67f76d' is-artificial='yes'/>
            <parameter type-id='95e97e5e' is-artificial='yes'/>
            <return type-id='48b5725f'/>
          </function-decl>
        </member-function>
        <member-function access='public'>
          <function-decl name='_List_base' mangled-name='_ZNSt10_List_baseIN5mongo17optionenvironment17OptionDescriptionESaIS2_EEC2Ev' filepath='/usr/include/c++/4.9/bits/stl_list.h' line='368' column='1' visibility='default' binding='global' size-in-bits='64' elf-symbol-id='_ZNSt10_List_baseIN5mongo17optionenvironment17OptionDescriptionESaIS2_EEC2Ev'>
            <parameter type-id='ff67f76d' is-artificial='yes'/>
            <return type-id='48b5725f'/>
          </function-decl>
        </member-function>
        <member-function access='public'>
          <function-decl name='_M_clear' mangled-name='_ZNSt10_List_baseIN5mongo17optionenvironment17OptionDescriptionESaIS2_EE8_M_clearEv' filepath='/usr/include/c++/4.9/bits/list.tcc' line='65' column='1' visibility='default' binding='global' size-in-bits='64' elf-symbol-id='_ZNSt10_List_baseIN5mongo17optionenvironment17OptionDescriptionESaIS2_EE8_M_clearEv'>
            <parameter type-id='ff67f76d' is-artificial='yes'/>
            <return type-id='48b5725f'/>
          </function-decl>
        </member-function>
        <member-function access='public'>
          <function-decl name='_M_init' mangled-name='_ZNSt10_List_baseIN5mongo17optionenvironment17OptionDescriptionESaIS2_EE7_M_initEv' filepath='/usr/include/c++/4.9/bits/stl_list.h' line='393' column='1' visibility='default' binding='global' size-in-bits='64' elf-symbol-id='_ZNSt10_List_baseIN5mongo17optionenvironment17OptionDescriptionESaIS2_EE7_M_initEv'>
            <parameter type-id='ff67f76d' is-artificial='yes'/>
            <return type-id='48b5725f'/>
          </function-decl>
        </member-function>
        <member-function access='public'>
          <function-decl name='_M_get_Node_allocator' mangled-name='_ZNSt10_List_baseIN5mongo17optionenvironment17OptionDescriptionESaIS2_EE21_M_get_Node_allocatorEv' filepath='/usr/include/c++/4.9/bits/stl_list.h' line='353' column='1' visibility='default' binding='global' size-in-bits='64' elf-symbol-id='_ZNSt10_List_baseIN5mongo17optionenvironment17OptionDescriptionESaIS2_EE21_M_get_Node_allocatorEv'>
            <parameter type-id='ff67f76d' is-artificial='yes'/>
            <return type-id='8015304d'/>
          </function-decl>
        </member-function>
        <member-function access='protected'>
          <function-decl name='_M_put_node' mangled-name='_ZNSt10_List_baseIN5mongo17optionenvironment17OptionDescriptionESaIS2_EE11_M_put_nodeEPSt10_List_nodeIS2_E' filepath='/usr/include/c++/4.9/bits/stl_list.h' line='346' column='1' visibility='default' binding='global' size-in-bits='64' elf-symbol-id='_ZNSt10_List_baseIN5mongo17optionenvironment17OptionDescriptionESaIS2_EE11_M_put_nodeEPSt10_List_nodeIS2_E'>
            <parameter type-id='ff67f76d' is-artificial='yes'/>
            <parameter type-id='58e245cf'/>
            <return type-id='48b5725f'/>
          </function-decl>
        </member-function>
      </class-decl>
      <class-decl name='_List_base&lt;mongo::optionenvironment::OptionSection, std::allocator&lt;mongo::optionenvironment::OptionSection&gt; &gt;' size-in-bits='128' visibility='default' filepath='/usr/include/c++/4.9/bits/stl_list.h' line='298' column='1' id='1f70009d'>
        <member-type access='protected'>
          <typedef-decl name='_Node_alloc_type' type-id='1e830f0f' filepath='/usr/include/c++/4.9/bits/stl_list.h' line='315' column='1' id='a4696aa4'/>
        </member-type>
        <member-type access='protected'>
          <typedef-decl name='_Tp_alloc_type' type-id='a3a015fa' filepath='/usr/include/c++/4.9/bits/stl_list.h' line='317' column='1' id='a0f7abc8'/>
        </member-type>
        <member-type access='protected'>
          <class-decl name='_List_impl' size-in-bits='128' is-struct='yes' visibility='default' filepath='/usr/include/c++/4.9/bits/stl_list.h' line='319' column='1' id='8f875259'>
            <base-class access='public' layout-offset-in-bits='0' type-id='f9660eda'/>
            <data-member access='public' layout-offset-in-bits='0'>
              <var-decl name='_M_node' type-id='c3d55545' visibility='default' filepath='/usr/include/c++/4.9/bits/stl_list.h' line='322' column='1'/>
            </data-member>
            <member-function access='public' constructor='yes'>
              <function-decl name='_List_impl' filepath='/usr/include/c++/4.9/bits/stl_list.h' line='324' column='1' visibility='default' binding='global' size-in-bits='64'>
                <parameter type-id='32c170e1' is-artificial='yes'/>
                <return type-id='48b5725f'/>
              </function-decl>
            </member-function>
            <member-function access='public' constructor='yes'>
              <function-decl name='_List_impl' filepath='/usr/include/c++/4.9/bits/stl_list.h' line='328' column='1' visibility='default' binding='global' size-in-bits='64'>
                <parameter type-id='32c170e1' is-artificial='yes'/>
                <parameter type-id='8e4e6976'/>
                <return type-id='48b5725f'/>
              </function-decl>
            </member-function>
            <member-function access='public' constructor='yes'>
              <function-decl name='_List_impl' filepath='/usr/include/c++/4.9/bits/stl_list.h' line='333' column='1' visibility='default' binding='global' size-in-bits='64'>
                <parameter type-id='32c170e1' is-artificial='yes'/>
                <parameter type-id='d239d521'/>
                <return type-id='48b5725f'/>
              </function-decl>
            </member-function>
            <member-function access='public' constructor='yes'>
              <function-decl name='_List_impl' mangled-name='_ZNSt10_List_baseIN5mongo17optionenvironment13OptionSectionESaIS2_EE10_List_implC2Ev' filepath='/usr/include/c++/4.9/bits/stl_list.h' line='324' column='1' visibility='default' binding='global' size-in-bits='64' elf-symbol-id='_ZNSt10_List_baseIN5mongo17optionenvironment13OptionSectionESaIS2_EE10_List_implC2Ev'>
                <parameter type-id='32c170e1' is-artificial='yes'/>
                <return type-id='48b5725f'/>
              </function-decl>
            </member-function>
          </class-decl>
        </member-type>
        <member-type access='public'>
          <typedef-decl name='allocator_type' type-id='8122aa85' filepath='/usr/include/c++/4.9/bits/stl_list.h' line='350' column='1' id='041b1b0a'/>
        </member-type>
        <data-member access='protected' layout-offset-in-bits='0'>
          <var-decl name='_M_impl' type-id='8f875259' visibility='default' filepath='/usr/include/c++/4.9/bits/stl_list.h' line='339' column='1'/>
        </data-member>
        <member-function access='public'>
          <function-decl name='_List_base' filepath='/usr/include/c++/4.9/bits/stl_list.h' line='368' column='1' visibility='default' binding='global' size-in-bits='64'>
            <parameter type-id='a93bfc3d' is-artificial='yes'/>
            <return type-id='48b5725f'/>
          </function-decl>
        </member-function>
        <member-function access='public'>
          <function-decl name='_List_base' filepath='/usr/include/c++/4.9/bits/stl_list.h' line='372' column='1' visibility='default' binding='global' size-in-bits='64'>
            <parameter type-id='a93bfc3d' is-artificial='yes'/>
            <parameter type-id='8e4e6976'/>
            <return type-id='48b5725f'/>
          </function-decl>
        </member-function>
        <member-function access='public'>
          <function-decl name='_List_base' filepath='/usr/include/c++/4.9/bits/stl_list.h' line='377' column='1' visibility='default' binding='global' size-in-bits='64'>
            <parameter type-id='a93bfc3d' is-artificial='yes'/>
            <parameter type-id='045092ed'/>
            <return type-id='48b5725f'/>
          </function-decl>
        </member-function>
        <member-function access='public' destructor='yes'>
          <function-decl name='~_List_base' filepath='/usr/include/c++/4.9/bits/stl_list.h' line='386' column='1' visibility='default' binding='global' size-in-bits='64'>
            <parameter type-id='a93bfc3d' is-artificial='yes'/>
            <parameter type-id='95e97e5e' is-artificial='yes'/>
            <return type-id='48b5725f'/>
          </function-decl>
        </member-function>
        <member-function access='public' destructor='yes'>
          <function-decl name='~_List_base' mangled-name='_ZNSt10_List_baseIN5mongo17optionenvironment13OptionSectionESaIS2_EED2Ev' filepath='/usr/include/c++/4.9/bits/stl_list.h' line='386' column='1' visibility='default' binding='global' size-in-bits='64' elf-symbol-id='_ZNSt10_List_baseIN5mongo17optionenvironment13OptionSectionESaIS2_EED2Ev'>
            <parameter type-id='a93bfc3d' is-artificial='yes'/>
            <parameter type-id='95e97e5e' is-artificial='yes'/>
            <return type-id='48b5725f'/>
          </function-decl>
        </member-function>
        <member-function access='public'>
          <function-decl name='_List_base' mangled-name='_ZNSt10_List_baseIN5mongo17optionenvironment13OptionSectionESaIS2_EEC2Ev' filepath='/usr/include/c++/4.9/bits/stl_list.h' line='368' column='1' visibility='default' binding='global' size-in-bits='64' elf-symbol-id='_ZNSt10_List_baseIN5mongo17optionenvironment13OptionSectionESaIS2_EEC2Ev'>
            <parameter type-id='a93bfc3d' is-artificial='yes'/>
            <return type-id='48b5725f'/>
          </function-decl>
        </member-function>
        <member-function access='public'>
          <function-decl name='_M_clear' mangled-name='_ZNSt10_List_baseIN5mongo17optionenvironment13OptionSectionESaIS2_EE8_M_clearEv' filepath='/usr/include/c++/4.9/bits/list.tcc' line='65' column='1' visibility='default' binding='global' size-in-bits='64' elf-symbol-id='_ZNSt10_List_baseIN5mongo17optionenvironment13OptionSectionESaIS2_EE8_M_clearEv'>
            <parameter type-id='a93bfc3d' is-artificial='yes'/>
            <return type-id='48b5725f'/>
          </function-decl>
        </member-function>
        <member-function access='public'>
          <function-decl name='_M_init' mangled-name='_ZNSt10_List_baseIN5mongo17optionenvironment13OptionSectionESaIS2_EE7_M_initEv' filepath='/usr/include/c++/4.9/bits/stl_list.h' line='393' column='1' visibility='default' binding='global' size-in-bits='64' elf-symbol-id='_ZNSt10_List_baseIN5mongo17optionenvironment13OptionSectionESaIS2_EE7_M_initEv'>
            <parameter type-id='a93bfc3d' is-artificial='yes'/>
            <return type-id='48b5725f'/>
          </function-decl>
        </member-function>
        <member-function access='public'>
          <function-decl name='_M_get_Node_allocator' mangled-name='_ZNSt10_List_baseIN5mongo17optionenvironment13OptionSectionESaIS2_EE21_M_get_Node_allocatorEv' filepath='/usr/include/c++/4.9/bits/stl_list.h' line='353' column='1' visibility='default' binding='global' size-in-bits='64' elf-symbol-id='_ZNSt10_List_baseIN5mongo17optionenvironment13OptionSectionESaIS2_EE21_M_get_Node_allocatorEv'>
            <parameter type-id='a93bfc3d' is-artificial='yes'/>
