<abi-corpus version='2.1' path='data/test-read-dwarf/test9-pr18818-clang.so'>
  <elf-needed>
    <dependency name='build/debug/third_party/boost-1.56.0/libboost_system.so'/>
    <dependency name='libm.so.6'/>
    <dependency name='librt.so.1'/>
    <dependency name='libdl.so.2'/>
    <dependency name='libstdc++.so.6'/>
    <dependency name='libgcc_s.so.1'/>
    <dependency name='libpthread.so.0'/>
    <dependency name='libc.so.6'/>
  </elf-needed>
  <elf-function-symbols>
    <elf-symbol name='_ZN5boost10filesystem10is_symlinkENS0_11file_statusE' type='func-type' binding='weak-binding' visibility='default-visibility' is-defined='yes'/>
    <elf-symbol name='_ZN5boost10filesystem11file_statusC2ENS0_9file_typeENS0_5permsE' type='func-type' binding='weak-binding' visibility='default-visibility' is-defined='yes'/>
    <elf-symbol name='_ZN5boost10filesystem11file_statusC2Ev' type='func-type' binding='weak-binding' visibility='default-visibility' is-defined='yes'/>
    <elf-symbol name='_ZN5boost10filesystem11path_traits7convertEPKcRSsRKSt7codecvtIwc11__mbstate_tE' type='func-type' binding='weak-binding' visibility='default-visibility' is-defined='yes'/>
    <elf-symbol name='_ZN5boost10filesystem11path_traits7convertEPKcS3_RSbIwSt11char_traitsIwESaIwEERKSt7codecvtIwc11__mbstate_tE' type='func-type' binding='global-binding' visibility='default-visibility' is-defined='yes'/>
    <elf-symbol name='_ZN5boost10filesystem11path_traits7convertEPKcS3_RSsRKSt7codecvtIwc11__mbstate_tE' type='func-type' binding='weak-binding' visibility='default-visibility' is-defined='yes'/>
    <elf-symbol name='_ZN5boost10filesystem11path_traits7convertEPKwS3_RSsRKSt7codecvtIwc11__mbstate_tE' type='func-type' binding='global-binding' visibility='default-visibility' is-defined='yes'/>
    <elf-symbol name='_ZN5boost10filesystem11path_traits8dispatchERKNS0_15directory_entryERSsRKSt7codecvtIwc11__mbstate_tE' type='func-type' binding='global-binding' visibility='default-visibility' is-defined='yes'/>
    <elf-symbol name='_ZN5boost10filesystem11path_traits8dispatchISsEEvRKSbIwSt11char_traitsIwESaIwEERT_RKSt7codecvtIwc11__mbstate_tE' type='func-type' binding='weak-binding' visibility='default-visibility' is-defined='yes'/>
    <elf-symbol name='_ZN5boost10filesystem11path_traits8dispatchISsEEvRKSsRT_RKSt7codecvtIwc11__mbstate_tE' type='func-type' binding='weak-binding' visibility='default-visibility' is-defined='yes'/>
    <elf-symbol name='_ZN5boost10filesystem11path_traits8dispatchIcSsEEvRKPT_RT0_RKSt7codecvtIwc11__mbstate_tE' type='func-type' binding='weak-binding' visibility='default-visibility' is-defined='yes'/>
    <elf-symbol name='_ZN5boost10filesystem12copy_symlinkERKNS0_4pathES3_RNS_6system10error_codeE' type='func-type' binding='weak-binding' visibility='default-visibility' is-defined='yes'/>
    <elf-symbol name='_ZN5boost10filesystem12current_pathEv' type='func-type' binding='weak-binding' visibility='default-visibility' is-defined='yes'/>
    <elf-symbol name='_ZN5boost10filesystem12is_directoryENS0_11file_statusE' type='func-type' binding='weak-binding' visibility='default-visibility' is-defined='yes'/>
    <elf-symbol name='_ZN5boost10filesystem12is_directoryERKNS0_4pathE' type='func-type' binding='weak-binding' visibility='default-visibility' is-defined='yes'/>
    <elf-symbol name='_ZN5boost10filesystem12is_directoryERKNS0_4pathERNS_6system10error_codeE' type='func-type' binding='weak-binding' visibility='default-visibility' is-defined='yes'/>
    <elf-symbol name='_ZN5boost10filesystem12status_knownENS0_11file_statusE' type='func-type' binding='weak-binding' visibility='default-visibility' is-defined='yes'/>
    <elf-symbol name='_ZN5boost10filesystem12type_presentENS0_11file_statusE' type='func-type' binding='weak-binding' visibility='default-visibility' is-defined='yes'/>
    <elf-symbol name='_ZN5boost10filesystem12windows_nameERKSs' type='func-type' binding='global-binding' visibility='default-visibility' is-defined='yes'/>
    <elf-symbol name='_ZN5boost10filesystem13portable_nameERKSs' type='func-type' binding='global-binding' visibility='default-visibility' is-defined='yes'/>
    <elf-symbol name='_ZN5boost10filesystem14copy_directoryERKNS0_4pathES3_RNS_6system10error_codeE' type='func-type' binding='weak-binding' visibility='default-visibility' is-defined='yes'/>
    <elf-symbol name='_ZN5boost10filesystem14symlink_statusERKNS0_4pathERNS_6system10error_codeE' type='func-type' binding='weak-binding' visibility='default-visibility' is-defined='yes'/>
    <elf-symbol name='_ZN5boost10filesystem15directory_entry16replace_filenameERKNS0_4pathENS0_11file_statusES5_' type='func-type' binding='weak-binding' visibility='default-visibility' is-defined='yes'/>
    <elf-symbol name='_ZN5boost10filesystem15directory_entry6assignERKNS0_4pathENS0_11file_statusES5_' type='func-type' binding='weak-binding' visibility='default-visibility' is-defined='yes'/>
    <elf-symbol name='_ZN5boost10filesystem15directory_entryC2Ev' type='func-type' binding='weak-binding' visibility='default-visibility' is-defined='yes'/>
    <elf-symbol name='_ZN5boost10filesystem15directory_entryD2Ev' type='func-type' binding='weak-binding' visibility='default-visibility' is-defined='yes'/>
    <elf-symbol name='_ZN5boost10filesystem15is_regular_fileENS0_11file_statusE' type='func-type' binding='weak-binding' visibility='default-visibility' is-defined='yes'/>
    <elf-symbol name='_ZN5boost10filesystem16filesystem_error5m_impC2Ev' type='func-type' binding='weak-binding' visibility='default-visibility' is-defined='yes'/>
    <elf-symbol name='_ZN5boost10filesystem16filesystem_error5m_impD2Ev' type='func-type' binding='weak-binding' visibility='default-visibility' is-defined='yes'/>
    <elf-symbol name='_ZN5boost10filesystem16filesystem_errorC2ERKSsNS_6system10error_codeE' type='func-type' binding='weak-binding' visibility='default-visibility' is-defined='yes'/>
    <elf-symbol name='_ZN5boost10filesystem16filesystem_errorC2ERKSsRKNS0_4pathENS_6system10error_codeE' type='func-type' binding='weak-binding' visibility='default-visibility' is-defined='yes'/>
    <elf-symbol name='_ZN5boost10filesystem16filesystem_errorC2ERKSsRKNS0_4pathES6_NS_6system10error_codeE' type='func-type' binding='weak-binding' visibility='default-visibility' is-defined='yes'/>
    <elf-symbol name='_ZN5boost10filesystem16filesystem_errorD0Ev' type='func-type' binding='weak-binding' visibility='default-visibility' is-defined='yes'/>
    <elf-symbol name='_ZN5boost10filesystem16filesystem_errorD2Ev' type='func-type' binding='weak-binding' visibility='default-visibility' is-defined='yes'/>
    <elf-symbol name='_ZN5boost10filesystem18create_directoriesERKNS0_4pathERNS_6system10error_codeE' type='func-type' binding='weak-binding' visibility='default-visibility' is-defined='yes'/>
    <elf-symbol name='_ZN5boost10filesystem18directory_iterator9incrementERNS_6system10error_codeE' type='func-type' binding='weak-binding' visibility='default-visibility' is-defined='yes'/>
    <elf-symbol name='_ZN5boost10filesystem18directory_iterator9incrementEv' type='func-type' binding='weak-binding' visibility='default-visibility' is-defined='yes'/>
    <elf-symbol name='_ZN5boost10filesystem18directory_iteratorC2ERKNS0_4pathE' type='func-type' binding='weak-binding' visibility='default-visibility' is-defined='yes'/>
    <elf-symbol name='_ZN5boost10filesystem18directory_iteratorC2Ev' type='func-type' binding='weak-binding' visibility='default-visibility' is-defined='yes'/>
    <elf-symbol name='_ZN5boost10filesystem18directory_iteratorD2Ev' type='func-type' binding='weak-binding' visibility='default-visibility' is-defined='yes'/>
    <elf-symbol name='_ZN5boost10filesystem18portable_file_nameERKSs' type='func-type' binding='global-binding' visibility='default-visibility' is-defined='yes'/>
    <elf-symbol name='_ZN5boost10filesystem19permissions_presentENS0_11file_statusE' type='func-type' binding='weak-binding' visibility='default-visibility' is-defined='yes'/>
    <elf-symbol name='_ZN5boost10filesystem19portable_posix_nameERKSs' type='func-type' binding='global-binding' visibility='default-visibility' is-defined='yes'/>
    <elf-symbol name='_ZN5boost10filesystem22codecvt_error_categoryEv' type='func-type' binding='global-binding' visibility='default-visibility' is-defined='yes'/>
    <elf-symbol name='_ZN5boost10filesystem23portable_directory_nameERKSs' type='func-type' binding='global-binding' visibility='default-visibility' is-defined='yes'/>
    <elf-symbol name='_ZN5boost10filesystem4path11m_normalizeEv' type='func-type' binding='global-binding' visibility='default-visibility' is-defined='yes'/>
    <elf-symbol name='_ZN5boost10filesystem4path15remove_filenameEv' type='func-type' binding='global-binding' visibility='default-visibility' is-defined='yes'/>
    <elf-symbol name='_ZN5boost10filesystem4path17replace_extensionERKS1_' type='func-type' binding='global-binding' visibility='default-visibility' is-defined='yes'/>
    <elf-symbol name='_ZN5boost10filesystem4path25m_path_iterator_decrementERNS1_8iteratorE' type='func-type' binding='global-binding' visibility='default-visibility' is-defined='yes'/>
    <elf-symbol name='_ZN5boost10filesystem4path25m_path_iterator_incrementERNS1_8iteratorE' type='func-type' binding='global-binding' visibility='default-visibility' is-defined='yes'/>
    <elf-symbol name='_ZN5boost10filesystem4path27m_erase_redundant_separatorEm' type='func-type' binding='global-binding' visibility='default-visibility' is-defined='yes'/>
    <elf-symbol name='_ZN5boost10filesystem4path28m_append_separator_if_neededEv' type='func-type' binding='global-binding' visibility='default-visibility' is-defined='yes'/>
    <elf-symbol name='_ZN5boost10filesystem4path5clearEv' type='func-type' binding='weak-binding' visibility='default-visibility' is-defined='yes'/>
    <elf-symbol name='_ZN5boost10filesystem4path5imbueERKSt6locale' type='func-type' binding='global-binding' visibility='default-visibility' is-defined='yes'/>
    <elf-symbol name='_ZN5boost10filesystem4path6assignIPcEERS1_T_S5_' type='func-type' binding='weak-binding' visibility='default-visibility' is-defined='yes'/>
    <elf-symbol name='_ZN5boost10filesystem4path6assignIPcEERS1_T_S5_RKSt7codecvtIwc11__mbstate_tE' type='func-type' binding='weak-binding' visibility='default-visibility' is-defined='yes'/>
    <elf-symbol name='_ZN5boost10filesystem4path7codecvtEv' type='func-type' binding='global-binding' visibility='default-visibility' is-defined='yes'/>
    <elf-symbol name='_ZN5boost10filesystem4path8iterator9decrementEv' type='func-type' binding='weak-binding' visibility='default-visibility' is-defined='yes'/>
    <elf-symbol name='_ZN5boost10filesystem4path8iterator9incrementEv' type='func-type' binding='weak-binding' visibility='default-visibility' is-defined='yes'/>
    <elf-symbol name='_ZN5boost10filesystem4path8iteratorC2ERKS2_' type='func-type' binding='weak-binding' visibility='default-visibility' is-defined='yes'/>
    <elf-symbol name='_ZN5boost10filesystem4path8iteratorC2Ev' type='func-type' binding='weak-binding' visibility='default-visibility' is-defined='yes'/>
    <elf-symbol name='_ZN5boost10filesystem4path8iteratorD2Ev' type='func-type' binding='weak-binding' visibility='default-visibility' is-defined='yes'/>
    <elf-symbol name='_ZN5boost10filesystem4pathC2EPKc' type='func-type' binding='weak-binding' visibility='default-visibility' is-defined='yes'/>
    <elf-symbol name='_ZN5boost10filesystem4pathC2ERKS1_' type='func-type' binding='weak-binding' visibility='default-visibility' is-defined='yes'/>
    <elf-symbol name='_ZN5boost10filesystem4pathC2ERKSs' type='func-type' binding='weak-binding' visibility='default-visibility' is-defined='yes'/>
    <elf-symbol name='_ZN5boost10filesystem4pathC2Ev' type='func-type' binding='weak-binding' visibility='default-visibility' is-defined='yes'/>
    <elf-symbol name='_ZN5boost10filesystem4pathC2IPKcEET_S5_' type='func-type' binding='weak-binding' visibility='default-visibility' is-defined='yes'/>
    <elf-symbol name='_ZN5boost10filesystem4pathC2ISbIwSt11char_traitsIwESaIwEEEERKT_PNS_9enable_ifINS0_11path_traits11is_pathableINS_5decayIS7_E4typeEEEvE4typeE' type='func-type' binding='weak-binding' visibility='default-visibility' is-defined='yes'/>
    <elf-symbol name='_ZN5boost10filesystem4pathD2Ev' type='func-type' binding='weak-binding' visibility='default-visibility' is-defined='yes'/>
    <elf-symbol name='_ZN5boost10filesystem4pathaSERKS1_' type='func-type' binding='weak-binding' visibility='default-visibility' is-defined='yes'/>
    <elf-symbol name='_ZN5boost10filesystem4pathaSIPcEENS_9enable_ifINS0_11path_traits11is_pathableINS_5decayIT_E4typeEEERS1_E4typeERKS8_' type='func-type' binding='weak-binding' visibility='default-visibility' is-defined='yes'/>
    <elf-symbol name='_ZN5boost10filesystem4pathaSISsEENS_9enable_ifINS0_11path_traits11is_pathableINS_5decayIT_E4typeEEERS1_E4typeERKS7_' type='func-type' binding='weak-binding' visibility='default-visibility' is-defined='yes'/>
    <elf-symbol name='_ZN5boost10filesystem4pathdVEPKc' type='func-type' binding='global-binding' visibility='default-visibility' is-defined='yes'/>
    <elf-symbol name='_ZN5boost10filesystem4pathdVERKS1_' type='func-type' binding='global-binding' visibility='default-visibility' is-defined='yes'/>
    <elf-symbol name='_ZN5boost10filesystem6detail10equivalentERKNS0_4pathES4_PNS_6system10error_codeE' type='func-type' binding='global-binding' visibility='default-visibility' is-defined='yes'/>
    <elf-symbol name='_ZN5boost10filesystem6detail10remove_allERKNS0_4pathEPNS_6system10error_codeE' type='func-type' binding='global-binding' visibility='default-visibility' is-defined='yes'/>
    <elf-symbol name='_ZN5boost10filesystem6detail11dir_itr_impC2Ev' type='func-type' binding='weak-binding' visibility='default-visibility' is-defined='yes'/>
    <elf-symbol name='_ZN5boost10filesystem6detail11dir_itr_impD2Ev' type='func-type' binding='weak-binding' visibility='default-visibility' is-defined='yes'/>
    <elf-symbol name='_ZN5boost10filesystem6detail11lex_compareENS0_4path8iteratorES3_S3_S3_' type='func-type' binding='global-binding' visibility='default-visibility' is-defined='yes'/>
    <elf-symbol name='_ZN5boost10filesystem6detail11permissionsERKNS0_4pathENS0_5permsEPNS_6system10error_codeE' type='func-type' binding='global-binding' visibility='default-visibility' is-defined='yes'/>
    <elf-symbol name='_ZN5boost10filesystem6detail11resize_fileERKNS0_4pathEmPNS_6system10error_codeE' type='func-type' binding='global-binding' visibility='default-visibility' is-defined='yes'/>
    <elf-symbol name='_ZN5boost10filesystem6detail11unique_pathERKNS0_4pathEPNS_6system10error_codeE' type='func-type' binding='global-binding' visibility='default-visibility' is-defined='yes'/>
    <elf-symbol name='_ZN5boost10filesystem6detail12copy_symlinkERKNS0_4pathES4_PNS_6system10error_codeE' type='func-type' binding='global-binding' visibility='default-visibility' is-defined='yes'/>
    <elf-symbol name='_ZN5boost10filesystem6detail12current_pathEPNS_6system10error_codeE' type='func-type' binding='global-binding' visibility='default-visibility' is-defined='yes'/>
    <elf-symbol name='_ZN5boost10filesystem6detail12current_pathERKNS0_4pathEPNS_6system10error_codeE' type='func-type' binding='global-binding' visibility='default-visibility' is-defined='yes'/>
    <elf-symbol name='_ZN5boost10filesystem6detail12initial_pathEPNS_6system10error_codeE' type='func-type' binding='global-binding' visibility='default-visibility' is-defined='yes'/>
    <elf-symbol name='_ZN5boost10filesystem6detail12read_symlinkERKNS0_4pathEPNS_6system10error_codeE' type='func-type' binding='global-binding' visibility='default-visibility' is-defined='yes'/>
    <elf-symbol name='_ZN5boost10filesystem6detail13dir_itr_closeERPvS3_' type='func-type' binding='global-binding' visibility='default-visibility' is-defined='yes'/>
    <elf-symbol name='_ZN5boost10filesystem6detail14copy_directoryERKNS0_4pathES4_PNS_6system10error_codeE' type='func-type' binding='global-binding' visibility='default-visibility' is-defined='yes'/>
    <elf-symbol name='_ZN5boost10filesystem6detail14create_symlinkERKNS0_4pathES4_PNS_6system10error_codeE' type='func-type' binding='global-binding' visibility='default-visibility' is-defined='yes'/>
    <elf-symbol name='_ZN5boost10filesystem6detail14symlink_statusERKNS0_4pathEPNS_6system10error_codeE' type='func-type' binding='global-binding' visibility='default-visibility' is-defined='yes'/>
    <elf-symbol name='_ZN5boost10filesystem6detail15hard_link_countERKNS0_4pathEPNS_6system10error_codeE' type='func-type' binding='global-binding' visibility='default-visibility' is-defined='yes'/>
    <elf-symbol name='_ZN5boost10filesystem6detail15last_write_timeERKNS0_4pathEPNS_6system10error_codeE' type='func-type' binding='global-binding' visibility='default-visibility' is-defined='yes'/>
    <elf-symbol name='_ZN5boost10filesystem6detail15last_write_timeERKNS0_4pathElPNS_6system10error_codeE' type='func-type' binding='global-binding' visibility='default-visibility' is-defined='yes'/>
    <elf-symbol name='_ZN5boost10filesystem6detail15system_completeERKNS0_4pathEPNS_6system10error_codeE' type='func-type' binding='global-binding' visibility='default-visibility' is-defined='yes'/>
    <elf-symbol name='_ZN5boost10filesystem6detail16create_directoryERKNS0_4pathEPNS_6system10error_codeE' type='func-type' binding='global-binding' visibility='default-visibility' is-defined='yes'/>
    <elf-symbol name='_ZN5boost10filesystem6detail16create_hard_linkERKNS0_4pathES4_PNS_6system10error_codeE' type='func-type' binding='global-binding' visibility='default-visibility' is-defined='yes'/>
    <elf-symbol name='_ZN5boost10filesystem6detail18create_directoriesERKNS0_4pathEPNS_6system10error_codeE' type='func-type' binding='global-binding' visibility='default-visibility' is-defined='yes'/>
    <elf-symbol name='_ZN5boost10filesystem6detail18utf8_codecvt_facet15get_octet_countEh' type='func-type' binding='global-binding' visibility='default-visibility' is-defined='yes'/>
    <elf-symbol name='_ZN5boost10filesystem6detail18utf8_codecvt_facet20get_cont_octet_countEh' type='func-type' binding='weak-binding' visibility='default-visibility' is-defined='yes'/>
    <elf-symbol name='_ZN5boost10filesystem6detail18utf8_codecvt_facetD0Ev' type='func-type' binding='weak-binding' visibility='default-visibility' is-defined='yes'/>
    <elf-symbol name='_ZN5boost10filesystem6detail18utf8_codecvt_facetD2Ev' type='func-type' binding='weak-binding' visibility='default-visibility' is-defined='yes'/>
    <elf-symbol name='_ZN5boost10filesystem6detail19temp_directory_pathEPNS_6system10error_codeE' type='func-type' binding='global-binding' visibility='default-visibility' is-defined='yes'/>
    <elf-symbol name='_ZN5boost10filesystem6detail24create_directory_symlinkERKNS0_4pathES4_PNS_6system10error_codeE' type='func-type' binding='global-binding' visibility='default-visibility' is-defined='yes'/>
    <elf-symbol name='_ZN5boost10filesystem6detail28directory_iterator_constructERNS0_18directory_iteratorERKNS0_4pathEPNS_6system10error_codeE' type='func-type' binding='global-binding' visibility='default-visibility' is-defined='yes'/>
    <elf-symbol name='_ZN5boost10filesystem6detail28directory_iterator_incrementERNS0_18directory_iteratorEPNS_6system10error_codeE' type='func-type' binding='global-binding' visibility='default-visibility' is-defined='yes'/>
    <elf-symbol name='_ZN5boost10filesystem6detail32possible_large_file_size_supportEv' type='func-type' binding='global-binding' visibility='default-visibility' is-defined='yes'/>
    <elf-symbol name='_ZN5boost10filesystem6detail4copyERKNS0_4pathES4_PNS_6system10error_codeE' type='func-type' binding='global-binding' visibility='default-visibility' is-defined='yes'/>
    <elf-symbol name='_ZN5boost10filesystem6detail5spaceERKNS0_4pathEPNS_6system10error_codeE' type='func-type' binding='global-binding' visibility='default-visibility' is-defined='yes'/>
    <elf-symbol name='_ZN5boost10filesystem6detail6removeERKNS0_4pathEPNS_6system10error_codeE' type='func-type' binding='global-binding' visibility='default-visibility' is-defined='yes'/>
    <elf-symbol name='_ZN5boost10filesystem6detail6renameERKNS0_4pathES4_PNS_6system10error_codeE' type='func-type' binding='global-binding' visibility='default-visibility' is-defined='yes'/>
    <elf-symbol name='_ZN5boost10filesystem6detail6statusERKNS0_4pathEPNS_6system10error_codeE' type='func-type' binding='global-binding' visibility='default-visibility' is-defined='yes'/>
    <elf-symbol name='_ZN5boost10filesystem6detail8is_emptyERKNS0_4pathEPNS_6system10error_codeE' type='func-type' binding='global-binding' visibility='default-visibility' is-defined='yes'/>
    <elf-symbol name='_ZN5boost10filesystem6detail9canonicalERKNS0_4pathES4_PNS_6system10error_codeE' type='func-type' binding='global-binding' visibility='default-visibility' is-defined='yes'/>
    <elf-symbol name='_ZN5boost10filesystem6detail9copy_fileERKNS0_4pathES4_NS0_11copy_optionEPNS_6system10error_codeE' type='func-type' binding='global-binding' visibility='default-visibility' is-defined='yes'/>
    <elf-symbol name='_ZN5boost10filesystem6detail9file_sizeERKNS0_4pathEPNS_6system10error_codeE' type='func-type' binding='global-binding' visibility='default-visibility' is-defined='yes'/>
    <elf-symbol name='_ZN5boost10filesystem6detail9mode_castENS0_5permsE' type='func-type' binding='weak-binding' visibility='default-visibility' is-defined='yes'/>
    <elf-symbol name='_ZN5boost10filesystem6nativeERKSs' type='func-type' binding='global-binding' visibility='default-visibility' is-defined='yes'/>
    <elf-symbol name='_ZN5boost10filesystem6statusERKNS0_4pathERNS_6system10error_codeE' type='func-type' binding='weak-binding' visibility='default-visibility' is-defined='yes'/>
    <elf-symbol name='_ZN5boost10filesystem8absoluteERKNS0_4pathES3_' type='func-type' binding='global-binding' visibility='default-visibility' is-defined='yes'/>
    <elf-symbol name='_ZN5boost10filesystem9copy_fileERKNS0_4pathES3_NS0_11copy_optionERNS_6system10error_codeE' type='func-type' binding='weak-binding' visibility='default-visibility' is-defined='yes'/>
    <elf-symbol name='_ZN5boost10filesystemanENS0_5permsES1_' type='func-type' binding='weak-binding' visibility='default-visibility' is-defined='yes'/>
    <elf-symbol name='_ZN5boost10filesystemcoENS0_5permsE' type='func-type' binding='weak-binding' visibility='default-visibility' is-defined='yes'/>
    <elf-symbol name='_ZN5boost10filesystemdvERKNS0_4pathES3_' type='func-type' binding='weak-binding' visibility='default-visibility' is-defined='yes'/>
    <elf-symbol name='_ZN5boost10filesystemeqERKNS0_4pathES3_' type='func-type' binding='weak-binding' visibility='default-visibility' is-defined='yes'/>
    <elf-symbol name='_ZN5boost10filesystemneERKNS0_4pathES3_' type='func-type' binding='weak-binding' visibility='default-visibility' is-defined='yes'/>
    <elf-symbol name='_ZN5boost10filesystemoRERNS0_5permsES1_' type='func-type' binding='weak-binding' visibility='default-visibility' is-defined='yes'/>
    <elf-symbol name='_ZN5boost10filesystemorENS0_5permsES1_' type='func-type' binding='weak-binding' visibility='default-visibility' is-defined='yes'/>
    <elf-symbol name='_ZN5boost10shared_ptrINS_10filesystem16filesystem_error5m_impEE4swapERS4_' type='func-type' binding='weak-binding' visibility='default-visibility' is-defined='yes'/>
    <elf-symbol name='_ZN5boost10shared_ptrINS_10filesystem16filesystem_error5m_impEE5resetEv' type='func-type' binding='weak-binding' visibility='default-visibility' is-defined='yes'/>
    <elf-symbol name='_ZN5boost10shared_ptrINS_10filesystem16filesystem_error5m_impEE5resetIS3_EEvPT_' type='func-type' binding='weak-binding' visibility='default-visibility' is-defined='yes'/>
    <elf-symbol name='_ZN5boost10shared_ptrINS_10filesystem16filesystem_error5m_impEEC2Ev' type='func-type' binding='weak-binding' visibility='default-visibility' is-defined='yes'/>
    <elf-symbol name='_ZN5boost10shared_ptrINS_10filesystem16filesystem_error5m_impEEC2IS3_EEPT_' type='func-type' binding='weak-binding' visibility='default-visibility' is-defined='yes'/>
    <elf-symbol name='_ZN5boost10shared_ptrINS_10filesystem16filesystem_error5m_impEED2Ev' type='func-type' binding='weak-binding' visibility='default-visibility' is-defined='yes'/>
    <elf-symbol name='_ZN5boost10shared_ptrINS_10filesystem6detail11dir_itr_impEE4swapERS4_' type='func-type' binding='weak-binding' visibility='default-visibility' is-defined='yes'/>
    <elf-symbol name='_ZN5boost10shared_ptrINS_10filesystem6detail11dir_itr_impEE5resetEv' type='func-type' binding='weak-binding' visibility='default-visibility' is-defined='yes'/>
    <elf-symbol name='_ZN5boost10shared_ptrINS_10filesystem6detail11dir_itr_impEEC2Ev' type='func-type' binding='weak-binding' visibility='default-visibility' is-defined='yes'/>
    <elf-symbol name='_ZN5boost10shared_ptrINS_10filesystem6detail11dir_itr_impEEC2IS3_EEPT_' type='func-type' binding='weak-binding' visibility='default-visibility' is-defined='yes'/>
    <elf-symbol name='_ZN5boost10shared_ptrINS_10filesystem6detail11dir_itr_impEED2Ev' type='func-type' binding='weak-binding' visibility='default-visibility' is-defined='yes'/>
    <elf-symbol name='_ZN5boost12scoped_arrayIcEC2EPc' type='func-type' binding='weak-binding' visibility='default-visibility' is-defined='yes'/>
    <elf-symbol name='_ZN5boost12scoped_arrayIcED2Ev' type='func-type' binding='weak-binding' visibility='default-visibility' is-defined='yes'/>
    <elf-symbol name='_ZN5boost12scoped_arrayIwEC2EPw' type='func-type' binding='weak-binding' visibility='default-visibility' is-defined='yes'/>
    <elf-symbol name='_ZN5boost12scoped_arrayIwED2Ev' type='func-type' binding='weak-binding' visibility='default-visibility' is-defined='yes'/>
    <elf-symbol name='_ZN5boost14checked_deleteINS_10filesystem16filesystem_error5m_impEEEvPT_' type='func-type' binding='weak-binding' visibility='default-visibility' is-defined='yes'/>
    <elf-symbol name='_ZN5boost14checked_deleteINS_10filesystem6detail11dir_itr_impEEEvPT_' type='func-type' binding='weak-binding' visibility='default-visibility' is-defined='yes'/>
    <elf-symbol name='_ZN5boost15iterator_facadeINS_10filesystem18directory_iteratorENS1_15directory_entryENS_25single_pass_traversal_tagERS3_lE7derivedEv' type='func-type' binding='weak-binding' visibility='default-visibility' is-defined='yes'/>
    <elf-symbol name='_ZN5boost15iterator_facadeINS_10filesystem18directory_iteratorENS1_15directory_entryENS_25single_pass_traversal_tagERS3_lEppEv' type='func-type' binding='weak-binding' visibility='default-visibility' is-defined='yes'/>
    <elf-symbol name='_ZN5boost15iterator_facadeINS_10filesystem4path8iteratorEKS2_NS_27bidirectional_traversal_tagERS4_lE7derivedEv' type='func-type' binding='weak-binding' visibility='default-visibility' is-defined='yes'/>
    <elf-symbol name='_ZN5boost15iterator_facadeINS_10filesystem4path8iteratorEKS2_NS_27bidirectional_traversal_tagERS4_lEmmEi' type='func-type' binding='weak-binding' visibility='default-visibility' is-defined='yes'/>
    <elf-symbol name='_ZN5boost15iterator_facadeINS_10filesystem4path8iteratorEKS2_NS_27bidirectional_traversal_tagERS4_lEmmEv' type='func-type' binding='weak-binding' visibility='default-visibility' is-defined='yes'/>
    <elf-symbol name='_ZN5boost15iterator_facadeINS_10filesystem4path8iteratorEKS2_NS_27bidirectional_traversal_tagERS4_lEppEv' type='func-type' binding='weak-binding' visibility='default-visibility' is-defined='yes'/>
    <elf-symbol name='_ZN5boost20checked_array_deleteIcEEvPT_' type='func-type' binding='weak-binding' visibility='default-visibility' is-defined='yes'/>
    <elf-symbol name='_ZN5boost20checked_array_deleteIwEEvPT_' type='func-type' binding='weak-binding' visibility='default-visibility' is-defined='yes'/>
    <elf-symbol name='_ZN5boost20iterator_core_access11dereferenceINS_10filesystem18directory_iteratorEEENT_9referenceERKS4_' type='func-type' binding='weak-binding' visibility='default-visibility' is-defined='yes'/>
    <elf-symbol name='_ZN5boost20iterator_core_access11dereferenceINS_10filesystem4path8iteratorEEENT_9referenceERKS5_' type='func-type' binding='weak-binding' visibility='default-visibility' is-defined='yes'/>
    <elf-symbol name='_ZN5boost20iterator_core_access5equalINS_10filesystem18directory_iteratorES3_EEbRKT_RKT0_N4mpl_5bool_ILb1EEE' type='func-type' binding='weak-binding' visibility='default-visibility' is-defined='yes'/>
    <elf-symbol name='_ZN5boost20iterator_core_access5equalINS_10filesystem4path8iteratorES4_EEbRKT_RKT0_N4mpl_5bool_ILb1EEE' type='func-type' binding='weak-binding' visibility='default-visibility' is-defined='yes'/>
    <elf-symbol name='_ZN5boost20iterator_core_access9decrementINS_10filesystem4path8iteratorEEEvRT_' type='func-type' binding='weak-binding' visibility='default-visibility' is-defined='yes'/>
    <elf-symbol name='_ZN5boost20iterator_core_access9incrementINS_10filesystem18directory_iteratorEEEvRT_' type='func-type' binding='weak-binding' visibility='default-visibility' is-defined='yes'/>
    <elf-symbol name='_ZN5boost20iterator_core_access9incrementINS_10filesystem4path8iteratorEEEvRT_' type='func-type' binding='weak-binding' visibility='default-visibility' is-defined='yes'/>
    <elf-symbol name='_ZN5boost6detail12shared_count4swapERS1_' type='func-type' binding='weak-binding' visibility='default-visibility' is-defined='yes'/>
    <elf-symbol name='_ZN5boost6detail12shared_countC2Ev' type='func-type' binding='weak-binding' visibility='default-visibility' is-defined='yes'/>
    <elf-symbol name='_ZN5boost6detail12shared_countC2INS_10filesystem16filesystem_error5m_impEEEPT_' type='func-type' binding='weak-binding' visibility='default-visibility' is-defined='yes'/>
    <elf-symbol name='_ZN5boost6detail12shared_countC2INS_10filesystem6detail11dir_itr_impEEEPT_' type='func-type' binding='weak-binding' visibility='default-visibility' is-defined='yes'/>
    <elf-symbol name='_ZN5boost6detail12shared_countD2Ev' type='func-type' binding='weak-binding' visibility='default-visibility' is-defined='yes'/>
    <elf-symbol name='_ZN5boost6detail15sp_counted_base12weak_releaseEv' type='func-type' binding='weak-binding' visibility='default-visibility' is-defined='yes'/>
    <elf-symbol name='_ZN5boost6detail15sp_counted_base7destroyEv' type='func-type' binding='weak-binding' visibility='default-visibility' is-defined='yes'/>
    <elf-symbol name='_ZN5boost6detail15sp_counted_base7releaseEv' type='func-type' binding='weak-binding' visibility='default-visibility' is-defined='yes'/>
    <elf-symbol name='_ZN5boost6detail15sp_counted_baseC2Ev' type='func-type' binding='weak-binding' visibility='default-visibility' is-defined='yes'/>
    <elf-symbol name='_ZN5boost6detail15sp_counted_baseD0Ev' type='func-type' binding='weak-binding' visibility='default-visibility' is-defined='yes'/>
    <elf-symbol name='_ZN5boost6detail15sp_counted_baseD2Ev' type='func-type' binding='weak-binding' visibility='default-visibility' is-defined='yes'/>
    <elf-symbol name='_ZN5boost6detail17sp_counted_impl_pINS_10filesystem16filesystem_error5m_impEE11get_deleterERKSt9type_info' type='func-type' binding='weak-binding' visibility='default-visibility' is-defined='yes'/>
    <elf-symbol name='_ZN5boost6detail17sp_counted_impl_pINS_10filesystem16filesystem_error5m_impEE19get_untyped_deleterEv' type='func-type' binding='weak-binding' visibility='default-visibility' is-defined='yes'/>
    <elf-symbol name='_ZN5boost6detail17sp_counted_impl_pINS_10filesystem16filesystem_error5m_impEE7disposeEv' type='func-type' binding='weak-binding' visibility='default-visibility' is-defined='yes'/>
    <elf-symbol name='_ZN5boost6detail17sp_counted_impl_pINS_10filesystem16filesystem_error5m_impEEC2EPS4_' type='func-type' binding='weak-binding' visibility='default-visibility' is-defined='yes'/>
    <elf-symbol name='_ZN5boost6detail17sp_counted_impl_pINS_10filesystem16filesystem_error5m_impEED0Ev' type='func-type' binding='weak-binding' visibility='default-visibility' is-defined='yes'/>
    <elf-symbol name='_ZN5boost6detail17sp_counted_impl_pINS_10filesystem16filesystem_error5m_impEED2Ev' type='func-type' binding='weak-binding' visibility='default-visibility' is-defined='yes'/>
    <elf-symbol name='_ZN5boost6detail17sp_counted_impl_pINS_10filesystem6detail11dir_itr_impEE11get_deleterERKSt9type_info' type='func-type' binding='weak-binding' visibility='default-visibility' is-defined='yes'/>
    <elf-symbol name='_ZN5boost6detail17sp_counted_impl_pINS_10filesystem6detail11dir_itr_impEE19get_untyped_deleterEv' type='func-type' binding='weak-binding' visibility='default-visibility' is-defined='yes'/>
    <elf-symbol name='_ZN5boost6detail17sp_counted_impl_pINS_10filesystem6detail11dir_itr_impEE7disposeEv' type='func-type' binding='weak-binding' visibility='default-visibility' is-defined='yes'/>
    <elf-symbol name='_ZN5boost6detail17sp_counted_impl_pINS_10filesystem6detail11dir_itr_impEEC2EPS4_' type='func-type' binding='weak-binding' visibility='default-visibility' is-defined='yes'/>
    <elf-symbol name='_ZN5boost6detail17sp_counted_impl_pINS_10filesystem6detail11dir_itr_impEED0Ev' type='func-type' binding='weak-binding' visibility='default-visibility' is-defined='yes'/>
    <elf-symbol name='_ZN5boost6detail17sp_counted_impl_pINS_10filesystem6detail11dir_itr_impEED2Ev' type='func-type' binding='weak-binding' visibility='default-visibility' is-defined='yes'/>
    <elf-symbol name='_ZN5boost6detail20sp_pointer_constructINS_10filesystem16filesystem_error5m_impES4_EEvPNS_10shared_ptrIT_EEPT0_RNS0_12shared_countE' type='func-type' binding='weak-binding' visibility='default-visibility' is-defined='yes'/>
    <elf-symbol name='_ZN5boost6detail20sp_pointer_constructINS_10filesystem6detail11dir_itr_impES4_EEvPNS_10shared_ptrIT_EEPT0_RNS0_12shared_countE' type='func-type' binding='weak-binding' visibility='default-visibility' is-defined='yes'/>
    <elf-symbol name='_ZN5boost6detail23atomic_exchange_and_addEPii' type='func-type' binding='weak-binding' visibility='default-visibility' is-defined='yes'/>
    <elf-symbol name='_ZN5boost6detail23operator_arrow_dispatchIRKNS_10filesystem4pathEPS4_E5applyES5_' type='func-type' binding='weak-binding' visibility='default-visibility' is-defined='yes'/>
    <elf-symbol name='_ZN5boost6detail23operator_arrow_dispatchIRNS_10filesystem15directory_entryEPS3_E5applyES4_' type='func-type' binding='weak-binding' visibility='default-visibility' is-defined='yes'/>
    <elf-symbol name='_ZN5boost6detail26sp_enable_shared_from_thisEz' type='func-type' binding='weak-binding' visibility='default-visibility' is-defined='yes'/>
    <elf-symbol name='_ZN5boost6system10error_code21unspecified_bool_trueEv' type='func-type' binding='weak-binding' visibility='default-visibility' is-defined='yes'/>
    <elf-symbol name='_ZN5boost6system10error_code5clearEv' type='func-type' binding='weak-binding' visibility='default-visibility' is-defined='yes'/>
    <elf-symbol name='_ZN5boost6system10error_code6assignEiRKNS0_14error_categoryE' type='func-type' binding='weak-binding' visibility='default-visibility' is-defined='yes'/>
    <elf-symbol name='_ZN5boost6system10error_codeC2EiRKNS0_14error_categoryE' type='func-type' binding='weak-binding' visibility='default-visibility' is-defined='yes'/>
    <elf-symbol name='_ZN5boost6system10error_codeC2Ev' type='func-type' binding='weak-binding' visibility='default-visibility' is-defined='yes'/>
    <elf-symbol name='_ZN5boost6system12system_errorC2ENS0_10error_codeERKSs' type='func-type' binding='weak-binding' visibility='default-visibility' is-defined='yes'/>
    <elf-symbol name='_ZN5boost6system12system_errorC2EiRKNS0_14error_categoryEPKc' type='func-type' binding='weak-binding' visibility='default-visibility' is-defined='yes'/>
    <elf-symbol name='_ZN5boost6system12system_errorD0Ev' type='func-type' binding='weak-binding' visibility='default-visibility' is-defined='yes'/>
    <elf-symbol name='_ZN5boost6system12system_errorD2Ev' type='func-type' binding='weak-binding' visibility='default-visibility' is-defined='yes'/>
    <elf-symbol name='_ZN5boost6system14error_categoryC2Ev' type='func-type' binding='weak-binding' visibility='default-visibility' is-defined='yes'/>
    <elf-symbol name='_ZN5boost6system14error_categoryD0Ev' type='func-type' binding='weak-binding' visibility='default-visibility' is-defined='yes'/>
    <elf-symbol name='_ZN5boost6system14error_categoryD2Ev' type='func-type' binding='weak-binding' visibility='default-visibility' is-defined='yes'/>
    <elf-symbol name='_ZN5boost6system15error_conditionC2EiRKNS0_14error_categoryE' type='func-type' binding='weak-binding' visibility='default-visibility' is-defined='yes'/>
    <elf-symbol name='_ZN5boost6systemeqERKNS0_15error_conditionES3_' type='func-type' binding='weak-binding' visibility='default-visibility' is-defined='yes'/>
    <elf-symbol name='_ZN5boosteqINS_10filesystem18directory_iteratorENS1_15directory_entryENS_25single_pass_traversal_tagERS3_lS2_S3_S4_S5_lEENS_6detail23enable_if_interoperableIT_T4_NS_3mpl6apply2INS6_12always_bool2ES8_S9_E4typeEE4typeERKNS_15iterator_facadeIS8_T0_T1_T2_T3_EERKNSH_IS9_T5_T6_T7_T8_EE' type='func-type' binding='weak-binding' visibility='default-visibility' is-defined='yes'/>
    <elf-symbol name='_ZN5boosteqINS_10filesystem4path8iteratorEKS2_NS_27bidirectional_traversal_tagERS4_lS3_S4_S5_S6_lEENS_6detail23enable_if_interoperableIT_T4_NS_3mpl6apply2INS7_12always_bool2ES9_SA_E4typeEE4typeERKNS_15iterator_facadeIS9_T0_T1_T2_T3_EERKNSI_ISA_T5_T6_T7_T8_EE' type='func-type' binding='weak-binding' visibility='default-visibility' is-defined='yes'/>
    <elf-symbol name='_ZN5boosteqINS_10filesystem6detail11dir_itr_impES3_EEbRKNS_10shared_ptrIT_EERKNS4_IT0_EE' type='func-type' binding='weak-binding' visibility='default-visibility' is-defined='yes'/>
    <elf-symbol name='_ZN5boostneINS_10filesystem18directory_iteratorENS1_15directory_entryENS_25single_pass_traversal_tagERS3_lS2_S3_S4_S5_lEENS_6detail23enable_if_interoperableIT_T4_NS_3mpl6apply2INS6_12always_bool2ES8_S9_E4typeEE4typeERKNS_15iterator_facadeIS8_T0_T1_T2_T3_EERKNSH_IS9_T5_T6_T7_T8_EE' type='func-type' binding='weak-binding' visibility='default-visibility' is-defined='yes'/>
    <elf-symbol name='_ZN5boostneINS_10filesystem4path8iteratorEKS2_NS_27bidirectional_traversal_tagERS4_lS3_S4_S5_S6_lEENS_6detail23enable_if_interoperableIT_T4_NS_3mpl6apply2INS7_12always_bool2ES9_SA_E4typeEE4typeERKNS_15iterator_facadeIS9_T0_T1_T2_T3_EERKNSI_ISA_T5_T6_T7_T8_EE' type='func-type' binding='weak-binding' visibility='default-visibility' is-defined='yes'/>
    <elf-symbol name='_ZN9__gnu_cxx17__is_null_pointerIKcEEbPT_' type='func-type' binding='weak-binding' visibility='default-visibility' is-defined='yes'/>
    <elf-symbol name='_ZN9__gnu_cxx17__is_null_pointerIcEEbPT_' type='func-type' binding='weak-binding' visibility='default-visibility' is-defined='yes'/>
    <elf-symbol name='_ZN9__gnu_cxx17__normal_iteratorIPKcSsEC2ERKS2_' type='func-type' binding='weak-binding' visibility='default-visibility' is-defined='yes'/>
    <elf-symbol name='_ZN9__gnu_cxx17__normal_iteratorIPcSsEC2ERKS1_' type='func-type' binding='weak-binding' visibility='default-visibility' is-defined='yes'/>
    <elf-symbol name='_ZNK5boost10filesystem11file_status11permissionsEv' type='func-type' binding='weak-binding' visibility='default-visibility' is-defined='yes'/>
    <elf-symbol name='_ZNK5boost10filesystem11file_status4typeEv' type='func-type' binding='weak-binding' visibility='default-visibility' is-defined='yes'/>
    <elf-symbol name='_ZNK5boost10filesystem15directory_entry12m_get_statusEPNS_6system10error_codeE' type='func-type' binding='global-binding' visibility='default-visibility' is-defined='yes'/>
    <elf-symbol name='_ZNK5boost10filesystem15directory_entry20m_get_symlink_statusEPNS_6system10error_codeE' type='func-type' binding='global-binding' visibility='default-visibility' is-defined='yes'/>
    <elf-symbol name='_ZNK5boost10filesystem15directory_entry4pathEv' type='func-type' binding='weak-binding' visibility='default-visibility' is-defined='yes'/>
    <elf-symbol name='_ZNK5boost10filesystem16filesystem_error4whatEv' type='func-type' binding='weak-binding' visibility='default-visibility' is-defined='yes'/>
    <elf-symbol name='_ZNK5boost10filesystem18directory_iterator11dereferenceEv' type='func-type' binding='weak-binding' visibility='default-visibility' is-defined='yes'/>
    <elf-symbol name='_ZNK5boost10filesystem18directory_iterator5equalERKS1_' type='func-type' binding='weak-binding' visibility='default-visibility' is-defined='yes'/>
    <elf-symbol name='_ZNK5boost10filesystem4path11is_absoluteEv' type='func-type' binding='weak-binding' visibility='default-visibility' is-defined='yes'/>
    <elf-symbol name='_ZNK5boost10filesystem4path11parent_pathEv' type='func-type' binding='global-binding' visibility='default-visibility' is-defined='yes'/>
    <elf-symbol name='_ZNK5boost10filesystem4path13relative_pathEv' type='func-type' binding='global-binding' visibility='default-visibility' is-defined='yes'/>
    <elf-symbol name='_ZNK5boost10filesystem4path14root_directoryEv' type='func-type' binding='global-binding' visibility='default-visibility' is-defined='yes'/>
    <elf-symbol name='_ZNK5boost10filesystem4path17m_parent_path_endEv' type='func-type' binding='global-binding' visibility='default-visibility' is-defined='yes'/>
    <elf-symbol name='_ZNK5boost10filesystem4path18has_root_directoryEv' type='func-type' binding='weak-binding' visibility='default-visibility' is-defined='yes'/>
    <elf-symbol name='_ZNK5boost10filesystem4path3endEv' type='func-type' binding='global-binding' visibility='default-visibility' is-defined='yes'/>
    <elf-symbol name='_ZNK5boost10filesystem4path4stemEv' type='func-type' binding='global-binding' visibility='default-visibility' is-defined='yes'/>
    <elf-symbol name='_ZNK5boost10filesystem4path5beginEv' type='func-type' binding='global-binding' visibility='default-visibility' is-defined='yes'/>
    <elf-symbol name='_ZNK5boost10filesystem4path5c_strEv' type='func-type' binding='weak-binding' visibility='default-visibility' is-defined='yes'/>
    <elf-symbol name='_ZNK5boost10filesystem4path5emptyEv' type='func-type' binding='weak-binding' visibility='default-visibility' is-defined='yes'/>
    <elf-symbol name='_ZNK5boost10filesystem4path6nativeEv' type='func-type' binding='weak-binding' visibility='default-visibility' is-defined='yes'/>
    <elf-symbol name='_ZNK5boost10filesystem4path6stringEv' type='func-type' binding='weak-binding' visibility='default-visibility' is-defined='yes'/>
    <elf-symbol name='_ZNK5boost10filesystem4path7compareERKS1_' type='func-type' binding='global-binding' visibility='default-visibility' is-defined='yes'/>
    <elf-symbol name='_ZNK5boost10filesystem4path7wstringERKSt7codecvtIwc11__mbstate_tE' type='func-type' binding='weak-binding' visibility='default-visibility' is-defined='yes'/>
    <elf-symbol name='_ZNK5boost10filesystem4path7wstringEv' type='func-type' binding='weak-binding' visibility='default-visibility' is-defined='yes'/>
    <elf-symbol name='_ZNK5boost10filesystem4path8filenameEv' type='func-type' binding='global-binding' visibility='default-visibility' is-defined='yes'/>
    <elf-symbol name='_ZNK5boost10filesystem4path8iterator11dereferenceEv' type='func-type' binding='weak-binding' visibility='default-visibility' is-defined='yes'/>
    <elf-symbol name='_ZNK5boost10filesystem4path8iterator5equalERKS2_' type='func-type' binding='weak-binding' visibility='default-visibility' is-defined='yes'/>
    <elf-symbol name='_ZNK5boost10filesystem4path9extensionEv' type='func-type' binding='global-binding' visibility='default-visibility' is-defined='yes'/>
    <elf-symbol name='_ZNK5boost10filesystem4path9root_nameEv' type='func-type' binding='global-binding' visibility='default-visibility' is-defined='yes'/>
    <elf-symbol name='_ZNK5boost10filesystem4path9root_pathEv' type='func-type' binding='global-binding' visibility='default-visibility' is-defined='yes'/>
    <elf-symbol name='_ZNK5boost10filesystem6detail18utf8_codecvt_facet10do_unshiftER11__mbstate_tPcS5_RS5_' type='func-type' binding='weak-binding' visibility='default-visibility' is-defined='yes'/>
    <elf-symbol name='_ZNK5boost10filesystem6detail18utf8_codecvt_facet11do_encodingEv' type='func-type' binding='weak-binding' visibility='default-visibility' is-defined='yes'/>
    <elf-symbol name='_ZNK5boost10filesystem6detail18utf8_codecvt_facet13do_max_lengthEv' type='func-type' binding='weak-binding' visibility='default-visibility' is-defined='yes'/>
    <elf-symbol name='_ZNK5boost10filesystem6detail18utf8_codecvt_facet16do_always_noconvEv' type='func-type' binding='weak-binding' visibility='default-visibility' is-defined='yes'/>
    <elf-symbol name='_ZNK5boost10filesystem6detail18utf8_codecvt_facet21invalid_leading_octetEh' type='func-type' binding='weak-binding' visibility='default-visibility' is-defined='yes'/>
    <elf-symbol name='_ZNK5boost10filesystem6detail18utf8_codecvt_facet24get_cont_octet_out_countEw' type='func-type' binding='global-binding' visibility='default-visibility' is-defined='yes'/>
    <elf-symbol name='_ZNK5boost10filesystem6detail18utf8_codecvt_facet24invalid_continuing_octetEh' type='func-type' binding='weak-binding' visibility='default-visibility' is-defined='yes'/>
    <elf-symbol name='_ZNK5boost10filesystem6detail18utf8_codecvt_facet5do_inER11__mbstate_tPKcS6_RS6_PwS8_RS8_' type='func-type' binding='global-binding' visibility='default-visibility' is-defined='yes'/>
    <elf-symbol name='_ZNK5boost10filesystem6detail18utf8_codecvt_facet6do_outER11__mbstate_tPKwS6_RS6_PcS8_RS8_' type='func-type' binding='global-binding' visibility='default-visibility' is-defined='yes'/>
    <elf-symbol name='_ZNK5boost10filesystem6detail18utf8_codecvt_facet9do_lengthER11__mbstate_tPKcS6_m' type='func-type' binding='global-binding' visibility='default-visibility' is-defined='yes'/>
    <elf-symbol name='_ZNK5boost10shared_ptrINS_10filesystem16filesystem_error5m_impEE3getEv' type='func-type' binding='weak-binding' visibility='default-visibility' is-defined='yes'/>
    <elf-symbol name='_ZNK5boost10shared_ptrINS_10filesystem16filesystem_error5m_impEEptEv' type='func-type' binding='weak-binding' visibility='default-visibility' is-defined='yes'/>
    <elf-symbol name='_ZNK5boost10shared_ptrINS_10filesystem6detail11dir_itr_impEE3getEv' type='func-type' binding='weak-binding' visibility='default-visibility' is-defined='yes'/>
    <elf-symbol name='_ZNK5boost10shared_ptrINS_10filesystem6detail11dir_itr_impEEptEv' type='func-type' binding='weak-binding' visibility='default-visibility' is-defined='yes'/>
    <elf-symbol name='_ZNK5boost12scoped_arrayIcE3getEv' type='func-type' binding='weak-binding' visibility='default-visibility' is-defined='yes'/>
    <elf-symbol name='_ZNK5boost12scoped_arrayIwE3getEv' type='func-type' binding='weak-binding' visibility='default-visibility' is-defined='yes'/>
    <elf-symbol name='_ZNK5boost15iterator_facadeINS_10filesystem18directory_iteratorENS1_15directory_entryENS_25single_pass_traversal_tagERS3_lE7derivedEv' type='func-type' binding='weak-binding' visibility='default-visibility' is-defined='yes'/>
    <elf-symbol name='_ZNK5boost15iterator_facadeINS_10filesystem18directory_iteratorENS1_15directory_entryENS_25single_pass_traversal_tagERS3_lEdeEv' type='func-type' binding='weak-binding' visibility='default-visibility' is-defined='yes'/>
    <elf-symbol name='_ZNK5boost15iterator_facadeINS_10filesystem18directory_iteratorENS1_15directory_entryENS_25single_pass_traversal_tagERS3_lEptEv' type='func-type' binding='weak-binding' visibility='default-visibility' is-defined='yes'/>
    <elf-symbol name='_ZNK5boost15iterator_facadeINS_10filesystem4path8iteratorEKS2_NS_27bidirectional_traversal_tagERS4_lE7derivedEv' type='func-type' binding='weak-binding' visibility='default-visibility' is-defined='yes'/>
    <elf-symbol name='_ZNK5boost15iterator_facadeINS_10filesystem4path8iteratorEKS2_NS_27bidirectional_traversal_tagERS4_lEdeEv' type='func-type' binding='weak-binding' visibility='default-visibility' is-defined='yes'/>
    <elf-symbol name='_ZNK5boost15iterator_facadeINS_10filesystem4path8iteratorEKS2_NS_27bidirectional_traversal_tagERS4_lEptEv' type='func-type' binding='weak-binding' visibility='default-visibility' is-defined='yes'/>
    <elf-symbol name='_ZNK5boost6system10error_code5valueEv' type='func-type' binding='weak-binding' visibility='default-visibility' is-defined='yes'/>
    <elf-symbol name='_ZNK5boost6system10error_code7messageEv' type='func-type' binding='weak-binding' visibility='default-visibility' is-defined='yes'/>
    <elf-symbol name='_ZNK5boost6system10error_code8categoryEv' type='func-type' binding='weak-binding' visibility='default-visibility' is-defined='yes'/>
    <elf-symbol name='_ZNK5boost6system10error_codecvPFvvEEv' type='func-type' binding='weak-binding' visibility='default-visibility' is-defined='yes'/>
    <elf-symbol name='_ZNK5boost6system12system_error4whatEv' type='func-type' binding='weak-binding' visibility='default-visibility' is-defined='yes'/>
    <elf-symbol name='_ZNK5boost6system14error_category10equivalentERKNS0_10error_codeEi' type='func-type' binding='weak-binding' visibility='default-visibility' is-defined='yes'/>
    <elf-symbol name='_ZNK5boost6system14error_category10equivalentEiRKNS0_15error_conditionE' type='func-type' binding='weak-binding' visibility='default-visibility' is-defined='yes'/>
    <elf-symbol name='_ZNK5boost6system14error_category23default_error_conditionEi' type='func-type' binding='weak-binding' visibility='default-visibility' is-defined='yes'/>
    <elf-symbol name='_ZNK5boost6system14error_categoryeqERKS1_' type='func-type' binding='weak-binding' visibility='default-visibility' is-defined='yes'/>
    <elf-symbol name='_ZNK9__gnu_cxx17__normal_iteratorIPKcSsEdeEv' type='func-type' binding='weak-binding' visibility='default-visibility' is-defined='yes'/>
    <elf-symbol name='_ZNK9__gnu_cxx17__normal_iteratorIPKcSsEmiEl' type='func-type' binding='weak-binding' visibility='default-visibility' is-defined='yes'/>
    <elf-symbol name='_ZNK9__gnu_cxx17__normal_iteratorIPKwSbIwSt11char_traitsIwESaIwEEEdeEv' type='func-type' binding='weak-binding' visibility='default-visibility' is-defined='yes'/>
    <elf-symbol name='_ZNK9__gnu_cxx17__normal_iteratorIPcSsEdeEv' type='func-type' binding='weak-binding' visibility='default-visibility' is-defined='yes'/>
    <elf-symbol name='_ZNK9__gnu_cxx17__normal_iteratorIPcSsEmiEl' type='func-type' binding='weak-binding' visibility='default-visibility' is-defined='yes'/>
    <elf-symbol name='_ZNKSt23__codecvt_abstract_baseIwc11__mbstate_tE2inERS0_PKcS4_RS4_PwS6_RS6_' type='func-type' binding='weak-binding' visibility='default-visibility' is-defined='yes'/>
    <elf-symbol name='_ZNKSt23__codecvt_abstract_baseIwc11__mbstate_tE3outERS0_PKwS4_RS4_PcS6_RS6_' type='func-type' binding='weak-binding' visibility='default-visibility' is-defined='yes'/>
    <elf-symbol name='_ZNSbIwSt11char_traitsIwESaIwEE6appendIPwEERS2_T_S6_' type='func-type' binding='weak-binding' visibility='default-visibility' is-defined='yes'/>
    <elf-symbol name='_ZNSs12_S_constructIPKcEEPcT_S3_RKSaIcE' type='func-type' binding='weak-binding' visibility='default-visibility' is-defined='yes'/>
    <elf-symbol name='_ZNSs12_S_constructIPKcEEPcT_S3_RKSaIcESt20forward_iterator_tag' type='func-type' binding='weak-binding' visibility='default-visibility' is-defined='yes'/>
    <elf-symbol name='_ZNSs12_S_constructIPcEES0_T_S1_RKSaIcE' type='func-type' binding='weak-binding' visibility='default-visibility' is-defined='yes'/>
    <elf-symbol name='_ZNSs12_S_constructIPcEES0_T_S1_RKSaIcESt20forward_iterator_tag' type='func-type' binding='weak-binding' visibility='default-visibility' is-defined='yes'/>
    <elf-symbol name='_ZNSs16_S_construct_auxIPKcEEPcT_S3_RKSaIcESt12__false_type' type='func-type' binding='weak-binding' visibility='default-visibility' is-defined='yes'/>
    <elf-symbol name='_ZNSs16_S_construct_auxIPcEES0_T_S1_RKSaIcESt12__false_type' type='func-type' binding='weak-binding' visibility='default-visibility' is-defined='yes'/>
    <elf-symbol name='_ZNSs6appendIPKcEERSsT_S3_' type='func-type' binding='weak-binding' visibility='default-visibility' is-defined='yes'/>
    <elf-symbol name='_ZNSs6appendIPcEERSsT_S2_' type='func-type' binding='weak-binding' visibility='default-visibility' is-defined='yes'/>
    <elf-symbol name='_ZNSsC2IPKcEET_S2_RKSaIcE' type='func-type' binding='weak-binding' visibility='default-visibility' is-defined='yes'/>
    <elf-symbol name='_ZNSsC2IPcEET_S1_RKSaIcE' type='func-type' binding='weak-binding' visibility='default-visibility' is-defined='yes'/>
    <elf-symbol name='_ZNSt11char_traitsIcE7compareEPKcS2_m' type='func-type' binding='weak-binding' visibility='default-visibility' is-defined='yes'/>
    <elf-symbol name='_ZNSt14numeric_limitsIwE3maxEv' type='func-type' binding='weak-binding' visibility='default-visibility' is-defined='yes'/>
    <elf-symbol name='_ZSt10__distanceIPKcENSt15iterator_traitsIT_E15difference_typeES3_S3_St26random_access_iterator_tag' type='func-type' binding='weak-binding' visibility='default-visibility' is-defined='yes'/>
    <elf-symbol name='_ZSt10__distanceIPcENSt15iterator_traitsIT_E15difference_typeES2_S2_St26random_access_iterator_tag' type='func-type' binding='weak-binding' visibility='default-visibility' is-defined='yes'/>
    <elf-symbol name='_ZSt19__iterator_categoryIPKcENSt15iterator_traitsIT_E17iterator_categoryERKS3_' type='func-type' binding='weak-binding' visibility='default-visibility' is-defined='yes'/>
    <elf-symbol name='_ZSt19__iterator_categoryIPcENSt15iterator_traitsIT_E17iterator_categoryERKS2_' type='func-type' binding='weak-binding' visibility='default-visibility' is-defined='yes'/>
    <elf-symbol name='_ZSt4moveIRPN5boost10filesystem16filesystem_error5m_impEEONSt16remove_referenceIT_E4typeEOS7_' type='func-type' binding='weak-binding' visibility='default-visibility' is-defined='yes'/>
    <elf-symbol name='_ZSt4moveIRPN5boost10filesystem6detail11dir_itr_impEEONSt16remove_referenceIT_E4typeEOS7_' type='func-type' binding='weak-binding' visibility='default-visibility' is-defined='yes'/>
    <elf-symbol name='_ZSt4swapIPN5boost10filesystem16filesystem_error5m_impEEvRT_S6_' type='func-type' binding='weak-binding' visibility='default-visibility' is-defined='yes'/>
    <elf-symbol name='_ZSt4swapIPN5boost10filesystem6detail11dir_itr_impEEvRT_S6_' type='func-type' binding='weak-binding' visibility='default-visibility' is-defined='yes'/>
    <elf-symbol name='_ZSt8distanceIPKcENSt15iterator_traitsIT_E15difference_typeES3_S3_' type='func-type' binding='weak-binding' visibility='default-visibility' is-defined='yes'/>
    <elf-symbol name='_ZSt8distanceIPcENSt15iterator_traitsIT_E15difference_typeES2_S2_' type='func-type' binding='weak-binding' visibility='default-visibility' is-defined='yes'/>
    <elf-symbol name='_ZSteqIcEN9__gnu_cxx11__enable_ifIXsr9__is_charIT_EE7__valueEbE6__typeERKSbIS2_St11char_traitsIS2_ESaIS2_EESA_' type='func-type' binding='weak-binding' visibility='default-visibility' is-defined='yes'/>
    <elf-symbol name='_ZSteqIcEbRKSaIT_ES3_' type='func-type' binding='weak-binding' visibility='default-visibility' is-defined='yes'/>
    <elf-symbol name='_ZSteqIcSt11char_traitsIcESaIcEEbRKSbIT_T0_T1_EPKS3_' type='func-type' binding='weak-binding' visibility='default-visibility' is-defined='yes'/>
    <elf-symbol name='_ZStltIcSt11char_traitsIcESaIcEEbRKSbIT_T0_T1_ES8_' type='func-type' binding='weak-binding' visibility='default-visibility' is-defined='yes'/>
    <elf-symbol name='_ZStneIcSt11char_traitsIcESaIcEEbRKSbIT_T0_T1_EPKS3_' type='func-type' binding='weak-binding' visibility='default-visibility' is-defined='yes'/>
    <elf-symbol name='_fini' type='func-type' binding='global-binding' visibility='default-visibility' is-defined='yes'/>
    <elf-symbol name='_init' type='func-type' binding='global-binding' visibility='default-visibility' is-defined='yes'/>
  </elf-function-symbols>
  <elf-variable-symbols>
    <elf-symbol name='_ZTIN5boost10filesystem16filesystem_errorE' size='24' type='object-type' binding='weak-binding' visibility='default-visibility' is-defined='yes'/>
    <elf-symbol name='_ZTIN5boost10filesystem6detail18utf8_codecvt_facetE' size='24' type='object-type' binding='global-binding' visibility='default-visibility' is-defined='yes'/>
    <elf-symbol name='_ZTIN5boost12noncopyable_11noncopyableE' size='16' type='object-type' binding='weak-binding' visibility='default-visibility' is-defined='yes'/>
    <elf-symbol name='_ZTIN5boost6detail15sp_counted_baseE' size='16' type='object-type' binding='weak-binding' visibility='default-visibility' is-defined='yes'/>
    <elf-symbol name='_ZTIN5boost6detail17sp_counted_impl_pINS_10filesystem16filesystem_error5m_impEEE' size='24' type='object-type' binding='weak-binding' visibility='default-visibility' is-defined='yes'/>
    <elf-symbol name='_ZTIN5boost6detail17sp_counted_impl_pINS_10filesystem6detail11dir_itr_impEEE' size='24' type='object-type' binding='weak-binding' visibility='default-visibility' is-defined='yes'/>
    <elf-symbol name='_ZTIN5boost6system12system_errorE' size='24' type='object-type' binding='weak-binding' visibility='default-visibility' is-defined='yes'/>
    <elf-symbol name='_ZTIN5boost6system14error_categoryE' size='24' type='object-type' binding='weak-binding' visibility='default-visibility' is-defined='yes'/>
    <elf-symbol name='_ZTSN5boost10filesystem16filesystem_errorE' size='39' type='object-type' binding='weak-binding' visibility='default-visibility' is-defined='yes'/>
    <elf-symbol name='_ZTSN5boost10filesystem6detail18utf8_codecvt_facetE' size='48' type='object-type' binding='global-binding' visibility='default-visibility' is-defined='yes'/>
    <elf-symbol name='_ZTSN5boost12noncopyable_11noncopyableE' size='36' type='object-type' binding='weak-binding' visibility='default-visibility' is-defined='yes'/>
    <elf-symbol name='_ZTSN5boost6detail15sp_counted_baseE' size='33' type='object-type' binding='weak-binding' visibility='default-visibility' is-defined='yes'/>
    <elf-symbol name='_ZTSN5boost6detail17sp_counted_impl_pINS_10filesystem16filesystem_error5m_impEEE' size='77' type='object-type' binding='weak-binding' visibility='default-visibility' is-defined='yes'/>
    <elf-symbol name='_ZTSN5boost6detail17sp_counted_impl_pINS_10filesystem6detail11dir_itr_impEEE' size='73' type='object-type' binding='weak-binding' visibility='default-visibility' is-defined='yes'/>
    <elf-symbol name='_ZTSN5boost6system12system_errorE' size='30' type='object-type' binding='weak-binding' visibility='default-visibility' is-defined='yes'/>
    <elf-symbol name='_ZTSN5boost6system14error_categoryE' size='32' type='object-type' binding='weak-binding' visibility='default-visibility' is-defined='yes'/>
    <elf-symbol name='_ZTVN5boost10filesystem16filesystem_errorE' size='40' type='object-type' binding='weak-binding' visibility='default-visibility' is-defined='yes'/>
    <elf-symbol name='_ZTVN5boost10filesystem6detail18utf8_codecvt_facetE' size='88' type='object-type' binding='global-binding' visibility='default-visibility' is-defined='yes'/>
    <elf-symbol name='_ZTVN5boost6detail15sp_counted_baseE' size='64' type='object-type' binding='weak-binding' visibility='default-visibility' is-defined='yes'/>
    <elf-symbol name='_ZTVN5boost6detail17sp_counted_impl_pINS_10filesystem16filesystem_error5m_impEEE' size='64' type='object-type' binding='weak-binding' visibility='default-visibility' is-defined='yes'/>
    <elf-symbol name='_ZTVN5boost6detail17sp_counted_impl_pINS_10filesystem6detail11dir_itr_impEEE' size='64' type='object-type' binding='weak-binding' visibility='default-visibility' is-defined='yes'/>
    <elf-symbol name='_ZTVN5boost6system12system_errorE' size='40' type='object-type' binding='weak-binding' visibility='default-visibility' is-defined='yes'/>
    <elf-symbol name='_ZTVN5boost6system14error_categoryE' size='72' type='object-type' binding='weak-binding' visibility='default-visibility' is-defined='yes'/>
  </elf-variable-symbols>
  <abi-instr address-size='64' path='src/third_party/boost-1.56.0/libs/filesystem/src/codecvt_error_category.cpp' comp-dir-path='/home/andrew/Documents/10gen/dev/src/mongodb' language='LANG_C_plus_plus'>
    <type-decl name='bool' size-in-bits='8' id='c894953d'/>
    <type-decl name='char' size-in-bits='8' id='a84c031d'/>
    <array-type-def dimensions='1' type-id='a84c031d' size-in-bits='32' id='8e0573fd'>
      <subrange length='4' type-id='4c87fef4' id='16fe7105'/>
    </array-type-def>
    <class-decl name='__va_list_tag' size-in-bits='192' is-struct='yes' visibility='default' id='d5027220'>
      <data-member access='public' layout-offset-in-bits='0'>
        <var-decl name='gp_offset' type-id='f0981eeb' visibility='default'/>
      </data-member>
      <data-member access='public' layout-offset-in-bits='32'>
        <var-decl name='fp_offset' type-id='f0981eeb' visibility='default'/>
      </data-member>
      <data-member access='public' layout-offset-in-bits='64'>
        <var-decl name='overflow_arg_area' type-id='eaa32e2f' visibility='default'/>
      </data-member>
      <data-member access='public' layout-offset-in-bits='128'>
        <var-decl name='reg_save_area' type-id='eaa32e2f' visibility='default'/>
      </data-member>
    </class-decl>
    <type-decl name='double' size-in-bits='64' id='a0eb0f08'/>
    <type-decl name='float' size-in-bits='32' id='a6c45d85'/>
    <type-decl name='int' size-in-bits='32' id='95e97e5e'/>
    <type-decl name='long double' size-in-bits='128' id='e095c704'/>
    <type-decl name='long int' size-in-bits='64' id='bd54fe1a'/>
    <type-decl name='long long int' size-in-bits='64' id='1eb56b1e'/>
    <type-decl name='long long unsigned int' size-in-bits='64' id='3a47d82b'/>
    <type-decl name='sizetype' size-in-bits='64' id='4c87fef4'/>
    <typedef-decl name='__va_list_tag' type-id='d5027220' id='fca5c1fb'/>
    <type-decl name='unsigned int' size-in-bits='32' id='f0981eeb'/>
    <type-decl name='unsigned long int' size-in-bits='64' id='7359adad'/>
    <type-decl name='wchar_t' size-in-bits='32' id='c523b9f1'/>
    <typedef-decl name='_G_fpos_t' type-id='87447a2e' filepath='/usr/include/_G_config.h' line='25' column='1' id='b7152aa8'/>
    <typedef-decl name='FILE' type-id='ec1ed955' filepath='/usr/include/stdio.h' line='48' column='1' id='aa12d1ba'/>
    <typedef-decl name='__FILE' type-id='ec1ed955' filepath='/usr/include/stdio.h' line='64' column='1' id='79311084'/>
    <typedef-decl name='fpos_t' type-id='b7152aa8' filepath='/usr/include/stdio.h' line='110' column='1' id='e322b6ef'/>
    <typedef-decl name='div_t' type-id='87447a2e' filepath='/usr/include/stdlib.h' line='101' column='1' id='f702ecec'/>
    <class-decl name='ldiv_t' size-in-bits='128' is-struct='yes' naming-typedef-id='30397bf8' visibility='default' filepath='/usr/include/stdlib.h' line='105' column='1' id='9b5926fd'>
      <data-member access='public' layout-offset-in-bits='0'>
        <var-decl name='quot' type-id='bd54fe1a' visibility='default' filepath='/usr/include/stdlib.h' line='107' column='1'/>
      </data-member>
      <data-member access='public' layout-offset-in-bits='64'>
        <var-decl name='rem' type-id='bd54fe1a' visibility='default' filepath='/usr/include/stdlib.h' line='108' column='1'/>
      </data-member>
    </class-decl>
    <typedef-decl name='ldiv_t' type-id='9b5926fd' filepath='/usr/include/stdlib.h' line='109' column='1' id='30397bf8'/>
    <class-decl name='lldiv_t' size-in-bits='128' is-struct='yes' naming-typedef-id='f5fa3b34' visibility='default' filepath='/usr/include/stdlib.h' line='117' column='1' id='649cba4b'>
      <data-member access='public' layout-offset-in-bits='0'>
        <var-decl name='quot' type-id='1eb56b1e' visibility='default' filepath='/usr/include/stdlib.h' line='119' column='1'/>
      </data-member>
      <data-member access='public' layout-offset-in-bits='64'>
        <var-decl name='rem' type-id='1eb56b1e' visibility='default' filepath='/usr/include/stdlib.h' line='120' column='1'/>
      </data-member>
    </class-decl>
    <typedef-decl name='lldiv_t' type-id='649cba4b' filepath='/usr/include/stdlib.h' line='121' column='1' id='f5fa3b34'/>
    <typedef-decl name='__compar_fn_t' type-id='585e1de9' filepath='/usr/include/stdlib.h' line='741' column='1' id='aba7edd8'/>
    <typedef-decl name='clock_t' type-id='4d66c6d7' filepath='/usr/include/time.h' line='59' column='1' id='4c3a2c61'/>
    <typedef-decl name='time_t' type-id='65eda9c0' filepath='/usr/include/time.h' line='75' column='1' id='c9d12d66'/>
    <class-decl name='tm' size-in-bits='448' is-struct='yes' visibility='default' filepath='/usr/include/time.h' line='133' column='1' id='dddf6ca2'>
      <data-member access='public' layout-offset-in-bits='0'>
        <var-decl name='tm_sec' type-id='95e97e5e' visibility='default' filepath='/usr/include/time.h' line='135' column='1'/>
      </data-member>
      <data-member access='public' layout-offset-in-bits='32'>
        <var-decl name='tm_min' type-id='95e97e5e' visibility='default' filepath='/usr/include/time.h' line='136' column='1'/>
      </data-member>
      <data-member access='public' layout-offset-in-bits='64'>
        <var-decl name='tm_hour' type-id='95e97e5e' visibility='default' filepath='/usr/include/time.h' line='137' column='1'/>
      </data-member>
      <data-member access='public' layout-offset-in-bits='96'>
        <var-decl name='tm_mday' type-id='95e97e5e' visibility='default' filepath='/usr/include/time.h' line='138' column='1'/>
      </data-member>
      <data-member access='public' layout-offset-in-bits='128'>
        <var-decl name='tm_mon' type-id='95e97e5e' visibility='default' filepath='/usr/include/time.h' line='139' column='1'/>
      </data-member>
      <data-member access='public' layout-offset-in-bits='160'>
        <var-decl name='tm_year' type-id='95e97e5e' visibility='default' filepath='/usr/include/time.h' line='140' column='1'/>
      </data-member>
      <data-member access='public' layout-offset-in-bits='192'>
        <var-decl name='tm_wday' type-id='95e97e5e' visibility='default' filepath='/usr/include/time.h' line='141' column='1'/>
      </data-member>
      <data-member access='public' layout-offset-in-bits='224'>
        <var-decl name='tm_yday' type-id='95e97e5e' visibility='default' filepath='/usr/include/time.h' line='142' column='1'/>
      </data-member>
      <data-member access='public' layout-offset-in-bits='256'>
        <var-decl name='tm_isdst' type-id='95e97e5e' visibility='default' filepath='/usr/include/time.h' line='143' column='1'/>
      </data-member>
      <data-member access='public' layout-offset-in-bits='320'>
        <var-decl name='tm_gmtoff' type-id='bd54fe1a' visibility='default' filepath='/usr/include/time.h' line='146' column='1'/>
      </data-member>
      <data-member access='public' layout-offset-in-bits='384'>
        <var-decl name='tm_zone' type-id='80f4b756' visibility='default' filepath='/usr/include/time.h' line='147' column='1'/>
      </data-member>
    </class-decl>
    <class-decl name='__mbstate_t' size-in-bits='64' is-struct='yes' naming-typedef-id='55e5b2b5' visibility='default' filepath='/usr/include/wchar.h' line='82' column='1' id='87447a2e'>
      <member-type access='public'>
        <union-decl name='__anonymous_union__' size-in-bits='32' is-anonymous='yes' visibility='default' filepath='/usr/include/wchar.h' line='85' column='1' id='ac5ab595'>
          <data-member access='public'>
            <var-decl name='__wch' type-id='f0981eeb' visibility='default' filepath='/usr/include/wchar.h' line='88' column='1'/>
          </data-member>
          <data-member access='public'>
            <var-decl name='__wchb' type-id='8e0573fd' visibility='default' filepath='/usr/include/wchar.h' line='92' column='1'/>
          </data-member>
        </union-decl>
      </member-type>
      <data-member access='public' layout-offset-in-bits='0'>
        <var-decl name='__count' type-id='95e97e5e' visibility='default' filepath='/usr/include/wchar.h' line='84' column='1'/>
      </data-member>
      <data-member access='public' layout-offset-in-bits='32'>
        <var-decl name='__value' type-id='ac5ab595' visibility='default' filepath='/usr/include/wchar.h' line='93' column='1'/>
      </data-member>
    </class-decl>
    <typedef-decl name='__mbstate_t' type-id='87447a2e' filepath='/usr/include/wchar.h' line='94' column='1' id='55e5b2b5'/>
    <typedef-decl name='mbstate_t' type-id='55e5b2b5' filepath='/usr/include/wchar.h' line='106' column='1' id='3d7d8cbf'/>
    <typedef-decl name='wctype_t' type-id='7359adad' filepath='/usr/include/wctype.h' line='52' column='1' id='ba50424d'/>
    <typedef-decl name='wctrans_t' type-id='a0de50cd' filepath='/usr/include/wctype.h' line='186' column='1' id='183c72c3'/>
    <typedef-decl name='__int32_t' type-id='95e97e5e' filepath='/usr/include/x86_64-linux-gnu/bits/types.h' line='40' column='1' id='33f57a65'/>
    <typedef-decl name='__clock_t' type-id='bd54fe1a' filepath='/usr/include/x86_64-linux-gnu/bits/types.h' line='135' column='1' id='4d66c6d7'/>
    <typedef-decl name='__time_t' type-id='bd54fe1a' filepath='/usr/include/x86_64-linux-gnu/bits/types.h' line='139' column='1' id='65eda9c0'/>
    <typedef-decl name='size_t' type-id='7359adad' filepath='/usr/lib/llvm-3.6/bin/../lib/clang/3.6.0/include/stddef.h' line='62' column='1' id='b59d7dce'/>
    <typedef-decl name='wint_t' type-id='f0981eeb' filepath='/usr/lib/llvm-3.6/bin/../lib/clang/3.6.0/include/stddef.h' line='132' column='1' id='6dd37369'/>
    <pointer-type-def type-id='aa12d1ba' size-in-bits='64' id='822cd80b'/>
    <qualified-type-def type-id='822cd80b' restrict='yes' id='e75a27e9'/>
    <pointer-type-def type-id='79311084' size-in-bits='64' id='b9c57915'/>
    <qualified-type-def type-id='b9c57915' restrict='yes' id='45880717'/>
    <pointer-type-def type-id='fca5c1fb' size-in-bits='64' id='b7f2d5e6'/>
    <reference-type-def kind='lvalue' type-id='e3bda5bb' size-in-bits='64' id='c2caf6ff'/>
    <pointer-type-def type-id='e3bda5bb' size-in-bits='64' id='c6cafd4b'/>
    <pointer-type-def type-id='391738a6' size-in-bits='64' id='2462780c'/>
    <pointer-type-def type-id='4dca76f3' size-in-bits='64' id='d142b053'/>
    <pointer-type-def type-id='791d7afb' size-in-bits='64' id='db6711fb'/>
    <pointer-type-def type-id='a84c031d' size-in-bits='64' id='26a90f95'/>
    <qualified-type-def type-id='26a90f95' restrict='yes' id='266fe297'/>
    <pointer-type-def type-id='26a90f95' size-in-bits='64' id='9b23c9ad'/>
    <qualified-type-def type-id='9b23c9ad' restrict='yes' id='8c85230f'/>
    <pointer-type-def type-id='839dbf6d' size-in-bits='64' id='9627086d'/>
    <qualified-type-def type-id='33f57a65' const='yes' id='21fd6035'/>
    <pointer-type-def type-id='21fd6035' size-in-bits='64' id='a0de50cd'/>
    <qualified-type-def type-id='e3bda5bb' const='yes' id='9541b9aa'/>
    <reference-type-def kind='lvalue' type-id='9541b9aa' size-in-bits='64' id='82771764'/>
    <qualified-type-def type-id='391738a6' const='yes' id='8f2ba985'/>
    <reference-type-def kind='lvalue' type-id='8f2ba985' size-in-bits='64' id='04bc0b99'/>
    <pointer-type-def type-id='8f2ba985' size-in-bits='64' id='10bc1e7d'/>
    <qualified-type-def type-id='4dca76f3' const='yes' id='ad012be0'/>
    <reference-type-def kind='lvalue' type-id='ad012be0' size-in-bits='64' id='1ed7e8b2'/>
    <pointer-type-def type-id='ad012be0' size-in-bits='64' id='22d7eefe'/>
    <qualified-type-def type-id='791d7afb' const='yes' id='3ac076aa'/>
    <reference-type-def kind='lvalue' type-id='3ac076aa' size-in-bits='64' id='08fa9e64'/>
    <pointer-type-def type-id='3ac076aa' size-in-bits='64' id='fcfa8b80'/>
    <qualified-type-def type-id='a84c031d' const='yes' id='9b45d938'/>
    <pointer-type-def type-id='9b45d938' size-in-bits='64' id='80f4b756'/>
    <qualified-type-def type-id='80f4b756' restrict='yes' id='9d26089a'/>
    <pointer-type-def type-id='80f4b756' size-in-bits='64' id='7d3cd834'/>
    <qualified-type-def type-id='7d3cd834' restrict='yes' id='690e87bc'/>
    <qualified-type-def type-id='839dbf6d' const='yes' id='b924acf2'/>
    <pointer-type-def type-id='b924acf2' size-in-bits='64' id='4cbc1808'/>
    <qualified-type-def type-id='e322b6ef' const='yes' id='59d28eff'/>
    <pointer-type-def type-id='59d28eff' size-in-bits='64' id='3b76d94f'/>
    <qualified-type-def type-id='3d7d8cbf' const='yes' id='7411c98f'/>
    <pointer-type-def type-id='7411c98f' size-in-bits='64' id='5d006ebf'/>
    <qualified-type-def type-id='c9d12d66' const='yes' id='588b3216'/>
    <pointer-type-def type-id='588b3216' size-in-bits='64' id='9f201474'/>
    <qualified-type-def type-id='dddf6ca2' const='yes' id='e824a34f'/>
    <pointer-type-def type-id='e824a34f' size-in-bits='64' id='d6ad37ff'/>
    <qualified-type-def type-id='d6ad37ff' restrict='yes' id='f8c6051d'/>
    <qualified-type-def type-id='c523b9f1' const='yes' id='effb3702'/>
    <pointer-type-def type-id='effb3702' size-in-bits='64' id='f077d3f8'/>
    <qualified-type-def type-id='f077d3f8' restrict='yes' id='598aab80'/>
    <pointer-type-def type-id='f077d3f8' size-in-bits='64' id='5ea27396'/>
    <qualified-type-def type-id='5ea27396' restrict='yes' id='3f25745a'/>
    <pointer-type-def type-id='e322b6ef' size-in-bits='64' id='c5f12884'/>
    <qualified-type-def type-id='c5f12884' restrict='yes' id='8579fd4c'/>
    <pointer-type-def type-id='96ee24a5' size-in-bits='64' id='585e1de9'/>
    <pointer-type-def type-id='58591d3d' size-in-bits='64' id='d83ac36d'/>
    <pointer-type-def type-id='3d7d8cbf' size-in-bits='64' id='a68021ce'/>
    <qualified-type-def type-id='a68021ce' restrict='yes' id='03aaab72'/>
    <pointer-type-def type-id='c9d12d66' size-in-bits='64' id='b2eb2c3f'/>
    <pointer-type-def type-id='dddf6ca2' size-in-bits='64' id='d915a820'/>
    <pointer-type-def type-id='ee076206' size-in-bits='64' id='953b12f8'/>
    <pointer-type-def type-id='48b5725f' size-in-bits='64' id='eaa32e2f'/>
    <qualified-type-def type-id='eaa32e2f' restrict='yes' id='1b7446cd'/>
    <pointer-type-def type-id='c523b9f1' size-in-bits='64' id='323d93c1'/>
    <qualified-type-def type-id='323d93c1' restrict='yes' id='f1358bc3'/>
    <pointer-type-def type-id='323d93c1' size-in-bits='64' id='01efdaf1'/>
    <qualified-type-def type-id='01efdaf1' restrict='yes' id='69bba573'/>
    <class-decl name='_IO_FILE' is-struct='yes' visibility='default' is-declaration-only='yes' id='ec1ed955'/>
    <class-decl name='lconv' is-struct='yes' visibility='default' is-declaration-only='yes' id='58591d3d'/>
    <namespace-decl name='std'>
      <typedef-decl name='string' type-id='c2931f67' filepath='/usr/bin/../lib/gcc/x86_64-linux-gnu/4.9/../../../../include/c++/4.9/bits/stringfwd.h' line='62' column='1' id='4a30a7f0'/>
      <class-decl name='basic_string&lt;char, std::char_traits&lt;char&gt;, std::allocator&lt;char&gt; &gt;' visibility='default' is-declaration-only='yes' id='c2931f67'>
        <member-type access='private'>
          <typedef-decl name='size_type' type-id='ea4606d6' filepath='/usr/bin/../lib/gcc/x86_64-linux-gnu/4.9/../../../../include/c++/4.9/bits/basic_string.h' line='121' column='1' id='4ababdf0'/>
        </member-type>
        <member-type access='private'>
          <class-decl name='_Rep_base' size-in-bits='192' is-struct='yes' visibility='default' filepath='/usr/bin/../lib/gcc/x86_64-linux-gnu/4.9/../../../../include/c++/4.9/bits/basic_string.h' line='148' column='1' id='6c007811'>
            <data-member access='public' layout-offset-in-bits='0'>
              <var-decl name='_M_length' type-id='4ababdf0' visibility='default' filepath='/usr/bin/../lib/gcc/x86_64-linux-gnu/4.9/../../../../include/c++/4.9/bits/basic_string.h' line='150' column='1'/>
            </data-member>
            <data-member access='public' layout-offset-in-bits='64'>
              <var-decl name='_M_capacity' type-id='4ababdf0' visibility='default' filepath='/usr/bin/../lib/gcc/x86_64-linux-gnu/4.9/../../../../include/c++/4.9/bits/basic_string.h' line='151' column='1'/>
            </data-member>
            <data-member access='public' layout-offset-in-bits='128'>
              <var-decl name='_M_refcount' type-id='e9464a99' visibility='default' filepath='/usr/bin/../lib/gcc/x86_64-linux-gnu/4.9/../../../../include/c++/4.9/bits/basic_string.h' line='152' column='1'/>
            </data-member>
          </class-decl>
        </member-type>
        <member-type access='private'>
          <class-decl name='_Rep' size-in-bits='192' is-struct='yes' visibility='default' filepath='/usr/bin/../lib/gcc/x86_64-linux-gnu/4.9/../../../../include/c++/4.9/bits/basic_string.h' line='155' column='1' id='34601093'>
            <base-class access='public' layout-offset-in-bits='0' type-id='6c007811'/>
            <data-member access='public' static='yes'>
              <var-decl name='_S_max_size' type-id='b5b164a0' visibility='default' filepath='/usr/bin/../lib/gcc/x86_64-linux-gnu/4.9/../../../../include/c++/4.9/bits/basic_string.h' line='173' column='1'/>
            </data-member>
            <data-member access='public' static='yes'>
              <var-decl name='_S_terminal' type-id='9b45d938' visibility='default' filepath='/usr/bin/../lib/gcc/x86_64-linux-gnu/4.9/../../../../include/c++/4.9/bits/basic_string.h' line='174' column='1'/>
            </data-member>
            <data-member access='public' static='yes'>
              <var-decl name='_S_empty_rep_storage' type-id='4088669f' visibility='default' filepath='/usr/bin/../lib/gcc/x86_64-linux-gnu/4.9/../../../../include/c++/4.9/bits/basic_string.h' line='178' column='1'/>
            </data-member>
          </class-decl>
        </member-type>
        <member-function access='public'>
          <function-decl name='basic_string&lt;char *&gt;' mangled-name='_ZNSsC2IPcEET_S1_RKSaIcE' filepath='/usr/bin/../lib/gcc/x86_64-linux-gnu/4.9/../../../../include/c++/4.9/bits/basic_string.h' line='540' column='1' visibility='default' binding='global' size-in-bits='64' elf-symbol-id='_ZNSsC2IPcEET_S1_RKSaIcE'>
            <parameter type-id='16934a6f' is-artificial='yes'/>
            <parameter type-id='26a90f95'/>
            <parameter type-id='26a90f95'/>
            <parameter type-id='d6d4f37a'/>
            <return type-id='48b5725f'/>
          </function-decl>
        </member-function>
        <member-function access='public'>
          <function-decl name='append&lt;const char *&gt;' mangled-name='_ZNSs6appendIPKcEERSsT_S3_' filepath='/usr/bin/../lib/gcc/x86_64-linux-gnu/4.9/../../../../include/c++/4.9/bits/basic_string.h' line='1061' column='1' visibility='default' binding='global' size-in-bits='64' elf-symbol-id='_ZNSs6appendIPKcEERSsT_S3_'>
            <parameter type-id='16934a6f' is-artificial='yes'/>
            <parameter type-id='80f4b756'/>
            <parameter type-id='80f4b756'/>
            <return type-id='1a9350bb'/>
          </function-decl>
        </member-function>
        <member-function access='private' static='yes'>
          <function-decl name='_S_construct&lt;char *&gt;' mangled-name='_ZNSs12_S_constructIPcEES0_T_S1_RKSaIcE' filepath='/usr/bin/../lib/gcc/x86_64-linux-gnu/4.9/../../../../include/c++/4.9/bits/basic_string.h' line='1761' column='1' visibility='default' binding='global' size-in-bits='64' elf-symbol-id='_ZNSs12_S_constructIPcEES0_T_S1_RKSaIcE'>
            <parameter type-id='26a90f95'/>
            <parameter type-id='26a90f95'/>
            <parameter type-id='d6d4f37a'/>
            <return type-id='26a90f95'/>
          </function-decl>
        </member-function>
        <member-function access='private' static='yes'>
          <function-decl name='_S_construct_aux&lt;char *&gt;' mangled-name='_ZNSs16_S_construct_auxIPcEES0_T_S1_RKSaIcESt12__false_type' filepath='/usr/bin/../lib/gcc/x86_64-linux-gnu/4.9/../../../../include/c++/4.9/bits/basic_string.h' line='1739' column='1' visibility='default' binding='global' size-in-bits='64' elf-symbol-id='_ZNSs16_S_construct_auxIPcEES0_T_S1_RKSaIcESt12__false_type'>
            <parameter type-id='26a90f95'/>
            <parameter type-id='26a90f95'/>
            <parameter type-id='d6d4f37a'/>
            <parameter type-id='b90ad1b0'/>
            <return type-id='26a90f95'/>
          </function-decl>
        </member-function>
        <member-function access='private' static='yes'>
          <function-decl name='_S_construct&lt;char *&gt;' mangled-name='_ZNSs12_S_constructIPcEES0_T_S1_RKSaIcESt20forward_iterator_tag' filepath='/usr/bin/../lib/gcc/x86_64-linux-gnu/4.9/../../../../include/c++/4.9/bits/basic_string.h' line='1777' column='1' visibility='default' binding='global' size-in-bits='64' elf-symbol-id='_ZNSs12_S_constructIPcEES0_T_S1_RKSaIcESt20forward_iterator_tag'>
            <parameter type-id='26a90f95'/>
            <parameter type-id='26a90f95'/>
            <parameter type-id='d6d4f37a'/>
            <parameter type-id='ee723d41'/>
            <return type-id='26a90f95'/>
          </function-decl>
        </member-function>
        <member-function access='public'>
          <function-decl name='basic_string&lt;const char *&gt;' mangled-name='_ZNSsC2IPKcEET_S2_RKSaIcE' filepath='/usr/bin/../lib/gcc/x86_64-linux-gnu/4.9/../../../../include/c++/4.9/bits/basic_string.h' line='540' column='1' visibility='default' binding='global' size-in-bits='64' elf-symbol-id='_ZNSsC2IPKcEET_S2_RKSaIcE'>
            <parameter type-id='16934a6f' is-artificial='yes'/>
            <parameter type-id='80f4b756'/>
            <parameter type-id='80f4b756'/>
            <parameter type-id='d6d4f37a'/>
            <return type-id='48b5725f'/>
          </function-decl>
        </member-function>
        <member-function access='private' static='yes'>
          <function-decl name='_S_construct&lt;const char *&gt;' mangled-name='_ZNSs12_S_constructIPKcEEPcT_S3_RKSaIcE' filepath='/usr/bin/../lib/gcc/x86_64-linux-gnu/4.9/../../../../include/c++/4.9/bits/basic_string.h' line='1761' column='1' visibility='default' binding='global' size-in-bits='64' elf-symbol-id='_ZNSs12_S_constructIPKcEEPcT_S3_RKSaIcE'>
            <parameter type-id='80f4b756'/>
            <parameter type-id='80f4b756'/>
            <parameter type-id='d6d4f37a'/>
            <return type-id='26a90f95'/>
          </function-decl>
        </member-function>
        <member-function access='private' static='yes'>
          <function-decl name='_S_construct_aux&lt;const char *&gt;' mangled-name='_ZNSs16_S_construct_auxIPKcEEPcT_S3_RKSaIcESt12__false_type' filepath='/usr/bin/../lib/gcc/x86_64-linux-gnu/4.9/../../../../include/c++/4.9/bits/basic_string.h' line='1739' column='1' visibility='default' binding='global' size-in-bits='64' elf-symbol-id='_ZNSs16_S_construct_auxIPKcEEPcT_S3_RKSaIcESt12__false_type'>
            <parameter type-id='80f4b756'/>
            <parameter type-id='80f4b756'/>
            <parameter type-id='d6d4f37a'/>
            <parameter type-id='b90ad1b0'/>
            <return type-id='26a90f95'/>
          </function-decl>
        </member-function>
        <member-function access='private' static='yes'>
          <function-decl name='_S_construct&lt;const char *&gt;' mangled-name='_ZNSs12_S_constructIPKcEEPcT_S3_RKSaIcESt20forward_iterator_tag' filepath='/usr/bin/../lib/gcc/x86_64-linux-gnu/4.9/../../../../include/c++/4.9/bits/basic_string.h' line='1777' column='1' visibility='default' binding='global' size-in-bits='64' elf-symbol-id='_ZNSs12_S_constructIPKcEEPcT_S3_RKSaIcESt20forward_iterator_tag'>
            <parameter type-id='80f4b756'/>
            <parameter type-id='80f4b756'/>
            <parameter type-id='d6d4f37a'/>
            <parameter type-id='ee723d41'/>
            <return type-id='26a90f95'/>
          </function-decl>
        </member-function>
        <member-function access='public'>
          <function-decl name='append&lt;char *&gt;' mangled-name='_ZNSs6appendIPcEERSsT_S2_' filepath='/usr/bin/../lib/gcc/x86_64-linux-gnu/4.9/../../../../include/c++/4.9/bits/basic_string.h' line='1061' column='1' visibility='default' binding='global' size-in-bits='64' elf-symbol-id='_ZNSs6appendIPcEERSsT_S2_'>
            <parameter type-id='16934a6f' is-artificial='yes'/>
            <parameter type-id='26a90f95'/>
            <parameter type-id='26a90f95'/>
            <return type-id='1a9350bb'/>
          </function-decl>
        </member-function>
      </class-decl>
    </namespace-decl>
    <function-decl name='isalnum' filepath='/usr/include/ctype.h' line='110' column='1' visibility='default' binding='global' size-in-bits='64'>
      <parameter type-id='95e97e5e'/>
      <return type-id='95e97e5e'/>
    </function-decl>
    <function-decl name='isalpha' filepath='/usr/include/ctype.h' line='111' column='1' visibility='default' binding='global' size-in-bits='64'>
      <parameter type-id='95e97e5e'/>
      <return type-id='95e97e5e'/>
    </function-decl>
    <function-decl name='iscntrl' filepath='/usr/include/ctype.h' line='112' column='1' visibility='default' binding='global' size-in-bits='64'>
      <parameter type-id='95e97e5e'/>
      <return type-id='95e97e5e'/>
    </function-decl>
    <function-decl name='isdigit' filepath='/usr/include/ctype.h' line='113' column='1' visibility='default' binding='global' size-in-bits='64'>
      <parameter type-id='95e97e5e'/>
      <return type-id='95e97e5e'/>
    </function-decl>
    <function-decl name='islower' filepath='/usr/include/ctype.h' line='114' column='1' visibility='default' binding='global' size-in-bits='64'>
      <parameter type-id='95e97e5e'/>
      <return type-id='95e97e5e'/>
    </function-decl>
    <function-decl name='isgraph' filepath='/usr/include/ctype.h' line='115' column='1' visibility='default' binding='global' size-in-bits='64'>
      <parameter type-id='95e97e5e'/>
      <return type-id='95e97e5e'/>
    </function-decl>
    <function-decl name='isprint' filepath='/usr/include/ctype.h' line='116' column='1' visibility='default' binding='global' size-in-bits='64'>
      <parameter type-id='95e97e5e'/>
      <return type-id='95e97e5e'/>
    </function-decl>
    <function-decl name='ispunct' filepath='/usr/include/ctype.h' line='117' column='1' visibility='default' binding='global' size-in-bits='64'>
      <parameter type-id='95e97e5e'/>
      <return type-id='95e97e5e'/>
    </function-decl>
    <function-decl name='isspace' filepath='/usr/include/ctype.h' line='118' column='1' visibility='default' binding='global' size-in-bits='64'>
      <parameter type-id='95e97e5e'/>
      <return type-id='95e97e5e'/>
    </function-decl>
    <function-decl name='isupper' filepath='/usr/include/ctype.h' line='119' column='1' visibility='default' binding='global' size-in-bits='64'>
      <parameter type-id='95e97e5e'/>
      <return type-id='95e97e5e'/>
    </function-decl>
    <function-decl name='isxdigit' filepath='/usr/include/ctype.h' line='120' column='1' visibility='default' binding='global' size-in-bits='64'>
      <parameter type-id='95e97e5e'/>
      <return type-id='95e97e5e'/>
    </function-decl>
    <function-decl name='tolower' filepath='/usr/include/ctype.h' line='124' column='1' visibility='default' binding='global' size-in-bits='64'>
      <parameter type-id='95e97e5e'/>
      <return type-id='95e97e5e'/>
    </function-decl>
    <function-decl name='toupper' filepath='/usr/include/ctype.h' line='127' column='1' visibility='default' binding='global' size-in-bits='64'>
      <parameter type-id='95e97e5e'/>
      <return type-id='95e97e5e'/>
    </function-decl>
    <function-decl name='isblank' filepath='/usr/include/ctype.h' line='136' column='1' visibility='default' binding='global' size-in-bits='64'>
      <parameter type-id='95e97e5e'/>
      <return type-id='95e97e5e'/>
    </function-decl>
    <function-decl name='setlocale' filepath='/usr/include/locale.h' line='124' column='1' visibility='default' binding='global' size-in-bits='64'>
      <parameter type-id='95e97e5e'/>
      <parameter type-id='80f4b756'/>
      <return type-id='26a90f95'/>
    </function-decl>
    <function-decl name='localeconv' filepath='/usr/include/locale.h' line='127' column='1' visibility='default' binding='global' size-in-bits='64'>
      <return type-id='d83ac36d'/>
    </function-decl>
    <function-decl name='remove' filepath='/usr/include/stdio.h' line='178' column='1' visibility='default' binding='global' size-in-bits='64'>
      <parameter type-id='80f4b756'/>
      <return type-id='95e97e5e'/>
    </function-decl>
    <function-decl name='rename' filepath='/usr/include/stdio.h' line='180' column='1' visibility='default' binding='global' size-in-bits='64'>
      <parameter type-id='80f4b756'/>
      <parameter type-id='80f4b756'/>
      <return type-id='95e97e5e'/>
    </function-decl>
    <function-decl name='tmpfile' mangled-name='tmpfile64' filepath='/usr/include/stdio.h' line='195' column='1' visibility='default' binding='global' size-in-bits='64'>
      <return type-id='822cd80b'/>
    </function-decl>
    <function-decl name='tmpnam' filepath='/usr/include/stdio.h' line='209' column='1' visibility='default' binding='global' size-in-bits='64'>
      <parameter type-id='26a90f95'/>
      <return type-id='26a90f95'/>
    </function-decl>
    <function-decl name='fclose' filepath='/usr/include/stdio.h' line='237' column='1' visibility='default' binding='global' size-in-bits='64'>
      <parameter type-id='822cd80b'/>
      <return type-id='95e97e5e'/>
    </function-decl>
    <function-decl name='fflush' filepath='/usr/include/stdio.h' line='242' column='1' visibility='default' binding='global' size-in-bits='64'>
      <parameter type-id='822cd80b'/>
      <return type-id='95e97e5e'/>
    </function-decl>
    <function-decl name='fopen' mangled-name='fopen64' filepath='/usr/include/stdio.h' line='272' column='1' visibility='default' binding='global' size-in-bits='64'>
      <parameter type-id='9d26089a'/>
      <parameter type-id='9d26089a'/>
      <return type-id='822cd80b'/>
    </function-decl>
    <function-decl name='freopen' mangled-name='freopen64' filepath='/usr/include/stdio.h' line='278' column='1' visibility='default' binding='global' size-in-bits='64'>
      <parameter type-id='9d26089a'/>
      <parameter type-id='9d26089a'/>
      <parameter type-id='e75a27e9'/>
      <return type-id='822cd80b'/>
    </function-decl>
    <function-decl name='setbuf' filepath='/usr/include/stdio.h' line='332' column='1' visibility='default' binding='global' size-in-bits='64'>
      <parameter type-id='e75a27e9'/>
      <parameter type-id='266fe297'/>
      <return type-id='48b5725f'/>
    </function-decl>
    <function-decl name='setvbuf' filepath='/usr/include/stdio.h' line='336' column='1' visibility='default' binding='global' size-in-bits='64'>
      <parameter type-id='e75a27e9'/>
      <parameter type-id='266fe297'/>
      <parameter type-id='95e97e5e'/>
      <parameter type-id='b59d7dce'/>
      <return type-id='95e97e5e'/>
    </function-decl>
    <function-decl name='fprintf' filepath='/usr/include/stdio.h' line='356' column='1' visibility='default' binding='global' size-in-bits='64'>
      <parameter type-id='e75a27e9'/>
      <parameter type-id='9d26089a'/>
      <parameter is-variadic='yes'/>
      <return type-id='95e97e5e'/>
    </function-decl>
    <function-decl name='printf' filepath='/usr/include/stdio.h' line='362' column='1' visibility='default' binding='global' size-in-bits='64'>
      <parameter type-id='9d26089a'/>
      <parameter is-variadic='yes'/>
      <return type-id='95e97e5e'/>
    </function-decl>
    <function-decl name='sprintf' filepath='/usr/include/stdio.h' line='364' column='1' visibility='default' binding='global' size-in-bits='64'>
      <parameter type-id='266fe297'/>
      <parameter type-id='9d26089a'/>
      <parameter is-variadic='yes'/>
      <return type-id='95e97e5e'/>
    </function-decl>
    <function-decl name='vfprintf' filepath='/usr/include/stdio.h' line='371' column='1' visibility='default' binding='global' size-in-bits='64'>
      <parameter type-id='e75a27e9'/>
      <parameter type-id='9d26089a'/>
      <parameter type-id='b7f2d5e6'/>
      <return type-id='95e97e5e'/>
    </function-decl>
    <function-decl name='vprintf' filepath='/usr/include/stdio.h' line='377' column='1' visibility='default' binding='global' size-in-bits='64'>
      <parameter type-id='9d26089a'/>
      <parameter type-id='b7f2d5e6'/>
      <return type-id='95e97e5e'/>
    </function-decl>
    <function-decl name='vsprintf' filepath='/usr/include/stdio.h' line='379' column='1' visibility='default' binding='global' size-in-bits='64'>
      <parameter type-id='266fe297'/>
      <parameter type-id='9d26089a'/>
      <parameter type-id='b7f2d5e6'/>
      <return type-id='95e97e5e'/>
    </function-decl>
    <function-decl name='snprintf' filepath='/usr/include/stdio.h' line='386' column='1' visibility='default' binding='global' size-in-bits='64'>
      <parameter type-id='266fe297'/>
      <parameter type-id='b59d7dce'/>
      <parameter type-id='9d26089a'/>
      <parameter is-variadic='yes'/>
      <return type-id='95e97e5e'/>
    </function-decl>
    <function-decl name='vsnprintf' filepath='/usr/include/stdio.h' line='390' column='1' visibility='default' binding='global' size-in-bits='64'>
      <parameter type-id='266fe297'/>
      <parameter type-id='b59d7dce'/>
      <parameter type-id='9d26089a'/>
      <parameter type-id='b7f2d5e6'/>
      <return type-id='95e97e5e'/>
    </function-decl>
    <function-decl name='fscanf' filepath='/usr/include/stdio.h' line='425' column='1' visibility='default' binding='global' size-in-bits='64'>
      <parameter type-id='e75a27e9'/>
      <parameter type-id='9d26089a'/>
      <parameter is-variadic='yes'/>
      <return type-id='95e97e5e'/>
    </function-decl>
    <function-decl name='scanf' filepath='/usr/include/stdio.h' line='431' column='1' visibility='default' binding='global' size-in-bits='64'>
      <parameter type-id='9d26089a'/>
      <parameter is-variadic='yes'/>
      <return type-id='95e97e5e'/>
    </function-decl>
    <function-decl name='sscanf' filepath='/usr/include/stdio.h' line='433' column='1' visibility='default' binding='global' size-in-bits='64'>
      <parameter type-id='9d26089a'/>
      <parameter type-id='9d26089a'/>
      <parameter is-variadic='yes'/>
      <return type-id='95e97e5e'/>
    </function-decl>
    <function-decl name='vfscanf' filepath='/usr/include/stdio.h' line='471' column='1' visibility='default' binding='global' size-in-bits='64'>
      <parameter type-id='e75a27e9'/>
      <parameter type-id='9d26089a'/>
      <parameter type-id='b7f2d5e6'/>
      <return type-id='95e97e5e'/>
    </function-decl>
    <function-decl name='vscanf' filepath='/usr/include/stdio.h' line='479' column='1' visibility='default' binding='global' size-in-bits='64'>
      <parameter type-id='9d26089a'/>
      <parameter type-id='b7f2d5e6'/>
      <return type-id='95e97e5e'/>
    </function-decl>
    <function-decl name='vsscanf' filepath='/usr/include/stdio.h' line='483' column='1' visibility='default' binding='global' size-in-bits='64'>
      <parameter type-id='9d26089a'/>
      <parameter type-id='9d26089a'/>
      <parameter type-id='b7f2d5e6'/>
      <return type-id='95e97e5e'/>
    </function-decl>
    <function-decl name='fgetc' filepath='/usr/include/stdio.h' line='531' column='1' visibility='default' binding='global' size-in-bits='64'>
      <parameter type-id='822cd80b'/>
      <return type-id='95e97e5e'/>
    </function-decl>
    <function-decl name='getc' filepath='/usr/include/stdio.h' line='532' column='1' visibility='default' binding='global' size-in-bits='64'>
      <parameter type-id='822cd80b'/>
      <return type-id='95e97e5e'/>
    </function-decl>
    <function-decl name='getchar' filepath='/usr/include/stdio.h' line='538' column='1' visibility='default' binding='global' size-in-bits='64'>
      <return type-id='95e97e5e'/>
    </function-decl>
    <function-decl name='fputc' filepath='/usr/include/stdio.h' line='573' column='1' visibility='default' binding='global' size-in-bits='64'>
      <parameter type-id='95e97e5e'/>
      <parameter type-id='822cd80b'/>
      <return type-id='95e97e5e'/>
    </function-decl>
    <function-decl name='putc' filepath='/usr/include/stdio.h' line='574' column='1' visibility='default' binding='global' size-in-bits='64'>
      <parameter type-id='95e97e5e'/>
      <parameter type-id='822cd80b'/>
      <return type-id='95e97e5e'/>
    </function-decl>
    <function-decl name='putchar' filepath='/usr/include/stdio.h' line='580' column='1' visibility='default' binding='global' size-in-bits='64'>
      <parameter type-id='95e97e5e'/>
      <return type-id='95e97e5e'/>
    </function-decl>
    <function-decl name='fgets' filepath='/usr/include/stdio.h' line='622' column='1' visibility='default' binding='global' size-in-bits='64'>
      <parameter type-id='266fe297'/>
      <parameter type-id='95e97e5e'/>
      <parameter type-id='e75a27e9'/>
      <return type-id='26a90f95'/>
    </function-decl>
    <function-decl name='gets' filepath='/usr/include/stdio.h' line='638' column='1' visibility='default' binding='global' size-in-bits='64'>
      <parameter type-id='26a90f95'/>
      <return type-id='26a90f95'/>
    </function-decl>
    <function-decl name='fputs' filepath='/usr/include/stdio.h' line='689' column='1' visibility='default' binding='global' size-in-bits='64'>
      <parameter type-id='9d26089a'/>
      <parameter type-id='e75a27e9'/>
      <return type-id='95e97e5e'/>
    </function-decl>
    <function-decl name='puts' filepath='/usr/include/stdio.h' line='695' column='1' visibility='default' binding='global' size-in-bits='64'>
      <parameter type-id='80f4b756'/>
      <return type-id='95e97e5e'/>
    </function-decl>
    <function-decl name='ungetc' filepath='/usr/include/stdio.h' line='702' column='1' visibility='default' binding='global' size-in-bits='64'>
      <parameter type-id='95e97e5e'/>
      <parameter type-id='822cd80b'/>
      <return type-id='95e97e5e'/>
    </function-decl>
    <function-decl name='fread' filepath='/usr/include/stdio.h' line='709' column='1' visibility='default' binding='global' size-in-bits='64'>
      <parameter type-id='1b7446cd'/>
      <parameter type-id='b59d7dce'/>
      <parameter type-id='b59d7dce'/>
      <parameter type-id='e75a27e9'/>
      <return type-id='b59d7dce'/>
    </function-decl>
    <function-decl name='fwrite' filepath='/usr/include/stdio.h' line='715' column='1' visibility='default' binding='global' size-in-bits='64'>
      <parameter type-id='1b7446cd'/>
      <parameter type-id='b59d7dce'/>
      <parameter type-id='b59d7dce'/>
      <parameter type-id='e75a27e9'/>
      <return type-id='b59d7dce'/>
    </function-decl>
    <function-decl name='fseek' filepath='/usr/include/stdio.h' line='749' column='1' visibility='default' binding='global' size-in-bits='64'>
      <parameter type-id='822cd80b'/>
      <parameter type-id='bd54fe1a'/>
      <parameter type-id='95e97e5e'/>
      <return type-id='95e97e5e'/>
    </function-decl>
    <function-decl name='ftell' filepath='/usr/include/stdio.h' line='754' column='1' visibility='default' binding='global' size-in-bits='64'>
      <parameter type-id='822cd80b'/>
      <return type-id='bd54fe1a'/>
    </function-decl>
    <function-decl name='rewind' filepath='/usr/include/stdio.h' line='759' column='1' visibility='default' binding='global' size-in-bits='64'>
      <parameter type-id='822cd80b'/>
      <return type-id='48b5725f'/>
    </function-decl>
    <function-decl name='fgetpos' mangled-name='fgetpos64' filepath='/usr/include/stdio.h' line='798' column='1' visibility='default' binding='global' size-in-bits='64'>
      <parameter type-id='e75a27e9'/>
      <parameter type-id='8579fd4c'/>
      <return type-id='95e97e5e'/>
    </function-decl>
    <function-decl name='fsetpos' mangled-name='fsetpos64' filepath='/usr/include/stdio.h' line='803' column='1' visibility='default' binding='global' size-in-bits='64'>
      <parameter type-id='822cd80b'/>
      <parameter type-id='3b76d94f'/>
      <return type-id='95e97e5e'/>
    </function-decl>
    <function-decl name='clearerr' filepath='/usr/include/stdio.h' line='826' column='1' visibility='default' binding='global' size-in-bits='64'>
      <parameter type-id='822cd80b'/>
      <return type-id='48b5725f'/>
    </function-decl>
    <function-decl name='feof' filepath='/usr/include/stdio.h' line='828' column='1' visibility='default' binding='global' size-in-bits='64'>
      <parameter type-id='822cd80b'/>
      <return type-id='95e97e5e'/>
    </function-decl>
    <function-decl name='ferror' filepath='/usr/include/stdio.h' line='830' column='1' visibility='default' binding='global' size-in-bits='64'>
      <parameter type-id='822cd80b'/>
      <return type-id='95e97e5e'/>
    </function-decl>
    <function-decl name='perror' filepath='/usr/include/stdio.h' line='846' column='1' visibility='default' binding='global' size-in-bits='64'>
      <parameter type-id='80f4b756'/>
      <return type-id='48b5725f'/>
    </function-decl>
    <function-decl name='atof' filepath='/usr/include/stdlib.h' line='144' column='1' visibility='default' binding='global' size-in-bits='64'>
      <parameter type-id='80f4b756'/>
      <return type-id='a0eb0f08'/>
    </function-decl>
    <function-decl name='atoi' filepath='/usr/include/stdlib.h' line='147' column='1' visibility='default' binding='global' size-in-bits='64'>
      <parameter type-id='80f4b756'/>
      <return type-id='95e97e5e'/>
    </function-decl>
    <function-decl name='atol' filepath='/usr/include/stdlib.h' line='150' column='1' visibility='default' binding='global' size-in-bits='64'>
      <parameter type-id='80f4b756'/>
      <return type-id='bd54fe1a'/>
    </function-decl>
    <function-decl name='atoll' filepath='/usr/include/stdlib.h' line='157' column='1' visibility='default' binding='global' size-in-bits='64'>
      <parameter type-id='80f4b756'/>
      <return type-id='1eb56b1e'/>
    </function-decl>
    <function-decl name='strtod' filepath='/usr/include/stdlib.h' line='164' column='1' visibility='default' binding='global' size-in-bits='64'>
      <parameter type-id='9d26089a'/>
      <parameter type-id='8c85230f'/>
      <return type-id='a0eb0f08'/>
    </function-decl>
    <function-decl name='strtof' filepath='/usr/include/stdlib.h' line='172' column='1' visibility='default' binding='global' size-in-bits='64'>
      <parameter type-id='9d26089a'/>
      <parameter type-id='8c85230f'/>
      <return type-id='a6c45d85'/>
    </function-decl>
    <function-decl name='strtold' filepath='/usr/include/stdlib.h' line='175' column='1' visibility='default' binding='global' size-in-bits='64'>
      <parameter type-id='9d26089a'/>
      <parameter type-id='8c85230f'/>
      <return type-id='e095c704'/>
    </function-decl>
    <function-decl name='strtol' filepath='/usr/include/stdlib.h' line='183' column='1' visibility='default' binding='global' size-in-bits='64'>
      <parameter type-id='9d26089a'/>
      <parameter type-id='8c85230f'/>
      <parameter type-id='95e97e5e'/>
      <return type-id='bd54fe1a'/>
    </function-decl>
    <function-decl name='strtoul' filepath='/usr/include/stdlib.h' line='187' column='1' visibility='default' binding='global' size-in-bits='64'>
      <parameter type-id='9d26089a'/>
      <parameter type-id='8c85230f'/>
      <parameter type-id='95e97e5e'/>
      <return type-id='7359adad'/>
    </function-decl>
    <function-decl name='strtoll' filepath='/usr/include/stdlib.h' line='209' column='1' visibility='default' binding='global' size-in-bits='64'>
      <parameter type-id='9d26089a'/>
      <parameter type-id='8c85230f'/>
      <parameter type-id='95e97e5e'/>
      <return type-id='1eb56b1e'/>
    </function-decl>
    <function-decl name='strtoull' filepath='/usr/include/stdlib.h' line='214' column='1' visibility='default' binding='global' size-in-bits='64'>
      <parameter type-id='9d26089a'/>
      <parameter type-id='8c85230f'/>
      <parameter type-id='95e97e5e'/>
      <return type-id='3a47d82b'/>
    </function-decl>
    <function-decl name='rand' filepath='/usr/include/stdlib.h' line='374' column='1' visibility='default' binding='global' size-in-bits='64'>
      <return type-id='95e97e5e'/>
    </function-decl>
    <function-decl name='srand' filepath='/usr/include/stdlib.h' line='376' column='1' visibility='default' binding='global' size-in-bits='64'>
      <parameter type-id='f0981eeb'/>
      <return type-id='48b5725f'/>
    </function-decl>
    <function-decl name='malloc' filepath='/usr/include/stdlib.h' line='466' column='1' visibility='default' binding='global' size-in-bits='64'>
      <parameter type-id='b59d7dce'/>
      <return type-id='eaa32e2f'/>
    </function-decl>
    <function-decl name='calloc' filepath='/usr/include/stdlib.h' line='468' column='1' visibility='default' binding='global' size-in-bits='64'>
      <parameter type-id='b59d7dce'/>
      <parameter type-id='b59d7dce'/>
      <return type-id='eaa32e2f'/>
    </function-decl>
    <function-decl name='realloc' filepath='/usr/include/stdlib.h' line='480' column='1' visibility='default' binding='global' size-in-bits='64'>
      <parameter type-id='eaa32e2f'/>
      <parameter type-id='b59d7dce'/>
      <return type-id='eaa32e2f'/>
    </function-decl>
    <function-decl name='free' filepath='/usr/include/stdlib.h' line='483' column='1' visibility='default' binding='global' size-in-bits='64'>
      <parameter type-id='eaa32e2f'/>
      <return type-id='48b5725f'/>
    </function-decl>
    <function-decl name='abort' filepath='/usr/include/stdlib.h' line='515' column='1' visibility='default' binding='global' size-in-bits='64'>
      <return type-id='48b5725f'/>
    </function-decl>
    <function-decl name='atexit' filepath='/usr/include/stdlib.h' line='519' column='1' visibility='default' binding='global' size-in-bits='64'>
      <parameter type-id='953b12f8'/>
      <return type-id='95e97e5e'/>
    </function-decl>
    <function-decl name='at_quick_exit' filepath='/usr/include/stdlib.h' line='524' column='1' visibility='default' binding='global' size-in-bits='64'>
      <parameter type-id='953b12f8'/>
      <return type-id='95e97e5e'/>
    </function-decl>
    <function-decl name='exit' filepath='/usr/include/stdlib.h' line='543' column='1' visibility='default' binding='global' size-in-bits='64'>
      <parameter type-id='95e97e5e'/>
      <return type-id='48b5725f'/>
    </function-decl>
    <function-decl name='quick_exit' filepath='/usr/include/stdlib.h' line='549' column='1' visibility='default' binding='global' size-in-bits='64'>
      <parameter type-id='95e97e5e'/>
      <return type-id='48b5725f'/>
    </function-decl>
    <function-decl name='_Exit' filepath='/usr/include/stdlib.h' line='557' column='1' visibility='default' binding='global' size-in-bits='64'>
      <parameter type-id='95e97e5e'/>
      <return type-id='48b5725f'/>
    </function-decl>
    <function-decl name='getenv' filepath='/usr/include/stdlib.h' line='564' column='1' visibility='default' binding='global' size-in-bits='64'>
      <parameter type-id='80f4b756'/>
      <return type-id='26a90f95'/>
    </function-decl>
    <function-decl name='system' filepath='/usr/include/stdlib.h' line='716' column='1' visibility='default' binding='global' size-in-bits='64'>
      <parameter type-id='80f4b756'/>
      <return type-id='95e97e5e'/>
    </function-decl>
    <function-decl name='bsearch' filepath='/usr/include/stdlib.h' line='754' column='1' visibility='default' binding='global' size-in-bits='64'>
      <parameter type-id='eaa32e2f'/>
      <parameter type-id='eaa32e2f'/>
      <parameter type-id='b59d7dce'/>
      <parameter type-id='b59d7dce'/>
      <parameter type-id='aba7edd8'/>
      <return type-id='eaa32e2f'/>
    </function-decl>
    <function-decl name='qsort' filepath='/usr/include/stdlib.h' line='764' column='1' visibility='default' binding='global' size-in-bits='64'>
      <parameter type-id='eaa32e2f'/>
      <parameter type-id='b59d7dce'/>
      <parameter type-id='b59d7dce'/>
      <parameter type-id='aba7edd8'/>
      <return type-id='48b5725f'/>
    </function-decl>
    <function-decl name='abs' filepath='/usr/include/stdlib.h' line='774' column='1' visibility='default' binding='global' size-in-bits='64'>
      <parameter type-id='95e97e5e'/>
      <return type-id='95e97e5e'/>
    </function-decl>
    <function-decl name='labs' filepath='/usr/include/stdlib.h' line='775' column='1' visibility='default' binding='global' size-in-bits='64'>
      <parameter type-id='bd54fe1a'/>
      <return type-id='bd54fe1a'/>
    </function-decl>
    <function-decl name='llabs' filepath='/usr/include/stdlib.h' line='779' column='1' visibility='default' binding='global' size-in-bits='64'>
      <parameter type-id='1eb56b1e'/>
      <return type-id='1eb56b1e'/>
    </function-decl>
    <function-decl name='div' filepath='/usr/include/stdlib.h' line='788' column='1' visibility='default' binding='global' size-in-bits='64'>
      <parameter type-id='95e97e5e'/>
      <parameter type-id='95e97e5e'/>
      <return type-id='f702ecec'/>
    </function-decl>
    <function-decl name='ldiv' filepath='/usr/include/stdlib.h' line='790' column='1' visibility='default' binding='global' size-in-bits='64'>
      <parameter type-id='bd54fe1a'/>
      <parameter type-id='bd54fe1a'/>
      <return type-id='30397bf8'/>
    </function-decl>
    <function-decl name='lldiv' filepath='/usr/include/stdlib.h' line='796' column='1' visibility='default' binding='global' size-in-bits='64'>
      <parameter type-id='1eb56b1e'/>
      <parameter type-id='1eb56b1e'/>
      <return type-id='f5fa3b34'/>
    </function-decl>
    <function-decl name='mblen' filepath='/usr/include/stdlib.h' line='862' column='1' visibility='default' binding='global' size-in-bits='64'>
      <parameter type-id='80f4b756'/>
      <parameter type-id='b59d7dce'/>
      <return type-id='95e97e5e'/>
    </function-decl>
    <function-decl name='mbtowc' filepath='/usr/include/stdlib.h' line='865' column='1' visibility='default' binding='global' size-in-bits='64'>
      <parameter type-id='f1358bc3'/>
      <parameter type-id='9d26089a'/>
      <parameter type-id='b59d7dce'/>
      <return type-id='95e97e5e'/>
    </function-decl>
    <function-decl name='wctomb' filepath='/usr/include/stdlib.h' line='869' column='1' visibility='default' binding='global' size-in-bits='64'>
      <parameter type-id='26a90f95'/>
      <parameter type-id='c523b9f1'/>
      <return type-id='95e97e5e'/>
    </function-decl>
    <function-decl name='mbstowcs' filepath='/usr/include/stdlib.h' line='873' column='1' visibility='default' binding='global' size-in-bits='64'>
      <parameter type-id='f1358bc3'/>
      <parameter type-id='9d26089a'/>
      <parameter type-id='b59d7dce'/>
      <return type-id='b59d7dce'/>
    </function-decl>
    <function-decl name='wcstombs' filepath='/usr/include/stdlib.h' line='876' column='1' visibility='default' binding='global' size-in-bits='64'>
      <parameter type-id='266fe297'/>
      <parameter type-id='598aab80'/>
      <parameter type-id='b59d7dce'/>
      <return type-id='b59d7dce'/>
    </function-decl>
    <function-decl name='clock' filepath='/usr/include/time.h' line='189' column='1' visibility='default' binding='global' size-in-bits='64'>
      <return type-id='4c3a2c61'/>
    </function-decl>
    <function-decl name='time' filepath='/usr/include/time.h' line='192' column='1' visibility='default' binding='global' size-in-bits='64'>
      <parameter type-id='b2eb2c3f'/>
      <return type-id='c9d12d66'/>
    </function-decl>
    <function-decl name='difftime' filepath='/usr/include/time.h' line='195' column='1' visibility='default' binding='global' size-in-bits='64'>
      <parameter type-id='c9d12d66'/>
      <parameter type-id='c9d12d66'/>
      <return type-id='a0eb0f08'/>
    </function-decl>
    <function-decl name='mktime' filepath='/usr/include/time.h' line='199' column='1' visibility='default' binding='global' size-in-bits='64'>
      <parameter type-id='d915a820'/>
      <return type-id='c9d12d66'/>
    </function-decl>
    <function-decl name='strftime' filepath='/usr/include/time.h' line='205' column='1' visibility='default' binding='global' size-in-bits='64'>
      <parameter type-id='266fe297'/>
      <parameter type-id='b59d7dce'/>
      <parameter type-id='9d26089a'/>
      <parameter type-id='f8c6051d'/>
      <return type-id='b59d7dce'/>
    </function-decl>
    <function-decl name='gmtime' filepath='/usr/include/time.h' line='239' column='1' visibility='default' binding='global' size-in-bits='64'>
      <parameter type-id='9f201474'/>
      <return type-id='d915a820'/>
    </function-decl>
    <function-decl name='localtime' filepath='/usr/include/time.h' line='243' column='1' visibility='default' binding='global' size-in-bits='64'>
      <parameter type-id='9f201474'/>
      <return type-id='d915a820'/>
    </function-decl>
    <function-decl name='asctime' filepath='/usr/include/time.h' line='261' column='1' visibility='default' binding='global' size-in-bits='64'>
      <parameter type-id='d6ad37ff'/>
      <return type-id='26a90f95'/>
    </function-decl>
    <function-decl name='ctime' filepath='/usr/include/time.h' line='264' column='1' visibility='default' binding='global' size-in-bits='64'>
      <parameter type-id='9f201474'/>
      <return type-id='26a90f95'/>
    </function-decl>
    <function-decl name='wcscpy' filepath='/usr/include/wchar.h' line='147' column='1' visibility='default' binding='global' size-in-bits='64'>
      <parameter type-id='f1358bc3'/>
      <parameter type-id='598aab80'/>
      <return type-id='323d93c1'/>
    </function-decl>
    <function-decl name='wcsncpy' filepath='/usr/include/wchar.h' line='150' column='1' visibility='default' binding='global' size-in-bits='64'>
      <parameter type-id='f1358bc3'/>
      <parameter type-id='598aab80'/>
      <parameter type-id='b59d7dce'/>
      <return type-id='323d93c1'/>
    </function-decl>
    <function-decl name='wcscat' filepath='/usr/include/wchar.h' line='155' column='1' visibility='default' binding='global' size-in-bits='64'>
      <parameter type-id='f1358bc3'/>
      <parameter type-id='598aab80'/>
      <return type-id='323d93c1'/>
    </function-decl>
    <function-decl name='wcsncat' filepath='/usr/include/wchar.h' line='158' column='1' visibility='default' binding='global' size-in-bits='64'>
      <parameter type-id='f1358bc3'/>
      <parameter type-id='598aab80'/>
      <parameter type-id='b59d7dce'/>
      <return type-id='323d93c1'/>
    </function-decl>
    <function-decl name='wcscmp' filepath='/usr/include/wchar.h' line='163' column='1' visibility='default' binding='global' size-in-bits='64'>
      <parameter type-id='f077d3f8'/>
      <parameter type-id='f077d3f8'/>
      <return type-id='95e97e5e'/>
    </function-decl>
    <function-decl name='wcsncmp' filepath='/usr/include/wchar.h' line='166' column='1' visibility='default' binding='global' size-in-bits='64'>
      <parameter type-id='f077d3f8'/>
      <parameter type-id='f077d3f8'/>
      <parameter type-id='b59d7dce'/>
      <return type-id='95e97e5e'/>
    </function-decl>
    <function-decl name='wcscoll' filepath='/usr/include/wchar.h' line='192' column='1' visibility='default' binding='global' size-in-bits='64'>
      <parameter type-id='f077d3f8'/>
      <parameter type-id='f077d3f8'/>
      <return type-id='95e97e5e'/>
    </function-decl>
    <function-decl name='wcsxfrm' filepath='/usr/include/wchar.h' line='196' column='1' visibility='default' binding='global' size-in-bits='64'>
      <parameter type-id='f1358bc3'/>
      <parameter type-id='598aab80'/>
      <parameter type-id='b59d7dce'/>
      <return type-id='b59d7dce'/>
    </function-decl>
    <function-decl name='wcschr' filepath='/usr/include/wchar.h' line='227' column='1' visibility='default' binding='global' size-in-bits='64'>
      <parameter type-id='f077d3f8'/>
      <parameter type-id='c523b9f1'/>
      <return type-id='323d93c1'/>
    </function-decl>
    <function-decl name='wcsrchr' filepath='/usr/include/wchar.h' line='237' column='1' visibility='default' binding='global' size-in-bits='64'>
      <parameter type-id='f077d3f8'/>
      <parameter type-id='c523b9f1'/>
      <return type-id='323d93c1'/>
    </function-decl>
    <function-decl name='wcscspn' filepath='/usr/include/wchar.h' line='252' column='1' visibility='default' binding='global' size-in-bits='64'>
      <parameter type-id='f077d3f8'/>
      <parameter type-id='f077d3f8'/>
      <return type-id='b59d7dce'/>
    </function-decl>
    <function-decl name='wcsspn' filepath='/usr/include/wchar.h' line='256' column='1' visibility='default' binding='global' size-in-bits='64'>
      <parameter type-id='f077d3f8'/>
      <parameter type-id='f077d3f8'/>
      <return type-id='b59d7dce'/>
    </function-decl>
    <function-decl name='wcspbrk' filepath='/usr/include/wchar.h' line='266' column='1' visibility='default' binding='global' size-in-bits='64'>
      <parameter type-id='f077d3f8'/>
      <parameter type-id='f077d3f8'/>
      <return type-id='323d93c1'/>
    </function-decl>
    <function-decl name='wcsstr' filepath='/usr/include/wchar.h' line='277' column='1' visibility='default' binding='global' size-in-bits='64'>
      <parameter type-id='f077d3f8'/>
      <parameter type-id='f077d3f8'/>
      <return type-id='323d93c1'/>
    </function-decl>
    <function-decl name='wcstok' filepath='/usr/include/wchar.h' line='282' column='1' visibility='default' binding='global' size-in-bits='64'>
      <parameter type-id='f1358bc3'/>
      <parameter type-id='598aab80'/>
      <parameter type-id='69bba573'/>
      <return type-id='323d93c1'/>
    </function-decl>
    <function-decl name='wcslen' filepath='/usr/include/wchar.h' line='287' column='1' visibility='default' binding='global' size-in-bits='64'>
      <parameter type-id='f077d3f8'/>
      <return type-id='b59d7dce'/>
    </function-decl>
    <function-decl name='wmemchr' filepath='/usr/include/wchar.h' line='320' column='1' visibility='default' binding='global' size-in-bits='64'>
      <parameter type-id='f077d3f8'/>
      <parameter type-id='c523b9f1'/>
      <parameter type-id='b59d7dce'/>
      <return type-id='323d93c1'/>
    </function-decl>
    <function-decl name='wmemcmp' filepath='/usr/include/wchar.h' line='325' column='1' visibility='default' binding='global' size-in-bits='64'>
      <parameter type-id='f077d3f8'/>
      <parameter type-id='f077d3f8'/>
      <parameter type-id='b59d7dce'/>
      <return type-id='95e97e5e'/>
    </function-decl>
    <function-decl name='wmemcpy' filepath='/usr/include/wchar.h' line='329' column='1' visibility='default' binding='global' size-in-bits='64'>
      <parameter type-id='f1358bc3'/>
      <parameter type-id='598aab80'/>
      <parameter type-id='b59d7dce'/>
      <return type-id='323d93c1'/>
    </function-decl>
    <function-decl name='wmemmove' filepath='/usr/include/wchar.h' line='334' column='1' visibility='default' binding='global' size-in-bits='64'>
      <parameter type-id='323d93c1'/>
      <parameter type-id='f077d3f8'/>
      <parameter type-id='b59d7dce'/>
      <return type-id='323d93c1'/>
    </function-decl>
    <function-decl name='wmemset' filepath='/usr/include/wchar.h' line='338' column='1' visibility='default' binding='global' size-in-bits='64'>
      <parameter type-id='323d93c1'/>
      <parameter type-id='c523b9f1'/>
      <parameter type-id='b59d7dce'/>
      <return type-id='323d93c1'/>
    </function-decl>
    <function-decl name='btowc' filepath='/usr/include/wchar.h' line='353' column='1' visibility='default' binding='global' size-in-bits='64'>
      <parameter type-id='95e97e5e'/>
      <return type-id='6dd37369'/>
    </function-decl>
    <function-decl name='wctob' filepath='/usr/include/wchar.h' line='357' column='1' visibility='default' binding='global' size-in-bits='64'>
      <parameter type-id='6dd37369'/>
      <return type-id='95e97e5e'/>
    </function-decl>
    <function-decl name='mbsinit' filepath='/usr/include/wchar.h' line='361' column='1' visibility='default' binding='global' size-in-bits='64'>
      <parameter type-id='5d006ebf'/>
      <return type-id='95e97e5e'/>
    </function-decl>
    <function-decl name='mbrtowc' filepath='/usr/include/wchar.h' line='365' column='1' visibility='default' binding='global' size-in-bits='64'>
      <parameter type-id='f1358bc3'/>
      <parameter type-id='9d26089a'/>
      <parameter type-id='b59d7dce'/>
      <parameter type-id='03aaab72'/>
      <return type-id='b59d7dce'/>
    </function-decl>
    <function-decl name='wcrtomb' filepath='/usr/include/wchar.h' line='370' column='1' visibility='default' binding='global' size-in-bits='64'>
      <parameter type-id='266fe297'/>
      <parameter type-id='c523b9f1'/>
      <parameter type-id='03aaab72'/>
      <return type-id='b59d7dce'/>
    </function-decl>
    <function-decl name='mbrlen' filepath='/usr/include/wchar.h' line='376' column='1' visibility='default' binding='global' size-in-bits='64'>
      <parameter type-id='9d26089a'/>
      <parameter type-id='b59d7dce'/>
      <parameter type-id='03aaab72'/>
      <return type-id='b59d7dce'/>
    </function-decl>
    <function-decl name='mbsrtowcs' filepath='/usr/include/wchar.h' line='408' column='1' visibility='default' binding='global' size-in-bits='64'>
      <parameter type-id='f1358bc3'/>
      <parameter type-id='690e87bc'/>
      <parameter type-id='b59d7dce'/>
      <parameter type-id='03aaab72'/>
      <return type-id='b59d7dce'/>
    </function-decl>
    <function-decl name='wcsrtombs' filepath='/usr/include/wchar.h' line='414' column='1' visibility='default' binding='global' size-in-bits='64'>
      <parameter type-id='266fe297'/>
      <parameter type-id='3f25745a'/>
      <parameter type-id='b59d7dce'/>
      <parameter type-id='03aaab72'/>
      <return type-id='b59d7dce'/>
    </function-decl>
    <function-decl name='wcstod' filepath='/usr/include/wchar.h' line='450' column='1' visibility='default' binding='global' size-in-bits='64'>
      <parameter type-id='598aab80'/>
      <parameter type-id='69bba573'/>
      <return type-id='a0eb0f08'/>
    </function-decl>
    <function-decl name='wcstof' filepath='/usr/include/wchar.h' line='457' column='1' visibility='default' binding='global' size-in-bits='64'>
      <parameter type-id='598aab80'/>
      <parameter type-id='69bba573'/>
      <return type-id='a6c45d85'/>
    </function-decl>
    <function-decl name='wcstold' filepath='/usr/include/wchar.h' line='459' column='1' visibility='default' binding='global' size-in-bits='64'>
      <parameter type-id='598aab80'/>
      <parameter type-id='69bba573'/>
      <return type-id='e095c704'/>
    </function-decl>
    <function-decl name='wcstol' filepath='/usr/include/wchar.h' line='468' column='1' visibility='default' binding='global' size-in-bits='64'>
      <parameter type-id='598aab80'/>
      <parameter type-id='69bba573'/>
      <parameter type-id='95e97e5e'/>
      <return type-id='bd54fe1a'/>
    </function-decl>
    <function-decl name='wcstoul' filepath='/usr/include/wchar.h' line='473' column='1' visibility='default' binding='global' size-in-bits='64'>
      <parameter type-id='598aab80'/>
      <parameter type-id='69bba573'/>
      <parameter type-id='95e97e5e'/>
      <return type-id='7359adad'/>
    </function-decl>
    <function-decl name='wcstoll' filepath='/usr/include/wchar.h' line='483' column='1' visibility='default' binding='global' size-in-bits='64'>
      <parameter type-id='598aab80'/>
      <parameter type-id='69bba573'/>
      <parameter type-id='95e97e5e'/>
      <return type-id='1eb56b1e'/>
    </function-decl>
    <function-decl name='wcstoull' filepath='/usr/include/wchar.h' line='490' column='1' visibility='default' binding='global' size-in-bits='64'>
      <parameter type-id='598aab80'/>
      <parameter type-id='69bba573'/>
      <parameter type-id='95e97e5e'/>
      <return type-id='3a47d82b'/>
    </function-decl>
    <function-decl name='fwide' filepath='/usr/include/wchar.h' line='587' column='1' visibility='default' binding='global' size-in-bits='64'>
      <parameter type-id='b9c57915'/>
      <parameter type-id='95e97e5e'/>
      <return type-id='95e97e5e'/>
    </function-decl>
    <function-decl name='fwprintf' filepath='/usr/include/wchar.h' line='594' column='1' visibility='default' binding='global' size-in-bits='64'>
      <parameter type-id='45880717'/>
      <parameter type-id='598aab80'/>
      <parameter is-variadic='yes'/>
      <return type-id='95e97e5e'/>
    </function-decl>
    <function-decl name='wprintf' filepath='/usr/include/wchar.h' line='601' column='1' visibility='default' binding='global' size-in-bits='64'>
      <parameter type-id='598aab80'/>
      <parameter is-variadic='yes'/>
      <return type-id='95e97e5e'/>
    </function-decl>
    <function-decl name='swprintf' filepath='/usr/include/wchar.h' line='604' column='1' visibility='default' binding='global' size-in-bits='64'>
      <parameter type-id='f1358bc3'/>
      <parameter type-id='b59d7dce'/>
      <parameter type-id='598aab80'/>
      <parameter is-variadic='yes'/>
      <return type-id='95e97e5e'/>
    </function-decl>
    <function-decl name='vfwprintf' filepath='/usr/include/wchar.h' line='612' column='1' visibility='default' binding='global' size-in-bits='64'>
      <parameter type-id='45880717'/>
      <parameter type-id='598aab80'/>
      <parameter type-id='b7f2d5e6'/>
      <return type-id='95e97e5e'/>
    </function-decl>
    <function-decl name='vwprintf' filepath='/usr/include/wchar.h' line='620' column='1' visibility='default' binding='global' size-in-bits='64'>
      <parameter type-id='598aab80'/>
      <parameter type-id='b7f2d5e6'/>
      <return type-id='95e97e5e'/>
    </function-decl>
    <function-decl name='vswprintf' filepath='/usr/include/wchar.h' line='625' column='1' visibility='default' binding='global' size-in-bits='64'>
      <parameter type-id='f1358bc3'/>
      <parameter type-id='b59d7dce'/>
      <parameter type-id='598aab80'/>
      <parameter type-id='b7f2d5e6'/>
      <return type-id='95e97e5e'/>
    </function-decl>
    <function-decl name='fwscanf' filepath='/usr/include/wchar.h' line='635' column='1' visibility='default' binding='global' size-in-bits='64'>
      <parameter type-id='45880717'/>
      <parameter type-id='598aab80'/>
      <parameter is-variadic='yes'/>
      <return type-id='95e97e5e'/>
    </function-decl>
    <function-decl name='wscanf' filepath='/usr/include/wchar.h' line='642' column='1' visibility='default' binding='global' size-in-bits='64'>
      <parameter type-id='598aab80'/>
      <parameter is-variadic='yes'/>
      <return type-id='95e97e5e'/>
    </function-decl>
    <function-decl name='swscanf' filepath='/usr/include/wchar.h' line='645' column='1' visibility='default' binding='global' size-in-bits='64'>
      <parameter type-id='598aab80'/>
      <parameter type-id='598aab80'/>
      <parameter is-variadic='yes'/>
      <return type-id='95e97e5e'/>
    </function-decl>
    <function-decl name='vfwscanf' filepath='/usr/include/wchar.h' line='689' column='1' visibility='default' binding='global' size-in-bits='64'>
      <parameter type-id='45880717'/>
      <parameter type-id='598aab80'/>
      <parameter type-id='b7f2d5e6'/>
      <return type-id='95e97e5e'/>
    </function-decl>
    <function-decl name='vwscanf' filepath='/usr/include/wchar.h' line='697' column='1' visibility='default' binding='global' size-in-bits='64'>
      <parameter type-id='598aab80'/>
      <parameter type-id='b7f2d5e6'/>
      <return type-id='95e97e5e'/>
    </function-decl>
    <function-decl name='vswscanf' filepath='/usr/include/wchar.h' line='701' column='1' visibility='default' binding='global' size-in-bits='64'>
      <parameter type-id='598aab80'/>
      <parameter type-id='598aab80'/>
      <parameter type-id='b7f2d5e6'/>
      <return type-id='95e97e5e'/>
    </function-decl>
    <function-decl name='fgetwc' filepath='/usr/include/wchar.h' line='745' column='1' visibility='default' binding='global' size-in-bits='64'>
      <parameter type-id='b9c57915'/>
      <return type-id='6dd37369'/>
    </function-decl>
    <function-decl name='getwc' filepath='/usr/include/wchar.h' line='746' column='1' visibility='default' binding='global' size-in-bits='64'>
      <parameter type-id='b9c57915'/>
      <return type-id='6dd37369'/>
    </function-decl>
    <function-decl name='getwchar' filepath='/usr/include/wchar.h' line='752' column='1' visibility='default' binding='global' size-in-bits='64'>
      <return type-id='6dd37369'/>
    </function-decl>
    <function-decl name='fputwc' filepath='/usr/include/wchar.h' line='759' column='1' visibility='default' binding='global' size-in-bits='64'>
      <parameter type-id='c523b9f1'/>
      <parameter type-id='b9c57915'/>
      <return type-id='6dd37369'/>
    </function-decl>
    <function-decl name='putwc' filepath='/usr/include/wchar.h' line='760' column='1' visibility='default' binding='global' size-in-bits='64'>
      <parameter type-id='c523b9f1'/>
      <parameter type-id='b9c57915'/>
      <return type-id='6dd37369'/>
    </function-decl>
    <function-decl name='putwchar' filepath='/usr/include/wchar.h' line='766' column='1' visibility='default' binding='global' size-in-bits='64'>
      <parameter type-id='c523b9f1'/>
      <return type-id='6dd37369'/>
    </function-decl>
    <function-decl name='fgetws' filepath='/usr/include/wchar.h' line='774' column='1' visibility='default' binding='global' size-in-bits='64'>
      <parameter type-id='f1358bc3'/>
      <parameter type-id='95e97e5e'/>
      <parameter type-id='45880717'/>
      <return type-id='323d93c1'/>
    </function-decl>
    <function-decl name='fputws' filepath='/usr/include/wchar.h' line='781' column='1' visibility='default' binding='global' size-in-bits='64'>
      <parameter type-id='598aab80'/>
      <parameter type-id='45880717'/>
      <return type-id='95e97e5e'/>
    </function-decl>
    <function-decl name='ungetwc' filepath='/usr/include/wchar.h' line='789' column='1' visibility='default' binding='global' size-in-bits='64'>
      <parameter type-id='6dd37369'/>
      <parameter type-id='b9c57915'/>
      <return type-id='6dd37369'/>
    </function-decl>
    <function-decl name='wcsftime' filepath='/usr/include/wchar.h' line='855' column='1' visibility='default' binding='global' size-in-bits='64'>
      <parameter type-id='f1358bc3'/>
      <parameter type-id='b59d7dce'/>
      <parameter type-id='598aab80'/>
      <parameter type-id='f8c6051d'/>
      <return type-id='b59d7dce'/>
    </function-decl>
    <function-decl name='iswalnum' filepath='/usr/include/wctype.h' line='111' column='1' visibility='default' binding='global' size-in-bits='64'>
      <parameter type-id='6dd37369'/>
      <return type-id='95e97e5e'/>
    </function-decl>
    <function-decl name='iswalpha' filepath='/usr/include/wctype.h' line='117' column='1' visibility='default' binding='global' size-in-bits='64'>
      <parameter type-id='6dd37369'/>
      <return type-id='95e97e5e'/>
    </function-decl>
    <function-decl name='iswcntrl' filepath='/usr/include/wctype.h' line='120' column='1' visibility='default' binding='global' size-in-bits='64'>
      <parameter type-id='6dd37369'/>
      <return type-id='95e97e5e'/>
    </function-decl>
    <function-decl name='iswdigit' filepath='/usr/include/wctype.h' line='124' column='1' visibility='default' binding='global' size-in-bits='64'>
      <parameter type-id='6dd37369'/>
      <return type-id='95e97e5e'/>
    </function-decl>
    <function-decl name='iswgraph' filepath='/usr/include/wctype.h' line='128' column='1' visibility='default' binding='global' size-in-bits='64'>
      <parameter type-id='6dd37369'/>
      <return type-id='95e97e5e'/>
    </function-decl>
    <function-decl name='iswlower' filepath='/usr/include/wctype.h' line='133' column='1' visibility='default' binding='global' size-in-bits='64'>
      <parameter type-id='6dd37369'/>
      <return type-id='95e97e5e'/>
    </function-decl>
    <function-decl name='iswprint' filepath='/usr/include/wctype.h' line='136' column='1' visibility='default' binding='global' size-in-bits='64'>
      <parameter type-id='6dd37369'/>
      <return type-id='95e97e5e'/>
    </function-decl>
    <function-decl name='iswpunct' filepath='/usr/include/wctype.h' line='141' column='1' visibility='default' binding='global' size-in-bits='64'>
      <parameter type-id='6dd37369'/>
      <return type-id='95e97e5e'/>
    </function-decl>
    <function-decl name='iswspace' filepath='/usr/include/wctype.h' line='146' column='1' visibility='default' binding='global' size-in-bits='64'>
      <parameter type-id='6dd37369'/>
      <return type-id='95e97e5e'/>
    </function-decl>
    <function-decl name='iswupper' filepath='/usr/include/wctype.h' line='151' column='1' visibility='default' binding='global' size-in-bits='64'>
      <parameter type-id='6dd37369'/>
      <return type-id='95e97e5e'/>
    </function-decl>
    <function-decl name='iswxdigit' filepath='/usr/include/wctype.h' line='156' column='1' visibility='default' binding='global' size-in-bits='64'>
      <parameter type-id='6dd37369'/>
      <return type-id='95e97e5e'/>
    </function-decl>
    <function-decl name='iswblank' filepath='/usr/include/wctype.h' line='162' column='1' visibility='default' binding='global' size-in-bits='64'>
      <parameter type-id='6dd37369'/>
      <return type-id='95e97e5e'/>
    </function-decl>
    <function-decl name='wctype' filepath='/usr/include/wctype.h' line='171' column='1' visibility='default' binding='global' size-in-bits='64'>
      <parameter type-id='80f4b756'/>
      <return type-id='ba50424d'/>
    </function-decl>
    <function-decl name='iswctype' filepath='/usr/include/wctype.h' line='175' column='1' visibility='default' binding='global' size-in-bits='64'>
      <parameter type-id='6dd37369'/>
      <parameter type-id='ba50424d'/>
      <return type-id='95e97e5e'/>
    </function-decl>
    <function-decl name='towlower' filepath='/usr/include/wctype.h' line='194' column='1' visibility='default' binding='global' size-in-bits='64'>
      <parameter type-id='6dd37369'/>
      <return type-id='6dd37369'/>
    </function-decl>
    <function-decl name='towupper' filepath='/usr/include/wctype.h' line='197' column='1' visibility='default' binding='global' size-in-bits='64'>
      <parameter type-id='6dd37369'/>
      <return type-id='6dd37369'/>
    </function-decl>
    <function-decl name='wctrans' filepath='/usr/include/wctype.h' line='218' column='1' visibility='default' binding='global' size-in-bits='64'>
      <parameter type-id='80f4b756'/>
      <return type-id='183c72c3'/>
    </function-decl>
    <function-decl name='towctrans' filepath='/usr/include/wctype.h' line='221' column='1' visibility='default' binding='global' size-in-bits='64'>
      <parameter type-id='6dd37369'/>
      <parameter type-id='183c72c3'/>
      <return type-id='6dd37369'/>
    </function-decl>
    <namespace-decl name='boost'>
      <typedef-decl name='noncopyable' type-id='e3bda5bb' filepath='src/third_party/boost-1.56.0/boost/core/noncopyable.hpp' line='44' column='1' id='dca04a97'/>
      <namespace-decl name='noncopyable_'>
        <class-decl name='noncopyable' size-in-bits='8' visibility='default' filepath='src/third_party/boost-1.56.0/boost/core/noncopyable.hpp' line='23' column='1' id='e3bda5bb'>
          <member-function access='protected' constructor='yes'>
            <function-decl name='noncopyable' filepath='src/third_party/boost-1.56.0/boost/core/noncopyable.hpp' line='27' column='1' visibility='default' binding='global' size-in-bits='64'>
              <parameter type-id='c6cafd4b' is-artificial='yes'/>
              <return type-id='48b5725f'/>
            </function-decl>
          </member-function>
          <member-function access='protected' destructor='yes'>
            <function-decl name='~noncopyable' filepath='src/third_party/boost-1.56.0/boost/core/noncopyable.hpp' line='28' column='1' visibility='default' binding='global' size-in-bits='64'>
              <parameter type-id='c6cafd4b' is-artificial='yes'/>
              <return type-id='48b5725f'/>
            </function-decl>
          </member-function>
          <member-function access='protected' constructor='yes'>
            <function-decl name='noncopyable' filepath='src/third_party/boost-1.56.0/boost/core/noncopyable.hpp' line='34' column='1' visibility='default' binding='global' size-in-bits='64'>
              <parameter type-id='c6cafd4b' is-artificial='yes'/>
              <parameter type-id='82771764'/>
              <return type-id='48b5725f'/>
            </function-decl>
          </member-function>
        </class-decl>
      </namespace-decl>
      <namespace-decl name='filesystem'>
        <function-decl name='codecvt_error_category' mangled-name='_ZN5boost10filesystem22codecvt_error_categoryEv' filepath='src/third_party/boost-1.56.0/libs/filesystem/src/codecvt_error_category.cpp' line='77' column='1' visibility='default' binding='global' size-in-bits='64' elf-symbol-id='_ZN5boost10filesystem22codecvt_error_categoryEv'>
          <return type-id='04bc0b99'/>
        </function-decl>
      </namespace-decl>
      <namespace-decl name='system'>
        <class-decl name='error_condition' size-in-bits='128' visibility='default' filepath='src/third_party/boost-1.56.0/boost/system/error_code.hpp' line='230' column='1' id='791d7afb'>
          <member-type access='private'>
            <typedef-decl name='unspecified_bool_type' type-id='953b12f8' filepath='src/third_party/boost-1.56.0/boost/system/error_code.hpp' line='272' column='1' id='144f8c3b'/>
          </member-type>
          <data-member access='private' layout-offset-in-bits='0'>
            <var-decl name='m_val' type-id='95e97e5e' visibility='default' filepath='src/third_party/boost-1.56.0/boost/system/error_code.hpp' line='304' column='1'/>
          </data-member>
          <data-member access='private' layout-offset-in-bits='64'>
            <var-decl name='m_cat' type-id='10bc1e7d' visibility='default' filepath='src/third_party/boost-1.56.0/boost/system/error_code.hpp' line='305' column='1'/>
          </data-member>
          <member-function access='public' constructor='yes'>
            <function-decl name='error_condition' filepath='src/third_party/boost-1.56.0/boost/system/error_code.hpp' line='235' column='1' visibility='default' binding='global' size-in-bits='64'>
              <parameter type-id='db6711fb' is-artificial='yes'/>
              <return type-id='48b5725f'/>
            </function-decl>
          </member-function>
          <member-function access='public' constructor='yes'>
            <function-decl name='error_condition' mangled-name='_ZN5boost6system15error_conditionC2EiRKNS0_14error_categoryE' filepath='src/third_party/boost-1.56.0/boost/system/error_code.hpp' line='236' column='1' visibility='default' binding='global' size-in-bits='64' elf-symbol-id='_ZN5boost6system15error_conditionC2EiRKNS0_14error_categoryE'>
              <parameter type-id='db6711fb' is-artificial='yes'/>
              <parameter type-id='95e97e5e'/>
              <parameter type-id='04bc0b99'/>
              <return type-id='48b5725f'/>
            </function-decl>
          </member-function>
        </class-decl>
        <class-decl name='error_code' size-in-bits='128' visibility='default' filepath='src/third_party/boost-1.56.0/boost/system/error_code.hpp' line='317' column='1' id='4dca76f3'>
          <member-type access='private'>
            <typedef-decl name='unspecified_bool_type' type-id='953b12f8' filepath='src/third_party/boost-1.56.0/boost/system/error_code.hpp' line='359' column='1' id='c948a951'/>
          </member-type>
          <data-member access='private' layout-offset-in-bits='0'>
            <var-decl name='m_val' type-id='95e97e5e' visibility='default' filepath='src/third_party/boost-1.56.0/boost/system/error_code.hpp' line='391' column='1'/>
          </data-member>
          <data-member access='private' layout-offset-in-bits='64'>
            <var-decl name='m_cat' type-id='10bc1e7d' visibility='default' filepath='src/third_party/boost-1.56.0/boost/system/error_code.hpp' line='392' column='1'/>
          </data-member>
          <member-function access='public' constructor='yes'>
            <function-decl name='error_code' mangled-name='_ZN5boost6system10error_codeC2Ev' filepath='src/third_party/boost-1.56.0/boost/system/error_code.hpp' line='322' column='1' visibility='default' binding='global' size-in-bits='64' elf-symbol-id='_ZN5boost6system10error_codeC2Ev'>
              <parameter type-id='d142b053' is-artificial='yes'/>
              <return type-id='48b5725f'/>
            </function-decl>
          </member-function>
          <member-function access='public' constructor='yes'>
            <function-decl name='error_code' mangled-name='_ZN5boost6system10error_codeC2EiRKNS0_14error_categoryE' filepath='src/third_party/boost-1.56.0/boost/system/error_code.hpp' line='323' column='1' visibility='default' binding='global' size-in-bits='64' elf-symbol-id='_ZN5boost6system10error_codeC2EiRKNS0_14error_categoryE'>
              <parameter type-id='d142b053' is-artificial='yes'/>
              <parameter type-id='95e97e5e'/>
              <parameter type-id='04bc0b99'/>
              <return type-id='48b5725f'/>
            </function-decl>
          </member-function>
          <member-function access='public'>
            <function-decl name='category' mangled-name='_ZNK5boost6system10error_code8categoryEv' filepath='src/third_party/boost-1.56.0/boost/system/error_code.hpp' line='355' column='1' visibility='default' binding='global' size-in-bits='64' elf-symbol-id='_ZNK5boost6system10error_code8categoryEv'>
              <parameter type-id='22d7eefe' is-artificial='yes'/>
              <return type-id='04bc0b99'/>
            </function-decl>
          </member-function>
          <member-function access='public'>
            <function-decl name='value' mangled-name='_ZNK5boost6system10error_code5valueEv' filepath='src/third_party/boost-1.56.0/boost/system/error_code.hpp' line='354' column='1' visibility='default' binding='global' size-in-bits='64' elf-symbol-id='_ZNK5boost6system10error_code5valueEv'>
              <parameter type-id='22d7eefe' is-artificial='yes'/>
              <return type-id='95e97e5e'/>
            </function-decl>
          </member-function>
          <member-function access='public'>
            <function-decl name='message' mangled-name='_ZNK5boost6system10error_code7messageEv' filepath='src/third_party/boost-1.56.0/boost/system/error_code.hpp' line='357' column='1' visibility='default' binding='global' size-in-bits='64' elf-symbol-id='_ZNK5boost6system10error_code7messageEv'>
              <parameter type-id='22d7eefe' is-artificial='yes'/>
              <return type-id='4a30a7f0'/>
            </function-decl>
          </member-function>
          <member-function access='public'>
            <function-decl name='assign' mangled-name='_ZN5boost6system10error_code6assignEiRKNS0_14error_categoryE' filepath='src/third_party/boost-1.56.0/boost/system/error_code.hpp' line='333' column='1' visibility='default' binding='global' size-in-bits='64' elf-symbol-id='_ZN5boost6system10error_code6assignEiRKNS0_14error_categoryE'>
              <parameter type-id='d142b053' is-artificial='yes'/>
              <parameter type-id='95e97e5e'/>
              <parameter type-id='04bc0b99'/>
              <return type-id='48b5725f'/>
            </function-decl>
          </member-function>
          <member-function access='public'>
            <function-decl name='operator void (*)()' mangled-name='_ZNK5boost6system10error_codecvPFvvEEv' filepath='src/third_party/boost-1.56.0/boost/system/error_code.hpp' line='362' column='1' visibility='default' binding='global' size-in-bits='64' elf-symbol-id='_ZNK5boost6system10error_codecvPFvvEEv'>
              <parameter type-id='22d7eefe' is-artificial='yes'/>
              <return type-id='c948a951'/>
            </function-decl>
          </member-function>
          <member-function access='public'>
            <function-decl name='clear' mangled-name='_ZN5boost6system10error_code5clearEv' filepath='src/third_party/boost-1.56.0/boost/system/error_code.hpp' line='347' column='1' visibility='default' binding='global' size-in-bits='64' elf-symbol-id='_ZN5boost6system10error_code5clearEv'>
              <parameter type-id='d142b053' is-artificial='yes'/>
              <return type-id='48b5725f'/>
            </function-decl>
          </member-function>
          <member-function access='public' static='yes'>
            <function-decl name='unspecified_bool_true' mangled-name='_ZN5boost6system10error_code21unspecified_bool_trueEv' filepath='src/third_party/boost-1.56.0/boost/system/error_code.hpp' line='360' column='1' visibility='default' binding='global' size-in-bits='64' elf-symbol-id='_ZN5boost6system10error_code21unspecified_bool_trueEv'>
              <return type-id='48b5725f'/>
            </function-decl>
          </member-function>
        </class-decl>
        <class-decl name='error_category' visibility='default' filepath='src/third_party/boost-1.56.0/boost/system/error_code.hpp' line='185' column='1' is-declaration-only='yes' id='391738a6'>
          <base-class access='public' layout-offset-in-bits='0' type-id='e3bda5bb'/>
          <member-function access='public'>
            <function-decl name='operator==' mangled-name='_ZNK5boost6system14error_categoryeqERKS1_' filepath='src/third_party/boost-1.56.0/boost/system/error_code.hpp' line='198' column='1' visibility='default' binding='global' size-in-bits='64' elf-symbol-id='_ZNK5boost6system14error_categoryeqERKS1_'>
              <parameter type-id='10bc1e7d' is-artificial='yes'/>
              <parameter type-id='04bc0b99'/>
              <return type-id='c894953d'/>
            </function-decl>
          </member-function>
          <member-function access='public' destructor='yes' vtable-offset='0'>
            <function-decl name='~error_category' mangled-name='_ZN5boost6system14error_categoryD0Ev' filepath='src/third_party/boost-1.56.0/boost/system/error_code.hpp' line='188' column='1' visibility='default' binding='global' size-in-bits='64' elf-symbol-id='_ZN5boost6system14error_categoryD2Ev'>
              <parameter type-id='2462780c' is-artificial='yes'/>
              <return type-id='48b5725f'/>
            </function-decl>
          </member-function>
          <member-function access='public' vtable-offset='2'>
            <function-decl name='name' mangled-name='_ZNK5boost6system14error_category4nameEv' filepath='src/third_party/boost-1.56.0/boost/system/error_code.hpp' line='190' column='1' visibility='default' binding='global' size-in-bits='64'>
              <parameter type-id='10bc1e7d' is-artificial='yes'/>
              <return type-id='80f4b756'/>
            </function-decl>
          </member-function>
          <member-function access='public' vtable-offset='3'>
            <function-decl name='message' mangled-name='_ZNK5boost6system14error_category7messageEi' filepath='src/third_party/boost-1.56.0/boost/system/error_code.hpp' line='191' column='1' visibility='default' binding='global' size-in-bits='64'>
              <parameter type-id='10bc1e7d' is-artificial='yes'/>
              <parameter type-id='95e97e5e'/>
              <return type-id='4a30a7f0'/>
            </function-decl>
          </member-function>
          <member-function access='public' vtable-offset='4'>
            <function-decl name='default_error_condition' mangled-name='_ZNK5boost6system14error_category23default_error_conditionEi' filepath='src/third_party/boost-1.56.0/boost/system/error_code.hpp' line='192' column='1' visibility='default' binding='global' size-in-bits='64' elf-symbol-id='_ZNK5boost6system14error_category23default_error_conditionEi'>
              <parameter type-id='10bc1e7d' is-artificial='yes'/>
              <parameter type-id='95e97e5e'/>
              <return type-id='791d7afb'/>
            </function-decl>
          </member-function>
          <member-function access='public' vtable-offset='5'>
            <function-decl name='equivalent' mangled-name='_ZNK5boost6system14error_category10equivalentEiRKNS0_15error_conditionE' filepath='src/third_party/boost-1.56.0/boost/system/error_code.hpp' line='193' column='1' visibility='default' binding='global' size-in-bits='64' elf-symbol-id='_ZNK5boost6system14error_category10equivalentEiRKNS0_15error_conditionE'>
              <parameter type-id='10bc1e7d' is-artificial='yes'/>
              <parameter type-id='95e97e5e'/>
              <parameter type-id='08fa9e64'/>
              <return type-id='c894953d'/>
            </function-decl>
          </member-function>
          <member-function access='public' vtable-offset='6'>
            <function-decl name='equivalent' mangled-name='_ZNK5boost6system14error_category10equivalentERKNS0_10error_codeEi' filepath='src/third_party/boost-1.56.0/boost/system/error_code.hpp' line='195' column='1' visibility='default' binding='global' size-in-bits='64' elf-symbol-id='_ZNK5boost6system14error_category10equivalentERKNS0_10error_codeEi'>
              <parameter type-id='10bc1e7d' is-artificial='yes'/>
              <parameter type-id='1ed7e8b2'/>
              <parameter type-id='95e97e5e'/>
              <return type-id='c894953d'/>
            </function-decl>
          </member-function>
        </class-decl>
        <function-decl name='operator==' mangled-name='_ZN5boost6systemeqERKNS0_15error_conditionES3_' filepath='src/third_party/boost-1.56.0/boost/system/error_code.hpp' line='288' column='1' visibility='default' binding='global' size-in-bits='64' elf-symbol-id='_ZN5boost6systemeqERKNS0_15error_conditionES3_'>
          <parameter type-id='08fa9e64' name='lhs' filepath='src/third_party/boost-1.56.0/boost/system/error_code.hpp' line='288' column='1'/>
          <parameter type-id='08fa9e64' name='rhs' filepath='src/third_party/boost-1.56.0/boost/system/error_code.hpp' line='289' column='1'/>
          <return type-id='c894953d'/>
        </function-decl>
      </namespace-decl>
    </namespace-decl>
    <namespace-decl name=''>
      <class-decl name='codecvt_error_cat' size-in-bits='64' visibility='default' filepath='src/third_party/boost-1.56.0/libs/filesystem/src/codecvt_error_category.cpp' line='34' column='1' id='839dbf6d'>
        <base-class access='public' layout-offset-in-bits='0' type-id='391738a6'/>
        <member-function access='public' constructor='yes'>
          <function-decl name='codecvt_error_cat' mangled-name='_ZN12_GLOBAL__N_117codecvt_error_catC2Ev' filepath='src/third_party/boost-1.56.0/libs/filesystem/src/codecvt_error_category.cpp' line='37' column='1' visibility='default' binding='global' size-in-bits='64'>
            <parameter type-id='9627086d' is-artificial='yes'/>
            <return type-id='48b5725f'/>
          </function-decl>
        </member-function>
        <member-function access='public' vtable-offset='2'>
          <function-decl name='name' mangled-name='_ZNK12_GLOBAL__N_117codecvt_error_cat4nameEv' filepath='src/third_party/boost-1.56.0/libs/filesystem/src/codecvt_error_category.cpp' line='38' column='1' visibility='default' binding='global' size-in-bits='64'>
            <parameter type-id='4cbc1808' is-artificial='yes'/>
            <return type-id='80f4b756'/>
          </function-decl>
        </member-function>
        <member-function access='public' vtable-offset='3'>
          <function-decl name='message' mangled-name='_ZNK12_GLOBAL__N_117codecvt_error_cat7messageEi' filepath='src/third_party/boost-1.56.0/libs/filesystem/src/codecvt_error_category.cpp' line='39' column='1' visibility='default' binding='global' size-in-bits='64'>
            <parameter type-id='4cbc1808' is-artificial='yes'/>
            <parameter type-id='95e97e5e'/>
            <return type-id='4a30a7f0'/>
          </function-decl>
        </member-function>
      </class-decl>
    </namespace-decl>
    <function-type size-in-bits='64' id='96ee24a5'>
      <parameter type-id='eaa32e2f'/>
      <parameter type-id='eaa32e2f'/>
      <return type-id='95e97e5e'/>
    </function-type>
    <function-type size-in-bits='64' id='ee076206'>
      <return type-id='48b5725f'/>
    </function-type>
    <type-decl name='void' id='48b5725f'/>
  </abi-instr>
  <abi-instr address-size='64' path='src/third_party/boost-1.56.0/libs/filesystem/src/operations.cpp' comp-dir-path='/home/andrew/Documents/10gen/dev/src/mongodb' language='LANG_C_plus_plus'>
    <array-type-def dimensions='1' type-id='264d1268' size-in-bits='infinite' id='f1ae717c'>
      <subrange length='infinite' type-id='4c87fef4' id='031f2035'/>
    </array-type-def>
    <array-type-def dimensions='1' type-id='6255636b' size-in-bits='infinite' id='29aaeeb7'>
      <subrange length='infinite' type-id='4c87fef4' id='031f2035'/>
    </array-type-def>
    <array-type-def dimensions='1' type-id='4ababdf0' size-in-bits='infinite' id='4088669f'>
      <subrange length='infinite' type-id='4c87fef4' id='031f2035'/>
    </array-type-def>
    <type-decl name='unnamed-enum-underlying-type-32' is-anonymous='yes' size-in-bits='32' alignment-in-bits='32' id='9cac1fee'/>
    <typedef-decl name='_Atomic_word' type-id='95e97e5e' filepath='/usr/bin/../lib/gcc/x86_64-linux-gnu/4.9/../../../../include/x86_64-linux-gnu/c++/4.9/bits/atomic_word.h' line='32' column='1' id='e9464a99'/>
    <typedef-decl name='__gthread_once_t' type-id='2568d84b' filepath='/usr/bin/../lib/gcc/x86_64-linux-gnu/4.9/../../../../include/x86_64-linux-gnu/c++/4.9/bits/gthr-default.h' line='49' column='1' id='33f4033a'/>
    <typedef-decl name='uintmax_t' type-id='7359adad' filepath='/usr/include/stdint.h' line='135' column='1' id='f8b828c9'/>
    <typedef-decl name='pthread_once_t' type-id='95e97e5e' filepath='/usr/include/x86_64-linux-gnu/bits/pthreadtypes.h' line='168' column='1' id='2568d84b'/>
    <typedef-decl name='__mode_t' type-id='f0981eeb' filepath='/usr/include/x86_64-linux-gnu/bits/types.h' line='129' column='1' id='e1c52942'/>
    <typedef-decl name='mode_t' type-id='e1c52942' filepath='/usr/include/x86_64-linux-gnu/sys/types.h' line='70' column='1' id='d50d396c'/>
    <reference-type-def kind='lvalue' type-id='d56be6bd' size-in-bits='64' id='2c22bb99'/>
    <pointer-type-def type-id='d56be6bd' size-in-bits='64' id='3822ce7d'/>
    <reference-type-def kind='lvalue' type-id='6f9adacc' size-in-bits='64' id='29800d36'/>
    <reference-type-def kind='rvalue' type-id='6f9adacc' size-in-bits='64' id='64949030'/>
    <pointer-type-def type-id='6f9adacc' size-in-bits='64' id='3580201a'/>
    <reference-type-def kind='lvalue' type-id='c45344b5' size-in-bits='64' id='7bbe4a91'/>
    <pointer-type-def type-id='c45344b5' size-in-bits='64' id='77be4445'/>
    <reference-type-def kind='lvalue' type-id='f6eb022e' size-in-bits='64' id='75d78a20'/>
    <pointer-type-def type-id='f6eb022e' size-in-bits='64' id='81d79d04'/>
    <reference-type-def kind='lvalue' type-id='bbd227fb' size-in-bits='64' id='b6057b2f'/>
    <pointer-type-def type-id='bbd227fb' size-in-bits='64' id='ba05817b'/>
    <reference-type-def kind='lvalue' type-id='e6a4d6cd' size-in-bits='64' id='6213b549'/>
    <reference-type-def kind='rvalue' type-id='e6a4d6cd' size-in-bits='64' id='d4069dbd'/>
    <pointer-type-def type-id='e6a4d6cd' size-in-bits='64' id='6e13c82d'/>
    <reference-type-def kind='lvalue' type-id='cd4c9d36' size-in-bits='64' id='0bf94218'/>
    <pointer-type-def type-id='cd4c9d36' size-in-bits='64' id='07f93bcc'/>
    <reference-type-def kind='lvalue' type-id='07f93bcc' size-in-bits='64' id='7759515e'/>
    <reference-type-def kind='lvalue' type-id='3cdb9c7d' size-in-bits='64' id='717c50e9'/>
    <pointer-type-def type-id='3cdb9c7d' size-in-bits='64' id='7d7c63cd'/>
    <reference-type-def kind='lvalue' type-id='ddc4bf99' size-in-bits='64' id='7db6f765'/>
    <pointer-type-def type-id='ddc4bf99' size-in-bits='64' id='81b6fdb1'/>
    <pointer-type-def type-id='3703986c' size-in-bits='64' id='383d9c9a'/>
    <pointer-type-def type-id='c8580081' size-in-bits='64' id='b7ffbbd9'/>
    <reference-type-def kind='lvalue' type-id='48ea06ad' size-in-bits='64' id='1a1a35d9'/>
    <pointer-type-def type-id='48ea06ad' size-in-bits='64' id='261a48bd'/>
    <reference-type-def kind='lvalue' type-id='261a48bd' size-in-bits='64' id='96604c01'/>
    <reference-type-def kind='lvalue' type-id='20b2cca0' size-in-bits='64' id='a35f2e3a'/>
    <pointer-type-def type-id='20b2cca0' size-in-bits='64' id='975f1b56'/>
    <reference-type-def kind='lvalue' type-id='05fd92d6' size-in-bits='64' id='f95cd698'/>
    <pointer-type-def type-id='05fd92d6' size-in-bits='64' id='f55cd04c'/>
    <reference-type-def kind='lvalue' type-id='09981dcf' size-in-bits='64' id='214a8948'/>
    <pointer-type-def type-id='a82a06bf' size-in-bits='64' id='041c1d87'/>
    <pointer-type-def type-id='c7238b02' size-in-bits='64' id='36a59550'/>
    <pointer-type-def type-id='c14c8f62' size-in-bits='64' id='57ef8a20'/>
    <reference-type-def kind='lvalue' type-id='d31f84ec' size-in-bits='64' id='d800ee16'/>
    <pointer-type-def type-id='d31f84ec' size-in-bits='64' id='e40100fa'/>
    <reference-type-def kind='lvalue' type-id='bfcaa66b' size-in-bits='64' id='7c01070f'/>
    <reference-type-def kind='rvalue' type-id='bfcaa66b' size-in-bits='64' id='5e9e458b'/>
    <pointer-type-def type-id='bfcaa66b' size-in-bits='64' id='80010d5b'/>
    <pointer-type-def type-id='4fd28aad' size-in-bits='64' id='5512e67c'/>
    <reference-type-def kind='lvalue' type-id='c1b5e11e' size-in-bits='64' id='e94a03a0'/>
    <reference-type-def kind='rvalue' type-id='c1b5e11e' size-in-bits='64' id='c5838bf2'/>
    <pointer-type-def type-id='c1b5e11e' size-in-bits='64' id='f54a1684'/>
    <pointer-type-def type-id='d2c2d048' size-in-bits='64' id='3351498f'/>
    <reference-type-def kind='lvalue' type-id='4dca76f3' size-in-bits='64' id='dd42c337'/>
    <pointer-type-def type-id='a02f3699' size-in-bits='64' id='c9005a11'/>
    <reference-type-def kind='lvalue' type-id='a84c031d' size-in-bits='64' id='2aa915e1'/>
    <qualified-type-def type-id='26a90f95' const='yes' id='57de658a'/>
    <reference-type-def kind='lvalue' type-id='57de658a' size-in-bits='64' id='ff1a0dc4'/>
    <qualified-type-def type-id='c894953d' const='yes' id='4ab96a04'/>
    <qualified-type-def type-id='d56be6bd' const='yes' id='0cc1d84c'/>
    <reference-type-def kind='lvalue' type-id='0cc1d84c' size-in-bits='64' id='7f27aede'/>
    <pointer-type-def type-id='0cc1d84c' size-in-bits='64' id='7b27a892'/>
    <qualified-type-def type-id='6f9adacc' const='yes' id='b60eb3af'/>
    <reference-type-def kind='lvalue' type-id='b60eb3af' size-in-bits='64' id='2224a0ab'/>
    <pointer-type-def type-id='b60eb3af' size-in-bits='64' id='1e249a5f'/>
    <qualified-type-def type-id='c45344b5' const='yes' id='95ad2d78'/>
    <reference-type-def kind='lvalue' type-id='95ad2d78' size-in-bits='64' id='fd9e6afa'/>
    <pointer-type-def type-id='95ad2d78' size-in-bits='64' id='f19e5816'/>
    <qualified-type-def type-id='f6eb022e' const='yes' id='18e257b3'/>
    <reference-type-def kind='lvalue' type-id='18e257b3' size-in-bits='64' id='c14fdf8f'/>
    <qualified-type-def type-id='bbd227fb' const='yes' id='30c19f46'/>
    <reference-type-def kind='lvalue' type-id='30c19f46' size-in-bits='64' id='20cde420'/>
    <qualified-type-def type-id='11c1fa22' const='yes' id='6ec37892'/>
    <reference-type-def kind='lvalue' type-id='6ec37892' size-in-bits='64' id='11b7035c'/>
    <qualified-type-def type-id='e6a4d6cd' const='yes' id='8a78b596'/>
    <reference-type-def kind='lvalue' type-id='8a78b596' size-in-bits='64' id='ac060410'/>
    <pointer-type-def type-id='8a78b596' size-in-bits='64' id='b80616f4'/>
    <qualified-type-def type-id='3cdb9c7d' const='yes' id='dd17c8f4'/>
    <reference-type-def kind='lvalue' type-id='dd17c8f4' size-in-bits='64' id='de712296'/>
    <pointer-type-def type-id='dd17c8f4' size-in-bits='64' id='ea71357a'/>
    <qualified-type-def type-id='ddc4bf99' const='yes' id='4893898a'/>
    <reference-type-def kind='lvalue' type-id='4893898a' size-in-bits='64' id='ec41b9c4'/>
    <pointer-type-def type-id='4893898a' size-in-bits='64' id='e041a6e0'/>
    <qualified-type-def type-id='3703986c' const='yes' id='4d4c8c91'/>
    <reference-type-def kind='lvalue' type-id='4d4c8c91' size-in-bits='64' id='66818415'/>
    <pointer-type-def type-id='4d4c8c91' size-in-bits='64' id='6a818a61'/>
    <qualified-type-def type-id='c8580081' const='yes' id='4468876a'/>
    <pointer-type-def type-id='4468876a' size-in-bits='64' id='f08ce9c0'/>
    <qualified-type-def type-id='20b2cca0' const='yes' id='7a3f2663'/>
    <reference-type-def kind='lvalue' type-id='7a3f2663' size-in-bits='64' id='b6693e9f'/>
    <pointer-type-def type-id='7a3f2663' size-in-bits='64' id='ba6944eb'/>
    <qualified-type-def type-id='f3d9f662' const='yes' id='e8a366d2'/>
    <reference-type-def kind='lvalue' type-id='e8a366d2' size-in-bits='64' id='2d3b121c'/>
    <qualified-type-def type-id='05fd92d6' const='yes' id='89a87629'/>
    <reference-type-def kind='lvalue' type-id='89a87629' size-in-bits='64' id='c331d99d'/>
    <pointer-type-def type-id='89a87629' size-in-bits='64' id='b731c6b9'/>
    <qualified-type-def type-id='31f5fac3' const='yes' id='337cb773'/>
    <reference-type-def kind='lvalue' type-id='337cb773' size-in-bits='64' id='62549acf'/>
    <qualified-type-def type-id='889e7a85' const='yes' id='ad266875'/>
    <pointer-type-def type-id='ad266875' size-in-bits='64' id='f2764d8d'/>
    <qualified-type-def type-id='cb91c984' const='yes' id='9f3f0af4'/>
    <reference-type-def kind='lvalue' type-id='9f3f0af4' size-in-bits='64' id='823e0896'/>
    <qualified-type-def type-id='c7238b02' const='yes' id='38967b01'/>
    <reference-type-def kind='lvalue' type-id='38967b01' size-in-bits='64' id='3be3de65'/>
    <pointer-type-def type-id='38967b01' size-in-bits='64' id='3fe3e4b1'/>
    <qualified-type-def type-id='c14c8f62' const='yes' id='6e423ac9'/>
    <reference-type-def kind='lvalue' type-id='6e423ac9' size-in-bits='64' id='8142c63d'/>
    <pointer-type-def type-id='6e423ac9' size-in-bits='64' id='7542b359'/>
    <qualified-type-def type-id='d31f84ec' const='yes' id='b15f0efb'/>
    <reference-type-def kind='lvalue' type-id='b15f0efb' size-in-bits='64' id='15a465e7'/>
    <pointer-type-def type-id='b15f0efb' size-in-bits='64' id='09a45303'/>
    <qualified-type-def type-id='bfcaa66b' const='yes' id='793a64a4'/>
    <reference-type-def kind='lvalue' type-id='793a64a4' size-in-bits='64' id='58ec38a6'/>
    <pointer-type-def type-id='793a64a4' size-in-bits='64' id='64ec4b8a'/>
    <qualified-type-def type-id='c1b5e11e' const='yes' id='0d4a85cd'/>
    <reference-type-def kind='lvalue' type-id='0d4a85cd' size-in-bits='64' id='d750d0f1'/>
    <pointer-type-def type-id='0d4a85cd' size-in-bits='64' id='d350caa5'/>
    <qualified-type-def type-id='a02f3699' const='yes' id='f3714c52'/>
    <pointer-type-def type-id='f3714c52' size-in-bits='64' id='b35b60e8'/>
    <qualified-type-def type-id='80f4b756' const='yes' id='b99c00c9'/>
    <pointer-type-def type-id='b99c00c9' size-in-bits='64' id='13956559'/>
    <qualified-type-def type-id='13956559' const='yes' id='aa70b876'/>
    <qualified-type-def type-id='8a5c8b50' const='yes' id='df5a6aff'/>
    <pointer-type-def type-id='df5a6aff' size-in-bits='64' id='70562d4f'/>
    <qualified-type-def type-id='eb166b35' const='yes' id='43f3d2f8'/>
    <reference-type-def kind='lvalue' type-id='43f3d2f8' size-in-bits='64' id='d6d4f37a'/>
    <qualified-type-def type-id='c2931f67' const='yes' id='69463a72'/>
    <reference-type-def kind='lvalue' type-id='69463a72' size-in-bits='64' id='0d8dd23c'/>
    <qualified-type-def type-id='34601093' const='yes' id='08a514ce'/>
    <pointer-type-def type-id='08a514ce' size-in-bits='64' id='7fdfe2ec'/>
    <qualified-type-def type-id='4ababdf0' const='yes' id='b5b164a0'/>
    <qualified-type-def type-id='d3ef8320' const='yes' id='935eaa6f'/>
    <reference-type-def kind='lvalue' type-id='935eaa6f' size-in-bits='64' id='470610eb'/>
    <pointer-type-def type-id='935eaa6f' size-in-bits='64' id='43060a9f'/>
    <qualified-type-def type-id='467f221b' const='yes' id='aeb81b6e'/>
    <reference-type-def kind='lvalue' type-id='aeb81b6e' size-in-bits='64' id='53d2f258'/>
    <pointer-type-def type-id='aeb81b6e' size-in-bits='64' id='4fd2ec0c'/>
    <qualified-type-def type-id='fda11093' const='yes' id='52664663'/>
    <qualified-type-def type-id='b8324e5b' const='yes' id='61327096'/>
    <pointer-type-def type-id='61327096' size-in-bits='64' id='be6777f4'/>
    <pointer-type-def type-id='be6777f4' size-in-bits='64' id='9ae1b27a'/>
    <qualified-type-def type-id='db72a0b1' const='yes' id='d0480fe2'/>
    <reference-type-def kind='lvalue' type-id='d0480fe2' size-in-bits='64' id='a570d18c'/>
    <pointer-type-def type-id='d0480fe2' size-in-bits='64' id='a970d7d8'/>
    <qualified-type-def type-id='a970d7d8' const='yes' id='6255636b'/>
    <pointer-type-def type-id='6255636b' size-in-bits='64' id='0d6b3f53'/>
    <qualified-type-def type-id='0d6b3f53' const='yes' id='264d1268'/>
    <qualified-type-def type-id='4a30a7f0' const='yes' id='24010e40'/>
    <reference-type-def kind='lvalue' type-id='24010e40' size-in-bits='64' id='13a9aa92'/>
    <qualified-type-def type-id='819536af' const='yes' id='3a2d5f3f'/>
    <pointer-type-def type-id='a0eb0f08' size-in-bits='64' id='7408d286'/>
    <pointer-type-def type-id='95e97e5e' size-in-bits='64' id='7292109c'/>
    <reference-type-def kind='lvalue' type-id='c2931f67' size-in-bits='64' id='1a9350bb'/>
    <pointer-type-def type-id='c2931f67' size-in-bits='64' id='16934a6f'/>
    <reference-type-def kind='lvalue' type-id='34601093' size-in-bits='64' id='6f1c93e7'/>
    <pointer-type-def type-id='34601093' size-in-bits='64' id='631c8103'/>
    <pointer-type-def type-id='d3ef8320' size-in-bits='64' id='a682c6b6'/>
    <pointer-type-def type-id='467f221b' size-in-bits='64' id='5c73ae4b'/>
    <pointer-type-def type-id='db72a0b1' size-in-bits='64' id='659d06a9'/>
    <reference-type-def kind='rvalue' type-id='d08afe98' size-in-bits='64' id='1701fa21'/>
    <reference-type-def kind='rvalue' type-id='e76c6467' size-in-bits='64' id='2e2caef2'/>
    <reference-type-def kind='lvalue' type-id='4a30a7f0' size-in-bits='64' id='0f5b8043'/>
    <reference-type-def kind='lvalue' type-id='eaa32e2f' size-in-bits='64' id='67e1782b'/>
    <namespace-decl name='__gnu_cxx'>
      <function-decl name='__is_null_pointer&lt;char&gt;' mangled-name='_ZN9__gnu_cxx17__is_null_pointerIcEEbPT_' filepath='/usr/bin/../lib/gcc/x86_64-linux-gnu/4.9/../../../../include/c++/4.9/ext/type_traits.h' line='150' column='1' visibility='default' binding='global' size-in-bits='64' elf-symbol-id='_ZN9__gnu_cxx17__is_null_pointerIcEEbPT_'>
        <parameter type-id='26a90f95' name='__ptr' filepath='/usr/bin/../lib/gcc/x86_64-linux-gnu/4.9/../../../../include/c++/4.9/ext/type_traits.h' line='150' column='1'/>
        <return type-id='c894953d'/>
      </function-decl>
    </namespace-decl>
    <namespace-decl name='std'>
      <class-decl name='__false_type' size-in-bits='8' is-struct='yes' visibility='default' filepath='/usr/bin/../lib/gcc/x86_64-linux-gnu/4.9/../../../../include/c++/4.9/bits/cpp_type_traits.h' line='83' column='1' id='b90ad1b0'/>
      <class-decl name='locale' size-in-bits='64' visibility='default' filepath='/usr/bin/../lib/gcc/x86_64-linux-gnu/4.9/../../../../include/c++/4.9/bits/locale_classes.h' line='62' column='1' id='d3ef8320'>
        <member-type access='private'>
          <typedef-decl name='category' type-id='95e97e5e' filepath='/usr/bin/../lib/gcc/x86_64-linux-gnu/4.9/../../../../include/c++/4.9/bits/locale_classes.h' line='67' column='1' id='fda11093'/>
        </member-type>
        <member-type access='private'>
          <class-decl name='id' size-in-bits='64' visibility='default' filepath='/usr/bin/../lib/gcc/x86_64-linux-gnu/4.9/../../../../include/c++/4.9/bits/locale_classes.h' line='436' column='1' id='db72a0b1'>
            <data-member access='private' layout-offset-in-bits='0'>
              <var-decl name='_M_index' type-id='7a51dc7f' visibility='default' filepath='/usr/bin/../lib/gcc/x86_64-linux-gnu/4.9/../../../../include/c++/4.9/bits/locale_classes.h' line='453' column='1'/>
            </data-member>
            <data-member access='private' static='yes'>
              <var-decl name='_S_refcount' type-id='e9464a99' visibility='default' filepath='/usr/bin/../lib/gcc/x86_64-linux-gnu/4.9/../../../../include/c++/4.9/bits/locale_classes.h' line='456' column='1'/>
            </data-member>
            <member-function access='private' constructor='yes'>
              <function-decl name='id' filepath='/usr/bin/../lib/gcc/x86_64-linux-gnu/4.9/../../../../include/c++/4.9/bits/locale_classes.h' line='461' column='1' visibility='default' binding='global' size-in-bits='64'>
                <parameter type-id='659d06a9' is-artificial='yes'/>
                <parameter type-id='a570d18c'/>
                <return type-id='48b5725f'/>
              </function-decl>
            </member-function>
            <member-function access='public' constructor='yes'>
              <function-decl name='id' filepath='/usr/bin/../lib/gcc/x86_64-linux-gnu/4.9/../../../../include/c++/4.9/bits/locale_classes.h' line='467' column='1' visibility='default' binding='global' size-in-bits='64'>
                <parameter type-id='659d06a9' is-artificial='yes'/>
                <return type-id='48b5725f'/>
              </function-decl>
            </member-function>
          </class-decl>
        </member-type>
        <member-type access='private'>
          <class-decl name='_Impl' size-in-bits='320' visibility='default' filepath='/usr/bin/../lib/gcc/x86_64-linux-gnu/4.9/../../../../include/c++/4.9/bits/locale_classes.h' line='475' column='1' id='467f221b'>
            <data-member access='private' layout-offset-in-bits='0'>
              <var-decl name='_M_refcount' type-id='e9464a99' visibility='default' filepath='/usr/bin/../lib/gcc/x86_64-linux-gnu/4.9/../../../../include/c++/4.9/bits/locale_classes.h' line='495' column='1'/>
            </data-member>
            <data-member access='private' layout-offset-in-bits='64'>
              <var-decl name='_M_facets' type-id='9ae1b27a' visibility='default' filepath='/usr/bin/../lib/gcc/x86_64-linux-gnu/4.9/../../../../include/c++/4.9/bits/locale_classes.h' line='496' column='1'/>
            </data-member>
            <data-member access='private' layout-offset-in-bits='128'>
              <var-decl name='_M_facets_size' type-id='7a51dc7f' visibility='default' filepath='/usr/bin/../lib/gcc/x86_64-linux-gnu/4.9/../../../../include/c++/4.9/bits/locale_classes.h' line='497' column='1'/>
            </data-member>
            <data-member access='private' layout-offset-in-bits='192'>
              <var-decl name='_M_caches' type-id='9ae1b27a' visibility='default' filepath='/usr/bin/../lib/gcc/x86_64-linux-gnu/4.9/../../../../include/c++/4.9/bits/locale_classes.h' line='498' column='1'/>
            </data-member>
            <data-member access='private' layout-offset-in-bits='256'>
              <var-decl name='_M_names' type-id='9b23c9ad' visibility='default' filepath='/usr/bin/../lib/gcc/x86_64-linux-gnu/4.9/../../../../include/c++/4.9/bits/locale_classes.h' line='499' column='1'/>
            </data-member>
            <data-member access='private' static='yes'>
              <var-decl name='_S_id_ctype' type-id='29aaeeb7' visibility='default' filepath='/usr/bin/../lib/gcc/x86_64-linux-gnu/4.9/../../../../include/c++/4.9/bits/locale_classes.h' line='500' column='1'/>
            </data-member>
            <data-member access='private' static='yes'>
              <var-decl name='_S_id_numeric' type-id='29aaeeb7' visibility='default' filepath='/usr/bin/../lib/gcc/x86_64-linux-gnu/4.9/../../../../include/c++/4.9/bits/locale_classes.h' line='501' column='1'/>
            </data-member>
            <data-member access='private' static='yes'>
              <var-decl name='_S_id_collate' type-id='29aaeeb7' visibility='default' filepath='/usr/bin/../lib/gcc/x86_64-linux-gnu/4.9/../../../../include/c++/4.9/bits/locale_classes.h' line='502' column='1'/>
            </data-member>
            <data-member access='private' static='yes'>
              <var-decl name='_S_id_time' type-id='29aaeeb7' visibility='default' filepath='/usr/bin/../lib/gcc/x86_64-linux-gnu/4.9/../../../../include/c++/4.9/bits/locale_classes.h' line='503' column='1'/>
            </data-member>
            <data-member access='private' static='yes'>
              <var-decl name='_S_id_monetary' type-id='29aaeeb7' visibility='default' filepath='/usr/bin/../lib/gcc/x86_64-linux-gnu/4.9/../../../../include/c++/4.9/bits/locale_classes.h' line='504' column='1'/>
            </data-member>
            <data-member access='private' static='yes'>
              <var-decl name='_S_id_messages' type-id='29aaeeb7' visibility='default' filepath='/usr/bin/../lib/gcc/x86_64-linux-gnu/4.9/../../../../include/c++/4.9/bits/locale_classes.h' line='505' column='1'/>
            </data-member>
            <data-member access='private' static='yes'>
              <var-decl name='_S_facet_categories' type-id='f1ae717c' visibility='default' filepath='/usr/bin/../lib/gcc/x86_64-linux-gnu/4.9/../../../../include/c++/4.9/bits/locale_classes.h' line='506' column='1'/>
            </data-member>
            <member-function access='private' constructor='yes'>
              <function-decl name='_Impl' filepath='/usr/bin/../lib/gcc/x86_64-linux-gnu/4.9/../../../../include/c++/4.9/bits/locale_classes.h' line='527' column='1' visibility='default' binding='global' size-in-bits='64'>
                <parameter type-id='5c73ae4b' is-artificial='yes'/>
                <parameter type-id='53d2f258'/>
                <parameter type-id='7a51dc7f'/>
                <return type-id='48b5725f'/>
              </function-decl>
            </member-function>
            <member-function access='private' constructor='yes'>
              <function-decl name='_Impl' filepath='/usr/bin/../lib/gcc/x86_64-linux-gnu/4.9/../../../../include/c++/4.9/bits/locale_classes.h' line='528' column='1' visibility='default' binding='global' size-in-bits='64'>
                <parameter type-id='5c73ae4b' is-artificial='yes'/>
                <parameter type-id='80f4b756'/>
                <parameter type-id='7a51dc7f'/>
                <return type-id='48b5725f'/>
              </function-decl>
            </member-function>
            <member-function access='private' constructor='yes'>
              <function-decl name='_Impl' filepath='/usr/bin/../lib/gcc/x86_64-linux-gnu/4.9/../../../../include/c++/4.9/bits/locale_classes.h' line='529' column='1' visibility='default' binding='global' size-in-bits='64'>
                <parameter type-id='5c73ae4b' is-artificial='yes'/>
                <parameter type-id='7a51dc7f'/>
                <return type-id='48b5725f'/>
              </function-decl>
            </member-function>
            <member-function access='private' destructor='yes'>
              <function-decl name='~_Impl' filepath='/usr/bin/../lib/gcc/x86_64-linux-gnu/4.9/../../../../include/c++/4.9/bits/locale_classes.h' line='531' column='1' visibility='default' binding='global' size-in-bits='64'>
                <parameter type-id='5c73ae4b' is-artificial='yes'/>
                <return type-id='48b5725f'/>
              </function-decl>
            </member-function>
            <member-function access='private' constructor='yes'>
              <function-decl name='_Impl' filepath='/usr/bin/../lib/gcc/x86_64-linux-gnu/4.9/../../../../include/c++/4.9/bits/locale_classes.h' line='533' column='1' visibility='default' binding='global' size-in-bits='64'>
                <parameter type-id='5c73ae4b' is-artificial='yes'/>
                <parameter type-id='53d2f258'/>
                <return type-id='48b5725f'/>
              </function-decl>
            </member-function>
          </class-decl>
        </member-type>
        <member-type access='private'>
          <class-decl name='facet' visibility='default' is-declaration-only='yes' id='b8324e5b'/>
        </member-type>
        <data-member access='public' static='yes'>
          <var-decl name='none' type-id='52664663' visibility='default' filepath='/usr/bin/../lib/gcc/x86_64-linux-gnu/4.9/../../../../include/c++/4.9/bits/locale_classes.h' line='98' column='1'/>
        </data-member>
        <data-member access='public' static='yes'>
          <var-decl name='ctype' type-id='52664663' visibility='default' filepath='/usr/bin/../lib/gcc/x86_64-linux-gnu/4.9/../../../../include/c++/4.9/bits/locale_classes.h' line='99' column='1'/>
        </data-member>
        <data-member access='public' static='yes'>
          <var-decl name='numeric' type-id='52664663' visibility='default' filepath='/usr/bin/../lib/gcc/x86_64-linux-gnu/4.9/../../../../include/c++/4.9/bits/locale_classes.h' line='100' column='1'/>
        </data-member>
        <data-member access='public' static='yes'>
          <var-decl name='collate' type-id='52664663' visibility='default' filepath='/usr/bin/../lib/gcc/x86_64-linux-gnu/4.9/../../../../include/c++/4.9/bits/locale_classes.h' line='101' column='1'/>
        </data-member>
        <data-member access='public' static='yes'>
          <var-decl name='time' type-id='52664663' visibility='default' filepath='/usr/bin/../lib/gcc/x86_64-linux-gnu/4.9/../../../../include/c++/4.9/bits/locale_classes.h' line='102' column='1'/>
        </data-member>
        <data-member access='public' static='yes'>
          <var-decl name='monetary' type-id='52664663' visibility='default' filepath='/usr/bin/../lib/gcc/x86_64-linux-gnu/4.9/../../../../include/c++/4.9/bits/locale_classes.h' line='103' column='1'/>
        </data-member>
        <data-member access='public' static='yes'>
          <var-decl name='messages' type-id='52664663' visibility='default' filepath='/usr/bin/../lib/gcc/x86_64-linux-gnu/4.9/../../../../include/c++/4.9/bits/locale_classes.h' line='104' column='1'/>
        </data-member>
        <data-member access='public' static='yes'>
          <var-decl name='all' type-id='52664663' visibility='default' filepath='/usr/bin/../lib/gcc/x86_64-linux-gnu/4.9/../../../../include/c++/4.9/bits/locale_classes.h' line='105' column='1'/>
        </data-member>
        <data-member access='private' layout-offset-in-bits='0'>
          <var-decl name='_M_impl' type-id='5c73ae4b' visibility='default' filepath='/usr/bin/../lib/gcc/x86_64-linux-gnu/4.9/../../../../include/c++/4.9/bits/locale_classes.h' line='280' column='1'/>
        </data-member>
        <data-member access='private' static='yes'>
          <var-decl name='_S_classic' type-id='5c73ae4b' visibility='default' filepath='/usr/bin/../lib/gcc/x86_64-linux-gnu/4.9/../../../../include/c++/4.9/bits/locale_classes.h' line='283' column='1'/>
        </data-member>
        <data-member access='private' static='yes'>
          <var-decl name='_S_global' type-id='5c73ae4b' visibility='default' filepath='/usr/bin/../lib/gcc/x86_64-linux-gnu/4.9/../../../../include/c++/4.9/bits/locale_classes.h' line='286' column='1'/>
        </data-member>
        <data-member access='private' static='yes'>
          <var-decl name='_S_categories' type-id='aa70b876' visibility='default' filepath='/usr/bin/../lib/gcc/x86_64-linux-gnu/4.9/../../../../include/c++/4.9/bits/locale_classes.h' line='292' column='1'/>
        </data-member>
        <data-member access='private' static='yes'>
          <var-decl name='_S_once' type-id='33f4033a' visibility='default' filepath='/usr/bin/../lib/gcc/x86_64-linux-gnu/4.9/../../../../include/c++/4.9/bits/locale_classes.h' line='307' column='1'/>
        </data-member>
        <member-function access='public' constructor='yes'>
          <function-decl name='locale' filepath='/usr/bin/../lib/gcc/x86_64-linux-gnu/4.9/../../../../include/c++/4.9/bits/locale_classes.h' line='117' column='1' visibility='default' binding='global' size-in-bits='64'>
            <parameter type-id='a682c6b6' is-artificial='yes'/>
            <return type-id='48b5725f'/>
          </function-decl>
        </member-function>
        <member-function access='public' constructor='yes'>
          <function-decl name='locale' filepath='/usr/bin/../lib/gcc/x86_64-linux-gnu/4.9/../../../../include/c++/4.9/bits/locale_classes.h' line='126' column='1' visibility='default' binding='global' size-in-bits='64'>
            <parameter type-id='a682c6b6' is-artificial='yes'/>
            <parameter type-id='470610eb'/>
            <return type-id='48b5725f'/>
          </function-decl>
        </member-function>
        <member-function access='public' constructor='yes'>
          <function-decl name='locale' filepath='/usr/bin/../lib/gcc/x86_64-linux-gnu/4.9/../../../../include/c++/4.9/bits/locale_classes.h' line='137' column='1' visibility='default' binding='global' size-in-bits='64'>
            <parameter type-id='a682c6b6' is-artificial='yes'/>
            <parameter type-id='80f4b756'/>
            <return type-id='48b5725f'/>
          </function-decl>
        </member-function>
        <member-function access='public' constructor='yes'>
          <function-decl name='locale' filepath='/usr/bin/../lib/gcc/x86_64-linux-gnu/4.9/../../../../include/c++/4.9/bits/locale_classes.h' line='151' column='1' visibility='default' binding='global' size-in-bits='64'>
            <parameter type-id='a682c6b6' is-artificial='yes'/>
            <parameter type-id='470610eb'/>
            <parameter type-id='80f4b756'/>
            <parameter type-id='fda11093'/>
            <return type-id='48b5725f'/>
          </function-decl>
        </member-function>
        <member-function access='public' constructor='yes'>
          <function-decl name='locale' filepath='/usr/bin/../lib/gcc/x86_64-linux-gnu/4.9/../../../../include/c++/4.9/bits/locale_classes.h' line='164' column='1' visibility='default' binding='global' size-in-bits='64'>
            <parameter type-id='a682c6b6' is-artificial='yes'/>
            <parameter type-id='470610eb'/>
            <parameter type-id='470610eb'/>
            <parameter type-id='fda11093'/>
            <return type-id='48b5725f'/>
          </function-decl>
        </member-function>
        <member-function access='public' destructor='yes'>
          <function-decl name='~locale' filepath='/usr/bin/../lib/gcc/x86_64-linux-gnu/4.9/../../../../include/c++/4.9/bits/locale_classes.h' line='181' column='1' visibility='default' binding='global' size-in-bits='64'>
            <parameter type-id='a682c6b6' is-artificial='yes'/>
            <return type-id='48b5725f'/>
          </function-decl>
        </member-function>
        <member-function access='private' constructor='yes'>
          <function-decl name='locale' filepath='/usr/bin/../lib/gcc/x86_64-linux-gnu/4.9/../../../../include/c++/4.9/bits/locale_classes.h' line='311' column='1' visibility='default' binding='global' size-in-bits='64'>
            <parameter type-id='a682c6b6' is-artificial='yes'/>
            <parameter type-id='5c73ae4b'/>
            <return type-id='48b5725f'/>
          </function-decl>
        </member-function>
      </class-decl>
      <class-decl name='input_iterator_tag' size-in-bits='8' is-struct='yes' visibility='default' filepath='/usr/bin/../lib/gcc/x86_64-linux-gnu/4.9/../../../../include/c++/4.9/bits/stl_iterator_base_types.h' line='89' column='1' id='06222566'/>
      <class-decl name='forward_iterator_tag' size-in-bits='8' is-struct='yes' visibility='default' filepath='/usr/bin/../lib/gcc/x86_64-linux-gnu/4.9/../../../../include/c++/4.9/bits/stl_iterator_base_types.h' line='95' column='1' id='ee723d41'>
        <base-class access='public' layout-offset-in-bits='0' type-id='06222566'/>
      </class-decl>
      <class-decl name='bidirectional_iterator_tag' size-in-bits='8' is-struct='yes' visibility='default' filepath='/usr/bin/../lib/gcc/x86_64-linux-gnu/4.9/../../../../include/c++/4.9/bits/stl_iterator_base_types.h' line='99' column='1' id='d66e69ff'>
        <base-class access='public' layout-offset-in-bits='0' type-id='ee723d41'/>
      </class-decl>
      <class-decl name='random_access_iterator_tag' size-in-bits='8' is-struct='yes' visibility='default' filepath='/usr/bin/../lib/gcc/x86_64-linux-gnu/4.9/../../../../include/c++/4.9/bits/stl_iterator_base_types.h' line='103' column='1' id='988b3d04'>
        <base-class access='public' layout-offset-in-bits='0' type-id='d66e69ff'/>
      </class-decl>
      <class-decl name='iterator_traits&lt;char *&gt;' size-in-bits='8' is-struct='yes' visibility='default' filepath='/usr/bin/../lib/gcc/x86_64-linux-gnu/4.9/../../../../include/c++/4.9/bits/stl_iterator_base_types.h' line='175' column='1' id='e1a9fe74'>
        <member-type access='public'>
          <typedef-decl name='iterator_category' type-id='988b3d04' filepath='/usr/bin/../lib/gcc/x86_64-linux-gnu/4.9/../../../../include/c++/4.9/bits/stl_iterator_base_types.h' line='177' column='1' id='880e0cb0'/>
        </member-type>
        <member-type access='public'>
          <typedef-decl name='difference_type' type-id='d368b855' filepath='/usr/bin/../lib/gcc/x86_64-linux-gnu/4.9/../../../../include/c++/4.9/bits/stl_iterator_base_types.h' line='179' column='1' id='72690d37'/>
        </member-type>
        <member-type access='public'>
          <typedef-decl name='pointer' type-id='26a90f95' filepath='/usr/bin/../lib/gcc/x86_64-linux-gnu/4.9/../../../../include/c++/4.9/bits/stl_iterator_base_types.h' line='180' column='1' id='827b1a12'/>
        </member-type>
        <member-type access='public'>
          <typedef-decl name='reference' type-id='2aa915e1' filepath='/usr/bin/../lib/gcc/x86_64-linux-gnu/4.9/../../../../include/c++/4.9/bits/stl_iterator_base_types.h' line='181' column='1' id='c3131322'/>
        </member-type>
      </class-decl>
      <typedef-decl name='wstring' type-id='08a27e41' filepath='/usr/bin/../lib/gcc/x86_64-linux-gnu/4.9/../../../../include/c++/4.9/bits/stringfwd.h' line='68' column='1' id='819536af'/>
      <class-decl name='remove_reference&lt;boost::filesystem::detail::dir_itr_imp *&amp;&gt;' size-in-bits='8' is-struct='yes' visibility='default' filepath='/usr/bin/../lib/gcc/x86_64-linux-gnu/4.9/../../../../include/c++/4.9/type_traits' line='1504' column='1' id='8d2bbb79'>
        <member-type access='public'>
          <typedef-decl name='type' type-id='07f93bcc' filepath='/usr/bin/../lib/gcc/x86_64-linux-gnu/4.9/../../../../include/c++/4.9/type_traits' line='1505' column='1' id='d08afe98'/>
        </member-type>
      </class-decl>
      <class-decl name='remove_reference&lt;boost::filesystem::filesystem_error::m_imp *&amp;&gt;' size-in-bits='8' is-struct='yes' visibility='default' filepath='/usr/bin/../lib/gcc/x86_64-linux-gnu/4.9/../../../../include/c++/4.9/type_traits' line='1504' column='1' id='b8f7269a'>
        <member-type access='public'>
          <typedef-decl name='type' type-id='261a48bd' filepath='/usr/bin/../lib/gcc/x86_64-linux-gnu/4.9/../../../../include/c++/4.9/type_traits' line='1505' column='1' id='e76c6467'/>
        </member-type>
      </class-decl>
      <typedef-decl name='size_t' type-id='7359adad' filepath='/usr/bin/../lib/gcc/x86_64-linux-gnu/4.9/../../../../include/x86_64-linux-gnu/c++/4.9/bits/c++config.h' line='188' column='1' id='7a51dc7f'/>
      <typedef-decl name='ptrdiff_t' type-id='bd54fe1a' filepath='/usr/bin/../lib/gcc/x86_64-linux-gnu/4.9/../../../../include/x86_64-linux-gnu/c++/4.9/bits/c++config.h' line='189' column='1' id='d368b855'/>
      <class-decl name='allocator&lt;char&gt;' visibility='default' is-declaration-only='yes' id='eb166b35'>
        <member-type access='private'>
          <typedef-decl name='size_type' type-id='7a51dc7f' filepath='/usr/bin/../lib/gcc/x86_64-linux-gnu/4.9/../../../../include/c++/4.9/bits/allocator.h' line='95' column='1' id='ea4606d6'/>
        </member-type>
      </class-decl>
      <class-decl name='basic_string&lt;wchar_t, std::char_traits&lt;wchar_t&gt;, std::allocator&lt;wchar_t&gt; &gt;' visibility='default' is-declaration-only='yes' id='08a27e41'>
        <member-type access='private'>
          <typedef-decl name='size_type' type-id='080ef374' filepath='/usr/bin/../lib/gcc/x86_64-linux-gnu/4.9/../../../../include/c++/4.9/bits/basic_string.h' line='121' column='1' id='2ce0362c'/>
        </member-type>
        <member-function access='public'>
          <function-decl name='append&lt;wchar_t *&gt;' mangled-name='_ZNSbIwSt11char_traitsIwESaIwEE6appendIPwEERS2_T_S6_' filepath='/usr/bin/../lib/gcc/x86_64-linux-gnu/4.9/../../../../include/c++/4.9/bits/basic_string.h' line='1061' column='1' visibility='default' binding='global' size-in-bits='64' elf-symbol-id='_ZNSbIwSt11char_traitsIwESaIwEE6appendIPwEERS2_T_S6_'>
            <parameter type-id='c332c349' is-artificial='yes'/>
            <parameter type-id='323d93c1'/>
            <parameter type-id='323d93c1'/>
            <return type-id='cf32d62d'/>
          </function-decl>
        </member-function>
      </class-decl>
      <class-decl name='codecvt&lt;wchar_t, char, __mbstate_t&gt;' visibility='default' is-declaration-only='yes' id='5bcbab0d'/>
      <class-decl name='runtime_error' visibility='default' is-declaration-only='yes' id='58f30d83'/>
      <class-decl name='type_info' visibility='default' is-declaration-only='yes' id='8f2b8067'/>
      <function-decl name='operator==&lt;char&gt;' mangled-name='_ZSteqIcEbRKSaIT_ES3_' filepath='/usr/bin/../lib/gcc/x86_64-linux-gnu/4.9/../../../../include/c++/4.9/bits/allocator.h' line='133' column='1' visibility='default' binding='global' size-in-bits='64' elf-symbol-id='_ZSteqIcEbRKSaIT_ES3_'>
        <parameter type-id='d6d4f37a' filepath='/usr/bin/../lib/gcc/x86_64-linux-gnu/4.9/../../../../include/c++/4.9/bits/allocator.h' line='133' column='1'/>
        <parameter type-id='d6d4f37a' filepath='/usr/bin/../lib/gcc/x86_64-linux-gnu/4.9/../../../../include/c++/4.9/bits/allocator.h' line='133' column='1'/>
        <return type-id='c894953d'/>
      </function-decl>
      <function-decl name='move&lt;boost::filesystem::detail::dir_itr_imp *&amp;&gt;' mangled-name='_ZSt4moveIRPN5boost10filesystem6detail11dir_itr_impEEONSt16remove_referenceIT_E4typeEOS7_' filepath='/usr/bin/../lib/gcc/x86_64-linux-gnu/4.9/../../../../include/c++/4.9/bits/move.h' line='101' column='1' visibility='default' binding='global' size-in-bits='64' elf-symbol-id='_ZSt4moveIRPN5boost10filesystem6detail11dir_itr_impEEONSt16remove_referenceIT_E4typeEOS7_'>
        <parameter type-id='7759515e' name='__t' filepath='/usr/bin/../lib/gcc/x86_64-linux-gnu/4.9/../../../../include/c++/4.9/bits/move.h' line='101' column='1'/>
        <return type-id='1701fa21'/>
      </function-decl>
      <function-decl name='move&lt;boost::filesystem::filesystem_error::m_imp *&amp;&gt;' mangled-name='_ZSt4moveIRPN5boost10filesystem16filesystem_error5m_impEEONSt16remove_referenceIT_E4typeEOS7_' filepath='/usr/bin/../lib/gcc/x86_64-linux-gnu/4.9/../../../../include/c++/4.9/bits/move.h' line='101' column='1' visibility='default' binding='global' size-in-bits='64' elf-symbol-id='_ZSt4moveIRPN5boost10filesystem16filesystem_error5m_impEEONSt16remove_referenceIT_E4typeEOS7_'>
        <parameter type-id='96604c01' name='__t' filepath='/usr/bin/../lib/gcc/x86_64-linux-gnu/4.9/../../../../include/c++/4.9/bits/move.h' line='101' column='1'/>
        <return type-id='2e2caef2'/>
      </function-decl>
      <function-decl name='swap&lt;boost::filesystem::detail::dir_itr_imp *&gt;' mangled-name='_ZSt4swapIPN5boost10filesystem6detail11dir_itr_impEEvRT_S6_' filepath='/usr/bin/../lib/gcc/x86_64-linux-gnu/4.9/../../../../include/c++/4.9/bits/move.h' line='166' column='1' visibility='default' binding='global' size-in-bits='64' elf-symbol-id='_ZSt4swapIPN5boost10filesystem6detail11dir_itr_impEEvRT_S6_'>
        <parameter type-id='7759515e' name='__a' filepath='/usr/bin/../lib/gcc/x86_64-linux-gnu/4.9/../../../../include/c++/4.9/bits/move.h' line='554' column='1'/>
        <parameter type-id='7759515e' name='__b' filepath='/usr/bin/../lib/gcc/x86_64-linux-gnu/4.9/../../../../include/c++/4.9/bits/move.h' line='554' column='1'/>
        <return type-id='48b5725f'/>
      </function-decl>
      <function-decl name='swap&lt;boost::filesystem::filesystem_error::m_imp *&gt;' mangled-name='_ZSt4swapIPN5boost10filesystem16filesystem_error5m_impEEvRT_S6_' filepath='/usr/bin/../lib/gcc/x86_64-linux-gnu/4.9/../../../../include/c++/4.9/bits/move.h' line='166' column='1' visibility='default' binding='global' size-in-bits='64' elf-symbol-id='_ZSt4swapIPN5boost10filesystem16filesystem_error5m_impEEvRT_S6_'>
        <parameter type-id='96604c01' name='__a' filepath='/usr/bin/../lib/gcc/x86_64-linux-gnu/4.9/../../../../include/c++/4.9/bits/move.h' line='554' column='1'/>
        <parameter type-id='96604c01' name='__b' filepath='/usr/bin/../lib/gcc/x86_64-linux-gnu/4.9/../../../../include/c++/4.9/bits/move.h' line='554' column='1'/>
        <return type-id='48b5725f'/>
      </function-decl>
      <function-decl name='__distance&lt;char *&gt;' mangled-name='_ZSt10__distanceIPcENSt15iterator_traitsIT_E15difference_typeES2_S2_St26random_access_iterator_tag' filepath='/usr/bin/../lib/gcc/x86_64-linux-gnu/4.9/../../../../include/c++/4.9/bits/stl_iterator_base_funcs.h' line='90' column='1' visibility='default' binding='global' size-in-bits='64' elf-symbol-id='_ZSt10__distanceIPcENSt15iterator_traitsIT_E15difference_typeES2_S2_St26random_access_iterator_tag'>
        <parameter type-id='26a90f95' name='__first' filepath='/usr/bin/../lib/gcc/x86_64-linux-gnu/4.9/../../../../include/c++/4.9/bits/stl_iterator_base_funcs.h' line='90' column='1'/>
        <parameter type-id='26a90f95' name='__last' filepath='/usr/bin/../lib/gcc/x86_64-linux-gnu/4.9/../../../../include/c++/4.9/bits/stl_iterator_base_funcs.h' line='90' column='1'/>
        <parameter type-id='988b3d04' filepath='/usr/bin/../lib/gcc/x86_64-linux-gnu/4.9/../../../../include/c++/4.9/bits/stl_iterator_base_funcs.h' line='91' column='1'/>
        <return type-id='72690d37'/>
      </function-decl>
      <function-decl name='distance&lt;char *&gt;' mangled-name='_ZSt8distanceIPcENSt15iterator_traitsIT_E15difference_typeES2_S2_' filepath='/usr/bin/../lib/gcc/x86_64-linux-gnu/4.9/../../../../include/c++/4.9/bits/stl_iterator_base_funcs.h' line='114' column='1' visibility='default' binding='global' size-in-bits='64' elf-symbol-id='_ZSt8distanceIPcENSt15iterator_traitsIT_E15difference_typeES2_S2_'>
        <parameter type-id='26a90f95' name='__first' filepath='/usr/bin/../lib/gcc/x86_64-linux-gnu/4.9/../../../../include/c++/4.9/bits/stl_iterator_base_funcs.h' line='114' column='1'/>
        <parameter type-id='26a90f95' name='__last' filepath='/usr/bin/../lib/gcc/x86_64-linux-gnu/4.9/../../../../include/c++/4.9/bits/stl_iterator_base_funcs.h' line='114' column='1'/>
        <return type-id='72690d37'/>
      </function-decl>
      <function-decl name='__iterator_category&lt;char *&gt;' mangled-name='_ZSt19__iterator_categoryIPcENSt15iterator_traitsIT_E17iterator_categoryERKS2_' filepath='/usr/bin/../lib/gcc/x86_64-linux-gnu/4.9/../../../../include/c++/4.9/bits/stl_iterator_base_types.h' line='201' column='1' visibility='default' binding='global' size-in-bits='64' elf-symbol-id='_ZSt19__iterator_categoryIPcENSt15iterator_traitsIT_E17iterator_categoryERKS2_'>
        <parameter type-id='ff1a0dc4' filepath='/usr/bin/../lib/gcc/x86_64-linux-gnu/4.9/../../../../include/c++/4.9/bits/stl_iterator_base_types.h' line='201' column='1'/>
        <return type-id='880e0cb0'/>
      </function-decl>
    </namespace-decl>
    <function-decl name='memcpy' filepath='/usr/include/string.h' line='46' column='1' visibility='default' binding='global' size-in-bits='64'>
      <parameter type-id='1b7446cd'/>
      <parameter type-id='1b7446cd'/>
      <parameter type-id='b59d7dce'/>
      <return type-id='eaa32e2f'/>
    </function-decl>
    <function-decl name='memmove' filepath='/usr/include/string.h' line='50' column='1' visibility='default' binding='global' size-in-bits='64'>
      <parameter type-id='eaa32e2f'/>
      <parameter type-id='eaa32e2f'/>
      <parameter type-id='b59d7dce'/>
      <return type-id='eaa32e2f'/>
    </function-decl>
    <function-decl name='memset' filepath='/usr/include/string.h' line='66' column='1' visibility='default' binding='global' size-in-bits='64'>
      <parameter type-id='eaa32e2f'/>
      <parameter type-id='95e97e5e'/>
      <parameter type-id='b59d7dce'/>
      <return type-id='eaa32e2f'/>
    </function-decl>
    <function-decl name='memcmp' filepath='/usr/include/string.h' line='69' column='1' visibility='default' binding='global' size-in-bits='64'>
      <parameter type-id='eaa32e2f'/>
      <parameter type-id='eaa32e2f'/>
      <parameter type-id='b59d7dce'/>
      <return type-id='95e97e5e'/>
    </function-decl>
    <function-decl name='memchr' filepath='/usr/include/string.h' line='78' column='1' visibility='default' binding='global' size-in-bits='64'>
      <parameter type-id='eaa32e2f'/>
      <parameter type-id='95e97e5e'/>
      <parameter type-id='b59d7dce'/>
      <return type-id='eaa32e2f'/>
    </function-decl>
    <function-decl name='strcpy' filepath='/usr/include/string.h' line='129' column='1' visibility='default' binding='global' size-in-bits='64'>
      <parameter type-id='266fe297'/>
      <parameter type-id='9d26089a'/>
      <return type-id='26a90f95'/>
    </function-decl>
    <function-decl name='strncpy' filepath='/usr/include/string.h' line='132' column='1' visibility='default' binding='global' size-in-bits='64'>
      <parameter type-id='266fe297'/>
      <parameter type-id='9d26089a'/>
      <parameter type-id='b59d7dce'/>
      <return type-id='26a90f95'/>
    </function-decl>
    <function-decl name='strcat' filepath='/usr/include/string.h' line='137' column='1' visibility='default' binding='global' size-in-bits='64'>
      <parameter type-id='266fe297'/>
      <parameter type-id='9d26089a'/>
      <return type-id='26a90f95'/>
    </function-decl>
    <function-decl name='strncat' filepath='/usr/include/string.h' line='140' column='1' visibility='default' binding='global' size-in-bits='64'>
      <parameter type-id='266fe297'/>
      <parameter type-id='9d26089a'/>
      <parameter type-id='b59d7dce'/>
      <return type-id='26a90f95'/>
    </function-decl>
    <function-decl name='strcmp' filepath='/usr/include/string.h' line='144' column='1' visibility='default' binding='global' size-in-bits='64'>
      <parameter type-id='80f4b756'/>
      <parameter type-id='80f4b756'/>
      <return type-id='95e97e5e'/>
    </function-decl>
    <function-decl name='strncmp' filepath='/usr/include/string.h' line='147' column='1' visibility='default' binding='global' size-in-bits='64'>
      <parameter type-id='80f4b756'/>
      <parameter type-id='80f4b756'/>
      <parameter type-id='b59d7dce'/>
      <return type-id='95e97e5e'/>
    </function-decl>
    <function-decl name='strcoll' filepath='/usr/include/string.h' line='151' column='1' visibility='default' binding='global' size-in-bits='64'>
      <parameter type-id='80f4b756'/>
      <parameter type-id='80f4b756'/>
      <return type-id='95e97e5e'/>
    </function-decl>
    <function-decl name='strxfrm' filepath='/usr/include/string.h' line='154' column='1' visibility='default' binding='global' size-in-bits='64'>
      <parameter type-id='266fe297'/>
      <parameter type-id='9d26089a'/>
      <parameter type-id='b59d7dce'/>
      <return type-id='b59d7dce'/>
    </function-decl>
    <function-decl name='strchr' filepath='/usr/include/string.h' line='217' column='1' visibility='default' binding='global' size-in-bits='64'>
      <parameter type-id='80f4b756'/>
      <parameter type-id='95e97e5e'/>
      <return type-id='80f4b756'/>
    </function-decl>
    <function-decl name='strrchr' filepath='/usr/include/string.h' line='244' column='1' visibility='default' binding='global' size-in-bits='64'>
      <parameter type-id='80f4b756'/>
      <parameter type-id='95e97e5e'/>
      <return type-id='80f4b756'/>
    </function-decl>
    <function-decl name='strcspn' filepath='/usr/include/string.h' line='284' column='1' visibility='default' binding='global' size-in-bits='64'>
      <parameter type-id='80f4b756'/>
      <parameter type-id='80f4b756'/>
      <return type-id='b59d7dce'/>
    </function-decl>
    <function-decl name='strspn' filepath='/usr/include/string.h' line='288' column='1' visibility='default' binding='global' size-in-bits='64'>
      <parameter type-id='80f4b756'/>
      <parameter type-id='80f4b756'/>
      <return type-id='b59d7dce'/>
    </function-decl>
    <function-decl name='strpbrk' filepath='/usr/include/string.h' line='296' column='1' visibility='default' binding='global' size-in-bits='64'>
      <parameter type-id='80f4b756'/>
      <parameter type-id='80f4b756'/>
      <return type-id='80f4b756'/>
    </function-decl>
    <function-decl name='strstr' filepath='/usr/include/string.h' line='323' column='1' visibility='default' binding='global' size-in-bits='64'>
      <parameter type-id='80f4b756'/>
      <parameter type-id='80f4b756'/>
      <return type-id='80f4b756'/>
    </function-decl>
    <function-decl name='strtok' filepath='/usr/include/string.h' line='347' column='1' visibility='default' binding='global' size-in-bits='64'>
      <parameter type-id='266fe297'/>
      <parameter type-id='9d26089a'/>
      <return type-id='26a90f95'/>
    </function-decl>
    <function-decl name='strlen' filepath='/usr/include/string.h' line='398' column='1' visibility='default' binding='global' size-in-bits='64'>
      <parameter type-id='80f4b756'/>
      <return type-id='b59d7dce'/>
    </function-decl>
    <function-decl name='strerror' filepath='/usr/include/string.h' line='412' column='1' visibility='default' binding='global' size-in-bits='64'>
      <parameter type-id='95e97e5e'/>
      <return type-id='26a90f95'/>
    </function-decl>
    <function-decl name='acos' filepath='/usr/include/x86_64-linux-gnu/bits/mathcalls.h' line='54' column='1' visibility='default' binding='global' size-in-bits='64'>
      <parameter type-id='a0eb0f08'/>
      <return type-id='a0eb0f08'/>
    </function-decl>
    <function-decl name='asin' filepath='/usr/include/x86_64-linux-gnu/bits/mathcalls.h' line='56' column='1' visibility='default' binding='global' size-in-bits='64'>
      <parameter type-id='a0eb0f08'/>
      <return type-id='a0eb0f08'/>
    </function-decl>
    <function-decl name='atan' filepath='/usr/include/x86_64-linux-gnu/bits/mathcalls.h' line='58' column='1' visibility='default' binding='global' size-in-bits='64'>
      <parameter type-id='a0eb0f08'/>
      <return type-id='a0eb0f08'/>
    </function-decl>
    <function-decl name='atan2' filepath='/usr/include/x86_64-linux-gnu/bits/mathcalls.h' line='60' column='1' visibility='default' binding='global' size-in-bits='64'>
      <parameter type-id='a0eb0f08'/>
      <parameter type-id='a0eb0f08'/>
      <return type-id='a0eb0f08'/>
    </function-decl>
    <function-decl name='cos' filepath='/usr/include/x86_64-linux-gnu/bits/mathcalls.h' line='63' column='1' visibility='default' binding='global' size-in-bits='64'>
      <parameter type-id='a0eb0f08'/>
      <return type-id='a0eb0f08'/>
    </function-decl>
    <function-decl name='sin' filepath='/usr/include/x86_64-linux-gnu/bits/mathcalls.h' line='65' column='1' visibility='default' binding='global' size-in-bits='64'>
      <parameter type-id='a0eb0f08'/>
      <return type-id='a0eb0f08'/>
    </function-decl>
    <function-decl name='tan' filepath='/usr/include/x86_64-linux-gnu/bits/mathcalls.h' line='67' column='1' visibility='default' binding='global' size-in-bits='64'>
      <parameter type-id='a0eb0f08'/>
      <return type-id='a0eb0f08'/>
    </function-decl>
    <function-decl name='cosh' filepath='/usr/include/x86_64-linux-gnu/bits/mathcalls.h' line='72' column='1' visibility='default' binding='global' size-in-bits='64'>
      <parameter type-id='a0eb0f08'/>
      <return type-id='a0eb0f08'/>
    </function-decl>
    <function-decl name='sinh' filepath='/usr/include/x86_64-linux-gnu/bits/mathcalls.h' line='74' column='1' visibility='default' binding='global' size-in-bits='64'>
      <parameter type-id='a0eb0f08'/>
      <return type-id='a0eb0f08'/>
    </function-decl>
    <function-decl name='tanh' filepath='/usr/include/x86_64-linux-gnu/bits/mathcalls.h' line='76' column='1' visibility='default' binding='global' size-in-bits='64'>
      <parameter type-id='a0eb0f08'/>
      <return type-id='a0eb0f08'/>
    </function-decl>
    <function-decl name='acosh' filepath='/usr/include/x86_64-linux-gnu/bits/mathcalls.h' line='88' column='1' visibility='default' binding='global' size-in-bits='64'>
      <parameter type-id='a0eb0f08'/>
      <return type-id='a0eb0f08'/>
    </function-decl>
    <function-decl name='acoshf' filepath='/usr/include/x86_64-linux-gnu/bits/mathcalls.h' line='88' column='1' visibility='default' binding='global' size-in-bits='64'>
      <parameter type-id='a6c45d85'/>
      <return type-id='a6c45d85'/>
    </function-decl>
    <function-decl name='acoshl' filepath='/usr/include/x86_64-linux-gnu/bits/mathcalls.h' line='88' column='1' visibility='default' binding='global' size-in-bits='64'>
      <parameter type-id='e095c704'/>
      <return type-id='e095c704'/>
    </function-decl>
    <function-decl name='asinh' filepath='/usr/include/x86_64-linux-gnu/bits/mathcalls.h' line='90' column='1' visibility='default' binding='global' size-in-bits='64'>
      <parameter type-id='a0eb0f08'/>
      <return type-id='a0eb0f08'/>
    </function-decl>
    <function-decl name='asinhf' filepath='/usr/include/x86_64-linux-gnu/bits/mathcalls.h' line='90' column='1' visibility='default' binding='global' size-in-bits='64'>
      <parameter type-id='a6c45d85'/>
      <return type-id='a6c45d85'/>
    </function-decl>
    <function-decl name='asinhl' filepath='/usr/include/x86_64-linux-gnu/bits/mathcalls.h' line='90' column='1' visibility='default' binding='global' size-in-bits='64'>
      <parameter type-id='e095c704'/>
      <return type-id='e095c704'/>
    </function-decl>
    <function-decl name='atanh' filepath='/usr/include/x86_64-linux-gnu/bits/mathcalls.h' line='92' column='1' visibility='default' binding='global' size-in-bits='64'>
      <parameter type-id='a0eb0f08'/>
      <return type-id='a0eb0f08'/>
    </function-decl>
    <function-decl name='atanhf' filepath='/usr/include/x86_64-linux-gnu/bits/mathcalls.h' line='92' column='1' visibility='default' binding='global' size-in-bits='64'>
      <parameter type-id='a6c45d85'/>
      <return type-id='a6c45d85'/>
    </function-decl>
    <function-decl name='atanhl' filepath='/usr/include/x86_64-linux-gnu/bits/mathcalls.h' line='92' column='1' visibility='default' binding='global' size-in-bits='64'>
      <parameter type-id='e095c704'/>
      <return type-id='e095c704'/>
    </function-decl>
    <function-decl name='exp' filepath='/usr/include/x86_64-linux-gnu/bits/mathcalls.h' line='100' column='1' visibility='default' binding='global' size-in-bits='64'>
      <parameter type-id='a0eb0f08'/>
      <return type-id='a0eb0f08'/>
    </function-decl>
    <function-decl name='frexp' filepath='/usr/include/x86_64-linux-gnu/bits/mathcalls.h' line='103' column='1' visibility='default' binding='global' size-in-bits='64'>
      <parameter type-id='a0eb0f08'/>
      <parameter type-id='7292109c'/>
      <return type-id='a0eb0f08'/>
    </function-decl>
    <function-decl name='ldexp' filepath='/usr/include/x86_64-linux-gnu/bits/mathcalls.h' line='106' column='1' visibility='default' binding='global' size-in-bits='64'>
      <parameter type-id='a0eb0f08'/>
      <parameter type-id='95e97e5e'/>
      <return type-id='a0eb0f08'/>
    </function-decl>
    <function-decl name='log' filepath='/usr/include/x86_64-linux-gnu/bits/mathcalls.h' line='109' column='1' visibility='default' binding='global' size-in-bits='64'>
      <parameter type-id='a0eb0f08'/>
      <return type-id='a0eb0f08'/>
    </function-decl>
    <function-decl name='log10' filepath='/usr/include/x86_64-linux-gnu/bits/mathcalls.h' line='112' column='1' visibility='default' binding='global' size-in-bits='64'>
      <parameter type-id='a0eb0f08'/>
      <return type-id='a0eb0f08'/>
    </function-decl>
    <function-decl name='modf' filepath='/usr/include/x86_64-linux-gnu/bits/mathcalls.h' line='115' column='1' visibility='default' binding='global' size-in-bits='64'>
      <parameter type-id='a0eb0f08'/>
      <parameter type-id='7408d286'/>
      <return type-id='a0eb0f08'/>
    </function-decl>
    <function-decl name='expm1' filepath='/usr/include/x86_64-linux-gnu/bits/mathcalls.h' line='128' column='1' visibility='default' binding='global' size-in-bits='64'>
      <parameter type-id='a0eb0f08'/>
      <return type-id='a0eb0f08'/>
    </function-decl>
    <function-decl name='expm1f' filepath='/usr/include/x86_64-linux-gnu/bits/mathcalls.h' line='128' column='1' visibility='default' binding='global' size-in-bits='64'>
      <parameter type-id='a6c45d85'/>
      <return type-id='a6c45d85'/>
    </function-decl>
    <function-decl name='expm1l' filepath='/usr/include/x86_64-linux-gnu/bits/mathcalls.h' line='128' column='1' visibility='default' binding='global' size-in-bits='64'>
      <parameter type-id='e095c704'/>
      <return type-id='e095c704'/>
    </function-decl>
    <function-decl name='log1p' filepath='/usr/include/x86_64-linux-gnu/bits/mathcalls.h' line='131' column='1' visibility='default' binding='global' size-in-bits='64'>
      <parameter type-id='a0eb0f08'/>
      <return type-id='a0eb0f08'/>
    </function-decl>
    <function-decl name='log1pf' filepath='/usr/include/x86_64-linux-gnu/bits/mathcalls.h' line='131' column='1' visibility='default' binding='global' size-in-bits='64'>
      <parameter type-id='a6c45d85'/>
      <return type-id='a6c45d85'/>
    </function-decl>
    <function-decl name='log1pl' filepath='/usr/include/x86_64-linux-gnu/bits/mathcalls.h' line='131' column='1' visibility='default' binding='global' size-in-bits='64'>
      <parameter type-id='e095c704'/>
      <return type-id='e095c704'/>
    </function-decl>
    <function-decl name='logb' filepath='/usr/include/x86_64-linux-gnu/bits/mathcalls.h' line='134' column='1' visibility='default' binding='global' size-in-bits='64'>
      <parameter type-id='a0eb0f08'/>
      <return type-id='a0eb0f08'/>
    </function-decl>
    <function-decl name='logbf' filepath='/usr/include/x86_64-linux-gnu/bits/mathcalls.h' line='134' column='1' visibility='default' binding='global' size-in-bits='64'>
      <parameter type-id='a6c45d85'/>
      <return type-id='a6c45d85'/>
    </function-decl>
    <function-decl name='logbl' filepath='/usr/include/x86_64-linux-gnu/bits/mathcalls.h' line='134' column='1' visibility='default' binding='global' size-in-bits='64'>
      <parameter type-id='e095c704'/>
      <return type-id='e095c704'/>
    </function-decl>
    <function-decl name='exp2' filepath='/usr/include/x86_64-linux-gnu/bits/mathcalls.h' line='141' column='1' visibility='default' binding='global' size-in-bits='64'>
      <parameter type-id='a0eb0f08'/>
      <return type-id='a0eb0f08'/>
    </function-decl>
    <function-decl name='exp2f' filepath='/usr/include/x86_64-linux-gnu/bits/mathcalls.h' line='141' column='1' visibility='default' binding='global' size-in-bits='64'>
      <parameter type-id='a6c45d85'/>
      <return type-id='a6c45d85'/>
    </function-decl>
    <function-decl name='exp2l' filepath='/usr/include/x86_64-linux-gnu/bits/mathcalls.h' line='141' column='1' visibility='default' binding='global' size-in-bits='64'>
      <parameter type-id='e095c704'/>
      <return type-id='e095c704'/>
    </function-decl>
    <function-decl name='log2' filepath='/usr/include/x86_64-linux-gnu/bits/mathcalls.h' line='144' column='1' visibility='default' binding='global' size-in-bits='64'>
      <parameter type-id='a0eb0f08'/>
      <return type-id='a0eb0f08'/>
    </function-decl>
    <function-decl name='log2f' filepath='/usr/include/x86_64-linux-gnu/bits/mathcalls.h' line='144' column='1' visibility='default' binding='global' size-in-bits='64'>
      <parameter type-id='a6c45d85'/>
      <return type-id='a6c45d85'/>
    </function-decl>
    <function-decl name='log2l' filepath='/usr/include/x86_64-linux-gnu/bits/mathcalls.h' line='144' column='1' visibility='default' binding='global' size-in-bits='64'>
      <parameter type-id='e095c704'/>
      <return type-id='e095c704'/>
    </function-decl>
    <function-decl name='pow' filepath='/usr/include/x86_64-linux-gnu/bits/mathcalls.h' line='153' column='1' visibility='default' binding='global' size-in-bits='64'>
      <parameter type-id='a0eb0f08'/>
      <parameter type-id='a0eb0f08'/>
      <return type-id='a0eb0f08'/>
    </function-decl>
    <function-decl name='sqrt' filepath='/usr/include/x86_64-linux-gnu/bits/mathcalls.h' line='156' column='1' visibility='default' binding='global' size-in-bits='64'>
      <parameter type-id='a0eb0f08'/>
      <return type-id='a0eb0f08'/>
    </function-decl>
    <function-decl name='hypot' filepath='/usr/include/x86_64-linux-gnu/bits/mathcalls.h' line='162' column='1' visibility='default' binding='global' size-in-bits='64'>
      <parameter type-id='a0eb0f08'/>
      <parameter type-id='a0eb0f08'/>
      <return type-id='a0eb0f08'/>
    </function-decl>
    <function-decl name='hypotf' filepath='/usr/include/x86_64-linux-gnu/bits/mathcalls.h' line='162' column='1' visibility='default' binding='global' size-in-bits='64'>
      <parameter type-id='a6c45d85'/>
      <parameter type-id='a6c45d85'/>
      <return type-id='a6c45d85'/>
    </function-decl>
    <function-decl name='hypotl' filepath='/usr/include/x86_64-linux-gnu/bits/mathcalls.h' line='162' column='1' visibility='default' binding='global' size-in-bits='64'>
      <parameter type-id='e095c704'/>
      <parameter type-id='e095c704'/>
      <return type-id='e095c704'/>
    </function-decl>
    <function-decl name='cbrt' filepath='/usr/include/x86_64-linux-gnu/bits/mathcalls.h' line='169' column='1' visibility='default' binding='global' size-in-bits='64'>
      <parameter type-id='a0eb0f08'/>
      <return type-id='a0eb0f08'/>
    </function-decl>
    <function-decl name='cbrtf' filepath='/usr/include/x86_64-linux-gnu/bits/mathcalls.h' line='169' column='1' visibility='default' binding='global' size-in-bits='64'>
      <parameter type-id='a6c45d85'/>
      <return type-id='a6c45d85'/>
    </function-decl>
    <function-decl name='cbrtl' filepath='/usr/include/x86_64-linux-gnu/bits/mathcalls.h' line='169' column='1' visibility='default' binding='global' size-in-bits='64'>
      <parameter type-id='e095c704'/>
      <return type-id='e095c704'/>
    </function-decl>
    <function-decl name='ceil' filepath='/usr/include/x86_64-linux-gnu/bits/mathcalls.h' line='178' column='1' visibility='default' binding='global' size-in-bits='64'>
      <parameter type-id='a0eb0f08'/>
      <return type-id='a0eb0f08'/>
    </function-decl>
    <function-decl name='fabs' filepath='/usr/include/x86_64-linux-gnu/bits/mathcalls.h' line='181' column='1' visibility='default' binding='global' size-in-bits='64'>
      <parameter type-id='a0eb0f08'/>
      <return type-id='a0eb0f08'/>
    </function-decl>
    <function-decl name='floor' filepath='/usr/include/x86_64-linux-gnu/bits/mathcalls.h' line='184' column='1' visibility='default' binding='global' size-in-bits='64'>
      <parameter type-id='a0eb0f08'/>
      <return type-id='a0eb0f08'/>
    </function-decl>
    <function-decl name='fmod' filepath='/usr/include/x86_64-linux-gnu/bits/mathcalls.h' line='187' column='1' visibility='default' binding='global' size-in-bits='64'>
      <parameter type-id='a0eb0f08'/>
      <parameter type-id='a0eb0f08'/>
      <return type-id='a0eb0f08'/>
    </function-decl>
    <function-decl name='copysign' filepath='/usr/include/x86_64-linux-gnu/bits/mathcalls.h' line='217' column='1' visibility='default' binding='global' size-in-bits='64'>
      <parameter type-id='a0eb0f08'/>
      <parameter type-id='a0eb0f08'/>
      <return type-id='a0eb0f08'/>
    </function-decl>
    <function-decl name='copysignf' filepath='/usr/include/x86_64-linux-gnu/bits/mathcalls.h' line='217' column='1' visibility='default' binding='global' size-in-bits='64'>
      <parameter type-id='a6c45d85'/>
      <parameter type-id='a6c45d85'/>
      <return type-id='a6c45d85'/>
    </function-decl>
    <function-decl name='copysignl' filepath='/usr/include/x86_64-linux-gnu/bits/mathcalls.h' line='217' column='1' visibility='default' binding='global' size-in-bits='64'>
      <parameter type-id='e095c704'/>
      <parameter type-id='e095c704'/>
      <return type-id='e095c704'/>
    </function-decl>
    <function-decl name='nan' filepath='/usr/include/x86_64-linux-gnu/bits/mathcalls.h' line='224' column='1' visibility='default' binding='global' size-in-bits='64'>
      <parameter type-id='80f4b756'/>
      <return type-id='a0eb0f08'/>
    </function-decl>
    <function-decl name='nanf' filepath='/usr/include/x86_64-linux-gnu/bits/mathcalls.h' line='224' column='1' visibility='default' binding='global' size-in-bits='64'>
      <parameter type-id='80f4b756'/>
      <return type-id='a6c45d85'/>
    </function-decl>
    <function-decl name='nanl' filepath='/usr/include/x86_64-linux-gnu/bits/mathcalls.h' line='224' column='1' visibility='default' binding='global' size-in-bits='64'>
      <parameter type-id='80f4b756'/>
      <return type-id='e095c704'/>
    </function-decl>
    <function-decl name='erf' filepath='/usr/include/x86_64-linux-gnu/bits/mathcalls.h' line='249' column='1' visibility='default' binding='global' size-in-bits='64'>
      <parameter type-id='a0eb0f08'/>
      <return type-id='a0eb0f08'/>
    </function-decl>
    <function-decl name='erff' filepath='/usr/include/x86_64-linux-gnu/bits/mathcalls.h' line='249' column='1' visibility='default' binding='global' size-in-bits='64'>
      <parameter type-id='a6c45d85'/>
      <return type-id='a6c45d85'/>
    </function-decl>
    <function-decl name='erfl' filepath='/usr/include/x86_64-linux-gnu/bits/mathcalls.h' line='249' column='1' visibility='default' binding='global' size-in-bits='64'>
      <parameter type-id='e095c704'/>
      <return type-id='e095c704'/>
    </function-decl>
    <function-decl name='erfc' filepath='/usr/include/x86_64-linux-gnu/bits/mathcalls.h' line='250' column='1' visibility='default' binding='global' size-in-bits='64'>
      <parameter type-id='a0eb0f08'/>
      <return type-id='a0eb0f08'/>
    </function-decl>
    <function-decl name='erfcf' filepath='/usr/include/x86_64-linux-gnu/bits/mathcalls.h' line='250' column='1' visibility='default' binding='global' size-in-bits='64'>
      <parameter type-id='a6c45d85'/>
      <return type-id='a6c45d85'/>
    </function-decl>
    <function-decl name='erfcl' filepath='/usr/include/x86_64-linux-gnu/bits/mathcalls.h' line='250' column='1' visibility='default' binding='global' size-in-bits='64'>
      <parameter type-id='e095c704'/>
      <return type-id='e095c704'/>
    </function-decl>
    <function-decl name='lgamma' filepath='/usr/include/x86_64-linux-gnu/bits/mathcalls.h' line='251' column='1' visibility='default' binding='global' size-in-bits='64'>
      <parameter type-id='a0eb0f08'/>
      <return type-id='a0eb0f08'/>
    </function-decl>
    <function-decl name='lgammaf' filepath='/usr/include/x86_64-linux-gnu/bits/mathcalls.h' line='251' column='1' visibility='default' binding='global' size-in-bits='64'>
      <parameter type-id='a6c45d85'/>
      <return type-id='a6c45d85'/>
    </function-decl>
    <function-decl name='lgammal' filepath='/usr/include/x86_64-linux-gnu/bits/mathcalls.h' line='251' column='1' visibility='default' binding='global' size-in-bits='64'>
      <parameter type-id='e095c704'/>
      <return type-id='e095c704'/>
    </function-decl>
    <function-decl name='tgamma' filepath='/usr/include/x86_64-linux-gnu/bits/mathcalls.h' line='258' column='1' visibility='default' binding='global' size-in-bits='64'>
      <parameter type-id='a0eb0f08'/>
      <return type-id='a0eb0f08'/>
    </function-decl>
    <function-decl name='tgammaf' filepath='/usr/include/x86_64-linux-gnu/bits/mathcalls.h' line='258' column='1' visibility='default' binding='global' size-in-bits='64'>
      <parameter type-id='a6c45d85'/>
      <return type-id='a6c45d85'/>
    </function-decl>
    <function-decl name='tgammal' filepath='/usr/include/x86_64-linux-gnu/bits/mathcalls.h' line='258' column='1' visibility='default' binding='global' size-in-bits='64'>
      <parameter type-id='e095c704'/>
      <return type-id='e095c704'/>
    </function-decl>
    <function-decl name='rint' filepath='/usr/include/x86_64-linux-gnu/bits/mathcalls.h' line='279' column='1' visibility='default' binding='global' size-in-bits='64'>
      <parameter type-id='a0eb0f08'/>
      <return type-id='a0eb0f08'/>
    </function-decl>
    <function-decl name='rintf' filepath='/usr/include/x86_64-linux-gnu/bits/mathcalls.h' line='279' column='1' visibility='default' binding='global' size-in-bits='64'>
      <parameter type-id='a6c45d85'/>
      <return type-id='a6c45d85'/>
    </function-decl>
    <function-decl name='rintl' filepath='/usr/include/x86_64-linux-gnu/bits/mathcalls.h' line='279' column='1' visibility='default' binding='global' size-in-bits='64'>
      <parameter type-id='e095c704'/>
      <return type-id='e095c704'/>
    </function-decl>
    <function-decl name='nextafter' filepath='/usr/include/x86_64-linux-gnu/bits/mathcalls.h' line='282' column='1' visibility='default' binding='global' size-in-bits='64'>
      <parameter type-id='a0eb0f08'/>
      <parameter type-id='a0eb0f08'/>
      <return type-id='a0eb0f08'/>
    </function-decl>
    <function-decl name='nextafterf' filepath='/usr/include/x86_64-linux-gnu/bits/mathcalls.h' line='282' column='1' visibility='default' binding='global' size-in-bits='64'>
      <parameter type-id='a6c45d85'/>
      <parameter type-id='a6c45d85'/>
      <return type-id='a6c45d85'/>
    </function-decl>
    <function-decl name='nextafterl' filepath='/usr/include/x86_64-linux-gnu/bits/mathcalls.h' line='282' column='1' visibility='default' binding='global' size-in-bits='64'>
      <parameter type-id='e095c704'/>
      <parameter type-id='e095c704'/>
      <return type-id='e095c704'/>
    </function-decl>
    <function-decl name='nexttoward' filepath='/usr/include/x86_64-linux-gnu/bits/mathcalls.h' line='284' column='1' visibility='default' binding='global' size-in-bits='64'>
      <parameter type-id='a0eb0f08'/>
      <parameter type-id='e095c704'/>
      <return type-id='a0eb0f08'/>
    </function-decl>
    <function-decl name='nexttowardf' filepath='/usr/include/x86_64-linux-gnu/bits/mathcalls.h' line='284' column='1' visibility='default' binding='global' size-in-bits='64'>
      <parameter type-id='a6c45d85'/>
      <parameter type-id='e095c704'/>
      <return type-id='a6c45d85'/>
    </function-decl>
    <function-decl name='nexttowardl' filepath='/usr/include/x86_64-linux-gnu/bits/mathcalls.h' line='284' column='1' visibility='default' binding='global' size-in-bits='64'>
      <parameter type-id='e095c704'/>
      <parameter type-id='e095c704'/>
      <return type-id='e095c704'/>
    </function-decl>
    <function-decl name='remainder' filepath='/usr/include/x86_64-linux-gnu/bits/mathcalls.h' line='288' column='1' visibility='default' binding='global' size-in-bits='64'>
      <parameter type-id='a0eb0f08'/>
      <parameter type-id='a0eb0f08'/>
      <return type-id='a0eb0f08'/>
    </function-decl>
    <function-decl name='remainderf' filepath='/usr/include/x86_64-linux-gnu/bits/mathcalls.h' line='288' column='1' visibility='default' binding='global' size-in-bits='64'>
      <parameter type-id='a6c45d85'/>
      <parameter type-id='a6c45d85'/>
      <return type-id='a6c45d85'/>
    </function-decl>
    <function-decl name='remainderl' filepath='/usr/include/x86_64-linux-gnu/bits/mathcalls.h' line='288' column='1' visibility='default' binding='global' size-in-bits='64'>
      <parameter type-id='e095c704'/>
      <parameter type-id='e095c704'/>
      <return type-id='e095c704'/>
    </function-decl>
    <function-decl name='scalbn' filepath='/usr/include/x86_64-linux-gnu/bits/mathcalls.h' line='292' column='1' visibility='default' binding='global' size-in-bits='64'>
      <parameter type-id='a0eb0f08'/>
      <parameter type-id='95e97e5e'/>
      <return type-id='a0eb0f08'/>
    </function-decl>
    <function-decl name='scalbnf' filepath='/usr/include/x86_64-linux-gnu/bits/mathcalls.h' line='292' column='1' visibility='default' binding='global' size-in-bits='64'>
      <parameter type-id='a6c45d85'/>
      <parameter type-id='95e97e5e'/>
      <return type-id='a6c45d85'/>
    </function-decl>
    <function-decl name='scalbnl' filepath='/usr/include/x86_64-linux-gnu/bits/mathcalls.h' line='292' column='1' visibility='default' binding='global' size-in-bits='64'>
      <parameter type-id='e095c704'/>
      <parameter type-id='95e97e5e'/>
      <return type-id='e095c704'/>
    </function-decl>
    <function-decl name='ilogb' filepath='/usr/include/x86_64-linux-gnu/bits/mathcalls.h' line='296' column='1' visibility='default' binding='global' size-in-bits='64'>
      <parameter type-id='a0eb0f08'/>
      <return type-id='95e97e5e'/>
    </function-decl>
    <function-decl name='ilogbf' filepath='/usr/include/x86_64-linux-gnu/bits/mathcalls.h' line='296' column='1' visibility='default' binding='global' size-in-bits='64'>
      <parameter type-id='a6c45d85'/>
      <return type-id='95e97e5e'/>
    </function-decl>
    <function-decl name='ilogbl' filepath='/usr/include/x86_64-linux-gnu/bits/mathcalls.h' line='296' column='1' visibility='default' binding='global' size-in-bits='64'>
      <parameter type-id='e095c704'/>
      <return type-id='95e97e5e'/>
    </function-decl>
    <function-decl name='scalbln' filepath='/usr/include/x86_64-linux-gnu/bits/mathcalls.h' line='301' column='1' visibility='default' binding='global' size-in-bits='64'>
      <parameter type-id='a0eb0f08'/>
      <parameter type-id='bd54fe1a'/>
      <return type-id='a0eb0f08'/>
    </function-decl>
    <function-decl name='scalblnf' filepath='/usr/include/x86_64-linux-gnu/bits/mathcalls.h' line='301' column='1' visibility='default' binding='global' size-in-bits='64'>
      <parameter type-id='a6c45d85'/>
      <parameter type-id='bd54fe1a'/>
      <return type-id='a6c45d85'/>
    </function-decl>
    <function-decl name='scalblnl' filepath='/usr/include/x86_64-linux-gnu/bits/mathcalls.h' line='301' column='1' visibility='default' binding='global' size-in-bits='64'>
      <parameter type-id='e095c704'/>
      <parameter type-id='bd54fe1a'/>
      <return type-id='e095c704'/>
    </function-decl>
    <function-decl name='nearbyint' filepath='/usr/include/x86_64-linux-gnu/bits/mathcalls.h' line='305' column='1' visibility='default' binding='global' size-in-bits='64'>
      <parameter type-id='a0eb0f08'/>
      <return type-id='a0eb0f08'/>
    </function-decl>
    <function-decl name='nearbyintf' filepath='/usr/include/x86_64-linux-gnu/bits/mathcalls.h' line='305' column='1' visibility='default' binding='global' size-in-bits='64'>
      <parameter type-id='a6c45d85'/>
      <return type-id='a6c45d85'/>
    </function-decl>
    <function-decl name='nearbyintl' filepath='/usr/include/x86_64-linux-gnu/bits/mathcalls.h' line='305' column='1' visibility='default' binding='global' size-in-bits='64'>
      <parameter type-id='e095c704'/>
      <return type-id='e095c704'/>
    </function-decl>
    <function-decl name='round' filepath='/usr/include/x86_64-linux-gnu/bits/mathcalls.h' line='309' column='1' visibility='default' binding='global' size-in-bits='64'>
      <parameter type-id='a0eb0f08'/>
      <return type-id='a0eb0f08'/>
    </function-decl>
    <function-decl name='roundf' filepath='/usr/include/x86_64-linux-gnu/bits/mathcalls.h' line='309' column='1' visibility='default' binding='global' size-in-bits='64'>
      <parameter type-id='a6c45d85'/>
      <return type-id='a6c45d85'/>
    </function-decl>
    <function-decl name='roundl' filepath='/usr/include/x86_64-linux-gnu/bits/mathcalls.h' line='309' column='1' visibility='default' binding='global' size-in-bits='64'>
      <parameter type-id='e095c704'/>
      <return type-id='e095c704'/>
    </function-decl>
    <function-decl name='trunc' filepath='/usr/include/x86_64-linux-gnu/bits/mathcalls.h' line='313' column='1' visibility='default' binding='global' size-in-bits='64'>
      <parameter type-id='a0eb0f08'/>
      <return type-id='a0eb0f08'/>
    </function-decl>
    <function-decl name='truncf' filepath='/usr/include/x86_64-linux-gnu/bits/mathcalls.h' line='313' column='1' visibility='default' binding='global' size-in-bits='64'>
      <parameter type-id='a6c45d85'/>
      <return type-id='a6c45d85'/>
    </function-decl>
    <function-decl name='truncl' filepath='/usr/include/x86_64-linux-gnu/bits/mathcalls.h' line='313' column='1' visibility='default' binding='global' size-in-bits='64'>
      <parameter type-id='e095c704'/>
      <return type-id='e095c704'/>
    </function-decl>
    <function-decl name='remquo' filepath='/usr/include/x86_64-linux-gnu/bits/mathcalls.h' line='318' column='1' visibility='default' binding='global' size-in-bits='64'>
      <parameter type-id='a0eb0f08'/>
      <parameter type-id='a0eb0f08'/>
      <parameter type-id='7292109c'/>
      <return type-id='a0eb0f08'/>
    </function-decl>
    <function-decl name='remquof' filepath='/usr/include/x86_64-linux-gnu/bits/mathcalls.h' line='318' column='1' visibility='default' binding='global' size-in-bits='64'>
      <parameter type-id='a6c45d85'/>
      <parameter type-id='a6c45d85'/>
      <parameter type-id='7292109c'/>
      <return type-id='a6c45d85'/>
    </function-decl>
    <function-decl name='remquol' filepath='/usr/include/x86_64-linux-gnu/bits/mathcalls.h' line='318' column='1' visibility='default' binding='global' size-in-bits='64'>
      <parameter type-id='e095c704'/>
      <parameter type-id='e095c704'/>
      <parameter type-id='7292109c'/>
      <return type-id='e095c704'/>
    </function-decl>
    <function-decl name='lrint' filepath='/usr/include/x86_64-linux-gnu/bits/mathcalls.h' line='325' column='1' visibility='default' binding='global' size-in-bits='64'>
      <parameter type-id='a0eb0f08'/>
      <return type-id='bd54fe1a'/>
    </function-decl>
    <function-decl name='lrintf' filepath='/usr/include/x86_64-linux-gnu/bits/mathcalls.h' line='325' column='1' visibility='default' binding='global' size-in-bits='64'>
      <parameter type-id='a6c45d85'/>
      <return type-id='bd54fe1a'/>
    </function-decl>
    <function-decl name='lrintl' filepath='/usr/include/x86_64-linux-gnu/bits/mathcalls.h' line='325' column='1' visibility='default' binding='global' size-in-bits='64'>
      <parameter type-id='e095c704'/>
      <return type-id='bd54fe1a'/>
    </function-decl>
    <function-decl name='llrint' filepath='/usr/include/x86_64-linux-gnu/bits/mathcalls.h' line='327' column='1' visibility='default' binding='global' size-in-bits='64'>
      <parameter type-id='a0eb0f08'/>
      <return type-id='1eb56b1e'/>
    </function-decl>
    <function-decl name='llrintf' filepath='/usr/include/x86_64-linux-gnu/bits/mathcalls.h' line='327' column='1' visibility='default' binding='global' size-in-bits='64'>
      <parameter type-id='a6c45d85'/>
      <return type-id='1eb56b1e'/>
    </function-decl>
    <function-decl name='llrintl' filepath='/usr/include/x86_64-linux-gnu/bits/mathcalls.h' line='327' column='1' visibility='default' binding='global' size-in-bits='64'>
      <parameter type-id='e095c704'/>
      <return type-id='1eb56b1e'/>
    </function-decl>
    <function-decl name='lround' filepath='/usr/include/x86_64-linux-gnu/bits/mathcalls.h' line='331' column='1' visibility='default' binding='global' size-in-bits='64'>
      <parameter type-id='a0eb0f08'/>
      <return type-id='bd54fe1a'/>
    </function-decl>
    <function-decl name='lroundf' filepath='/usr/include/x86_64-linux-gnu/bits/mathcalls.h' line='331' column='1' visibility='default' binding='global' size-in-bits='64'>
      <parameter type-id='a6c45d85'/>
      <return type-id='bd54fe1a'/>
    </function-decl>
    <function-decl name='lroundl' filepath='/usr/include/x86_64-linux-gnu/bits/mathcalls.h' line='331' column='1' visibility='default' binding='global' size-in-bits='64'>
      <parameter type-id='e095c704'/>
      <return type-id='bd54fe1a'/>
    </function-decl>
    <function-decl name='llround' filepath='/usr/include/x86_64-linux-gnu/bits/mathcalls.h' line='333' column='1' visibility='default' binding='global' size-in-bits='64'>
      <parameter type-id='a0eb0f08'/>
      <return type-id='1eb56b1e'/>
    </function-decl>
    <function-decl name='llroundf' filepath='/usr/include/x86_64-linux-gnu/bits/mathcalls.h' line='333' column='1' visibility='default' binding='global' size-in-bits='64'>
      <parameter type-id='a6c45d85'/>
      <return type-id='1eb56b1e'/>
    </function-decl>
    <function-decl name='llroundl' filepath='/usr/include/x86_64-linux-gnu/bits/mathcalls.h' line='333' column='1' visibility='default' binding='global' size-in-bits='64'>
      <parameter type-id='e095c704'/>
      <return type-id='1eb56b1e'/>
    </function-decl>
    <function-decl name='fdim' filepath='/usr/include/x86_64-linux-gnu/bits/mathcalls.h' line='337' column='1' visibility='default' binding='global' size-in-bits='64'>
      <parameter type-id='a0eb0f08'/>
      <parameter type-id='a0eb0f08'/>
      <return type-id='a0eb0f08'/>
    </function-decl>
    <function-decl name='fdimf' filepath='/usr/include/x86_64-linux-gnu/bits/mathcalls.h' line='337' column='1' visibility='default' binding='global' size-in-bits='64'>
      <parameter type-id='a6c45d85'/>
      <parameter type-id='a6c45d85'/>
      <return type-id='a6c45d85'/>
    </function-decl>
    <function-decl name='fdiml' filepath='/usr/include/x86_64-linux-gnu/bits/mathcalls.h' line='337' column='1' visibility='default' binding='global' size-in-bits='64'>
      <parameter type-id='e095c704'/>
      <parameter type-id='e095c704'/>
      <return type-id='e095c704'/>
    </function-decl>
    <function-decl name='fmax' filepath='/usr/include/x86_64-linux-gnu/bits/mathcalls.h' line='340' column='1' visibility='default' binding='global' size-in-bits='64'>
      <parameter type-id='a0eb0f08'/>
      <parameter type-id='a0eb0f08'/>
      <return type-id='a0eb0f08'/>
    </function-decl>
    <function-decl name='fmaxf' filepath='/usr/include/x86_64-linux-gnu/bits/mathcalls.h' line='340' column='1' visibility='default' binding='global' size-in-bits='64'>
      <parameter type-id='a6c45d85'/>
      <parameter type-id='a6c45d85'/>
      <return type-id='a6c45d85'/>
    </function-decl>
    <function-decl name='fmaxl' filepath='/usr/include/x86_64-linux-gnu/bits/mathcalls.h' line='340' column='1' visibility='default' binding='global' size-in-bits='64'>
      <parameter type-id='e095c704'/>
      <parameter type-id='e095c704'/>
      <return type-id='e095c704'/>
    </function-decl>
    <function-decl name='fmin' filepath='/usr/include/x86_64-linux-gnu/bits/mathcalls.h' line='343' column='1' visibility='default' binding='global' size-in-bits='64'>
      <parameter type-id='a0eb0f08'/>
      <parameter type-id='a0eb0f08'/>
      <return type-id='a0eb0f08'/>
    </function-decl>
    <function-decl name='fminf' filepath='/usr/include/x86_64-linux-gnu/bits/mathcalls.h' line='343' column='1' visibility='default' binding='global' size-in-bits='64'>
      <parameter type-id='a6c45d85'/>
      <parameter type-id='a6c45d85'/>
      <return type-id='a6c45d85'/>
    </function-decl>
    <function-decl name='fminl' filepath='/usr/include/x86_64-linux-gnu/bits/mathcalls.h' line='343' column='1' visibility='default' binding='global' size-in-bits='64'>
      <parameter type-id='e095c704'/>
      <parameter type-id='e095c704'/>
      <return type-id='e095c704'/>
    </function-decl>
    <function-decl name='fma' filepath='/usr/include/x86_64-linux-gnu/bits/mathcalls.h' line='356' column='1' visibility='default' binding='global' size-in-bits='64'>
      <parameter type-id='a0eb0f08'/>
      <parameter type-id='a0eb0f08'/>
      <parameter type-id='a0eb0f08'/>
      <return type-id='a0eb0f08'/>
    </function-decl>
    <function-decl name='fmaf' filepath='/usr/include/x86_64-linux-gnu/bits/mathcalls.h' line='356' column='1' visibility='default' binding='global' size-in-bits='64'>
      <parameter type-id='a6c45d85'/>
      <parameter type-id='a6c45d85'/>
      <parameter type-id='a6c45d85'/>
      <return type-id='a6c45d85'/>
    </function-decl>
    <function-decl name='fmal' filepath='/usr/include/x86_64-linux-gnu/bits/mathcalls.h' line='356' column='1' visibility='default' binding='global' size-in-bits='64'>
      <parameter type-id='e095c704'/>
      <parameter type-id='e095c704'/>
      <parameter type-id='e095c704'/>
      <return type-id='e095c704'/>
    </function-decl>
    <namespace-decl name='boost'>
      <class-decl name='enable_if_c&lt;true, boost::filesystem::path &amp;&gt;' size-in-bits='8' is-struct='yes' visibility='default' filepath='src/third_party/boost-1.56.0/boost/core/enable_if.hpp' line='28' column='1' id='5eacf1e2'>
        <member-type access='public'>
          <typedef-decl name='type' type-id='a35f2e3a' filepath='src/third_party/boost-1.56.0/boost/core/enable_if.hpp' line='29' column='1' id='73d6b1cd'/>
        </member-type>
      </class-decl>
      <class-decl name='iterator_core_access' size-in-bits='8' visibility='default' filepath='src/third_party/boost-1.56.0/boost/iterator/iterator_facade.hpp' line='469' column='1' id='a82a06bf'>
        <member-function access='private' constructor='yes'>
          <function-decl name='iterator_core_access' filepath='src/third_party/boost-1.56.0/boost/iterator/iterator_facade.hpp' line='578' column='1' visibility='default' binding='global' size-in-bits='64'>
            <parameter type-id='041c1d87' is-artificial='yes'/>
            <return type-id='48b5725f'/>
          </function-decl>
        </member-function>
        <member-function access='private' static='yes'>
          <function-decl name='dereference&lt;boost::filesystem::path::iterator&gt;' mangled-name='_ZN5boost20iterator_core_access11dereferenceINS_10filesystem4path8iteratorEEENT_9referenceERKS5_' filepath='src/third_party/boost-1.56.0/boost/iterator/iterator_facade.hpp' line='512' column='1' visibility='default' binding='global' size-in-bits='64' elf-symbol-id='_ZN5boost20iterator_core_access11dereferenceINS_10filesystem4path8iteratorEEENT_9referenceERKS5_'>
            <parameter type-id='c331d99d'/>
            <return type-id='fc627876'/>
          </function-decl>
        </member-function>
        <member-function access='private' static='yes'>
          <function-decl name='increment&lt;boost::filesystem::path::iterator&gt;' mangled-name='_ZN5boost20iterator_core_access9incrementINS_10filesystem4path8iteratorEEEvRT_' filepath='src/third_party/boost-1.56.0/boost/iterator/iterator_facade.hpp' line='518' column='1' visibility='default' binding='global' size-in-bits='64' elf-symbol-id='_ZN5boost20iterator_core_access9incrementINS_10filesystem4path8iteratorEEEvRT_'>
            <parameter type-id='f95cd698'/>
            <return type-id='48b5725f'/>
          </function-decl>
        </member-function>
        <member-function access='private' static='yes'>
          <function-decl name='equal&lt;boost::filesystem::path::iterator, boost::filesystem::path::iterator&gt;' mangled-name='_ZN5boost20iterator_core_access5equalINS_10filesystem4path8iteratorES4_EEbRKT_RKT0_N4mpl_5bool_ILb1EEE' filepath='src/third_party/boost-1.56.0/boost/iterator/iterator_facade.hpp' line='530' column='1' visibility='default' binding='global' size-in-bits='64' elf-symbol-id='_ZN5boost20iterator_core_access5equalINS_10filesystem4path8iteratorES4_EEbRKT_RKT0_N4mpl_5bool_ILb1EEE'>
            <parameter type-id='c331d99d'/>
            <parameter type-id='c331d99d'/>
            <parameter type-id='27cfcd09'/>
            <return type-id='c894953d'/>
          </function-decl>
        </member-function>
        <member-function access='private' static='yes'>
          <function-decl name='increment&lt;boost::filesystem::directory_iterator&gt;' mangled-name='_ZN5boost20iterator_core_access9incrementINS_10filesystem18directory_iteratorEEEvRT_' filepath='src/third_party/boost-1.56.0/boost/iterator/iterator_facade.hpp' line='518' column='1' visibility='default' binding='global' size-in-bits='64' elf-symbol-id='_ZN5boost20iterator_core_access9incrementINS_10filesystem18directory_iteratorEEEvRT_'>
            <parameter type-id='7db6f765'/>
            <return type-id='48b5725f'/>
          </function-decl>
        </member-function>
        <member-function access='private' static='yes'>
          <function-decl name='dereference&lt;boost::filesystem::directory_iterator&gt;' mangled-name='_ZN5boost20iterator_core_access11dereferenceINS_10filesystem18directory_iteratorEEENT_9referenceERKS4_' filepath='src/third_party/boost-1.56.0/boost/iterator/iterator_facade.hpp' line='512' column='1' visibility='default' binding='global' size-in-bits='64' elf-symbol-id='_ZN5boost20iterator_core_access11dereferenceINS_10filesystem18directory_iteratorEEENT_9referenceERKS4_'>
            <parameter type-id='ec41b9c4'/>
            <return type-id='ca4e0ece'/>
          </function-decl>
        </member-function>
        <member-function access='private' static='yes'>
          <function-decl name='equal&lt;boost::filesystem::directory_iterator, boost::filesystem::directory_iterator&gt;' mangled-name='_ZN5boost20iterator_core_access5equalINS_10filesystem18directory_iteratorES3_EEbRKT_RKT0_N4mpl_5bool_ILb1EEE' filepath='src/third_party/boost-1.56.0/boost/iterator/iterator_facade.hpp' line='530' column='1' visibility='default' binding='global' size-in-bits='64' elf-symbol-id='_ZN5boost20iterator_core_access5equalINS_10filesystem18directory_iteratorES3_EEbRKT_RKT0_N4mpl_5bool_ILb1EEE'>
            <parameter type-id='ec41b9c4'/>
            <parameter type-id='ec41b9c4'/>
            <parameter type-id='27cfcd09'/>
            <return type-id='c894953d'/>
          </function-decl>
        </member-function>
        <member-function access='private' static='yes'>
          <function-decl name='decrement&lt;boost::filesystem::path::iterator&gt;' mangled-name='_ZN5boost20iterator_core_access9decrementINS_10filesystem4path8iteratorEEEvRT_' filepath='src/third_party/boost-1.56.0/boost/iterator/iterator_facade.hpp' line='524' column='1' visibility='default' binding='global' size-in-bits='64' elf-symbol-id='_ZN5boost20iterator_core_access9decrementINS_10filesystem4path8iteratorEEEvRT_'>
            <parameter type-id='f95cd698'/>
            <return type-id='48b5725f'/>
          </function-decl>
        </member-function>
      </class-decl>
      <class-decl name='iterator_facade&lt;boost::filesystem::directory_iterator, boost::filesystem::directory_entry, boost::single_pass_traversal_tag, boost::filesystem::directory_entry &amp;, long&gt;' size-in-bits='8' visibility='default' filepath='src/third_party/boost-1.56.0/boost/iterator/iterator_facade.hpp' line='592' column='1' id='c7238b02'>
        <member-type access='private'>
          <typedef-decl name='reference' type-id='717c50e9' filepath='src/third_party/boost-1.56.0/boost/iterator/iterator_facade.hpp' line='630' column='1' id='ca4e0ece'/>
        </member-type>
        <member-type access='private'>
          <typedef-decl name='difference_type' type-id='bd54fe1a' filepath='src/third_party/boost-1.56.0/boost/iterator/iterator_facade.hpp' line='631' column='1' id='044eb5d3'/>
        </member-type>
        <member-type access='private'>
          <typedef-decl name='pointer' type-id='bc989bb1' filepath='src/third_party/boost-1.56.0/boost/iterator/iterator_facade.hpp' line='633' column='1' id='9951abfe'/>
        </member-type>
        <member-function access='public'>
          <function-decl name='operator-&gt;' mangled-name='_ZNK5boost15iterator_facadeINS_10filesystem18directory_iteratorENS1_15directory_entryENS_25single_pass_traversal_tagERS3_lEptEv' filepath='src/third_party/boost-1.56.0/boost/iterator/iterator_facade.hpp' line='642' column='1' visibility='default' binding='global' size-in-bits='64' elf-symbol-id='_ZNK5boost15iterator_facadeINS_10filesystem18directory_iteratorENS1_15directory_entryENS_25single_pass_traversal_tagERS3_lEptEv'>
            <parameter type-id='3fe3e4b1' is-artificial='yes'/>
            <return type-id='9951abfe'/>
          </function-decl>
        </member-function>
        <member-function access='public'>
          <function-decl name='operator++' mangled-name='_ZN5boost15iterator_facadeINS_10filesystem18directory_iteratorENS1_15directory_entryENS_25single_pass_traversal_tagERS3_lEppEv' filepath='src/third_party/boost-1.56.0/boost/iterator/iterator_facade.hpp' line='658' column='1' visibility='default' binding='global' size-in-bits='64' elf-symbol-id='_ZN5boost15iterator_facadeINS_10filesystem18directory_iteratorENS1_15directory_entryENS_25single_pass_traversal_tagERS3_lEppEv'>
            <parameter type-id='36a59550' is-artificial='yes'/>
            <return type-id='7db6f765'/>
          </function-decl>
        </member-function>
        <member-function access='private'>
          <function-decl name='derived' mangled-name='_ZN5boost15iterator_facadeINS_10filesystem18directory_iteratorENS1_15directory_entryENS_25single_pass_traversal_tagERS3_lE7derivedEv' filepath='src/third_party/boost-1.56.0/boost/iterator/iterator_facade.hpp' line='604' column='1' visibility='default' binding='global' size-in-bits='64' elf-symbol-id='_ZN5boost15iterator_facadeINS_10filesystem18directory_iteratorENS1_15directory_entryENS_25single_pass_traversal_tagERS3_lE7derivedEv'>
            <parameter type-id='36a59550' is-artificial='yes'/>
            <return type-id='7db6f765'/>
          </function-decl>
        </member-function>
        <member-function access='private'>
          <function-decl name='derived' mangled-name='_ZNK5boost15iterator_facadeINS_10filesystem18directory_iteratorENS1_15directory_entryENS_25single_pass_traversal_tagERS3_lE7derivedEv' filepath='src/third_party/boost-1.56.0/boost/iterator/iterator_facade.hpp' line='609' column='1' visibility='default' binding='global' size-in-bits='64' elf-symbol-id='_ZNK5boost15iterator_facadeINS_10filesystem18directory_iteratorENS1_15directory_entryENS_25single_pass_traversal_tagERS3_lE7derivedEv'>
            <parameter type-id='3fe3e4b1' is-artificial='yes'/>
            <return type-id='ec41b9c4'/>
          </function-decl>
        </member-function>
        <member-function access='public'>
          <function-decl name='operator*' mangled-name='_ZNK5boost15iterator_facadeINS_10filesystem18directory_iteratorENS1_15directory_entryENS_25single_pass_traversal_tagERS3_lEdeEv' filepath='src/third_party/boost-1.56.0/boost/iterator/iterator_facade.hpp' line='637' column='1' visibility='default' binding='global' size-in-bits='64' elf-symbol-id='_ZNK5boost15iterator_facadeINS_10filesystem18directory_iteratorENS1_15directory_entryENS_25single_pass_traversal_tagERS3_lEdeEv'>
            <parameter type-id='3fe3e4b1' is-artificial='yes'/>
            <return type-id='ca4e0ece'/>
          </function-decl>
        </member-function>
      </class-decl>
      <class-decl name='iterator_facade&lt;boost::filesystem::path::iterator, const boost::filesystem::path, boost::bidirectional_traversal_tag, const boost::filesystem::path &amp;, long&gt;' size-in-bits='8' visibility='default' filepath='src/third_party/boost-1.56.0/boost/iterator/iterator_facade.hpp' line='592' column='1' id='c14c8f62'>
        <member-type access='private'>
          <typedef-decl name='reference' type-id='b6693e9f' filepath='src/third_party/boost-1.56.0/boost/iterator/iterator_facade.hpp' line='630' column='1' id='fc627876'/>
        </member-type>
        <member-type access='private'>
          <typedef-decl name='difference_type' type-id='bd54fe1a' filepath='src/third_party/boost-1.56.0/boost/iterator/iterator_facade.hpp' line='631' column='1' id='560fe7cb'/>
        </member-type>
        <member-type access='private'>
          <typedef-decl name='pointer' type-id='666d9f01' filepath='src/third_party/boost-1.56.0/boost/iterator/iterator_facade.hpp' line='633' column='1' id='d5d1cb86'/>
        </member-type>
        <member-function access='public'>
          <function-decl name='operator*' mangled-name='_ZNK5boost15iterator_facadeINS_10filesystem4path8iteratorEKS2_NS_27bidirectional_traversal_tagERS4_lEdeEv' filepath='src/third_party/boost-1.56.0/boost/iterator/iterator_facade.hpp' line='637' column='1' visibility='default' binding='global' size-in-bits='64' elf-symbol-id='_ZNK5boost15iterator_facadeINS_10filesystem4path8iteratorEKS2_NS_27bidirectional_traversal_tagERS4_lEdeEv'>
            <parameter type-id='7542b359' is-artificial='yes'/>
            <return type-id='fc627876'/>
          </function-decl>
        </member-function>
        <member-function access='public'>
          <function-decl name='operator++' mangled-name='_ZN5boost15iterator_facadeINS_10filesystem4path8iteratorEKS2_NS_27bidirectional_traversal_tagERS4_lEppEv' filepath='src/third_party/boost-1.56.0/boost/iterator/iterator_facade.hpp' line='658' column='1' visibility='default' binding='global' size-in-bits='64' elf-symbol-id='_ZN5boost15iterator_facadeINS_10filesystem4path8iteratorEKS2_NS_27bidirectional_traversal_tagERS4_lEppEv'>
            <parameter type-id='57ef8a20' is-artificial='yes'/>
            <return type-id='f95cd698'/>
          </function-decl>
        </member-function>
        <member-function access='private'>
          <function-decl name='derived' mangled-name='_ZNK5boost15iterator_facadeINS_10filesystem4path8iteratorEKS2_NS_27bidirectional_traversal_tagERS4_lE7derivedEv' filepath='src/third_party/boost-1.56.0/boost/iterator/iterator_facade.hpp' line='609' column='1' visibility='default' binding='global' size-in-bits='64' elf-symbol-id='_ZNK5boost15iterator_facadeINS_10filesystem4path8iteratorEKS2_NS_27bidirectional_traversal_tagERS4_lE7derivedEv'>
            <parameter type-id='7542b359' is-artificial='yes'/>
            <return type-id='c331d99d'/>
          </function-decl>
        </member-function>
        <member-function access='private'>
          <function-decl name='derived' mangled-name='_ZN5boost15iterator_facadeINS_10filesystem4path8iteratorEKS2_NS_27bidirectional_traversal_tagERS4_lE7derivedEv' filepath='src/third_party/boost-1.56.0/boost/iterator/iterator_facade.hpp' line='604' column='1' visibility='default' binding='global' size-in-bits='64' elf-symbol-id='_ZN5boost15iterator_facadeINS_10filesystem4path8iteratorEKS2_NS_27bidirectional_traversal_tagERS4_lE7derivedEv'>
            <parameter type-id='57ef8a20' is-artificial='yes'/>
            <return type-id='f95cd698'/>
          </function-decl>
        </member-function>
        <member-function access='public'>
          <function-decl name='operator--' mangled-name='_ZN5boost15iterator_facadeINS_10filesystem4path8iteratorEKS2_NS_27bidirectional_traversal_tagERS4_lEmmEi' filepath='src/third_party/boost-1.56.0/boost/iterator/iterator_facade.hpp' line='681' column='1' visibility='default' binding='global' size-in-bits='64' elf-symbol-id='_ZN5boost15iterator_facadeINS_10filesystem4path8iteratorEKS2_NS_27bidirectional_traversal_tagERS4_lEmmEi'>
            <parameter type-id='57ef8a20' is-artificial='yes'/>
            <parameter type-id='95e97e5e'/>
            <return type-id='05fd92d6'/>
          </function-decl>
        </member-function>
        <member-function access='public'>
          <function-decl name='operator-&gt;' mangled-name='_ZNK5boost15iterator_facadeINS_10filesystem4path8iteratorEKS2_NS_27bidirectional_traversal_tagERS4_lEptEv' filepath='src/third_party/boost-1.56.0/boost/iterator/iterator_facade.hpp' line='642' column='1' visibility='default' binding='global' size-in-bits='64' elf-symbol-id='_ZNK5boost15iterator_facadeINS_10filesystem4path8iteratorEKS2_NS_27bidirectional_traversal_tagERS4_lEptEv'>
            <parameter type-id='7542b359' is-artificial='yes'/>
            <return type-id='d5d1cb86'/>
          </function-decl>
        </member-function>
        <member-function access='public'>
          <function-decl name='operator--' mangled-name='_ZN5boost15iterator_facadeINS_10filesystem4path8iteratorEKS2_NS_27bidirectional_traversal_tagERS4_lEmmEv' filepath='src/third_party/boost-1.56.0/boost/iterator/iterator_facade.hpp' line='675' column='1' visibility='default' binding='global' size-in-bits='64' elf-symbol-id='_ZN5boost15iterator_facadeINS_10filesystem4path8iteratorEKS2_NS_27bidirectional_traversal_tagERS4_lEmmEv'>
            <parameter type-id='57ef8a20' is-artificial='yes'/>
            <return type-id='f95cd698'/>
          </function-decl>
        </member-function>
      </class-decl>
      <class-decl name='scoped_array&lt;char&gt;' size-in-bits='64' visibility='default' filepath='src/third_party/boost-1.56.0/boost/smart_ptr/scoped_array.hpp' line='39' column='1' id='d31f84ec'>
        <data-member access='private' layout-offset-in-bits='0'>
          <var-decl name='px' type-id='26a90f95' visibility='default' filepath='src/third_party/boost-1.56.0/boost/smart_ptr/scoped_array.hpp' line='43' column='1'/>
        </data-member>
        <member-function access='private'>
          <function-decl name='scoped_array' filepath='src/third_party/boost-1.56.0/boost/smart_ptr/scoped_array.hpp' line='45' column='1' visibility='default' binding='global' size-in-bits='64'>
            <parameter type-id='e40100fa' is-artificial='yes'/>
            <parameter type-id='15a465e7'/>
            <return type-id='48b5725f'/>
          </function-decl>
        </member-function>
        <member-function access='public'>
          <function-decl name='scoped_array' mangled-name='_ZN5boost12scoped_arrayIcEC2EPc' filepath='src/third_party/boost-1.56.0/boost/smart_ptr/scoped_array.hpp' line='57' column='1' visibility='default' binding='global' size-in-bits='64' elf-symbol-id='_ZN5boost12scoped_arrayIcEC2EPc'>
            <parameter type-id='e40100fa' is-artificial='yes'/>
            <parameter type-id='26a90f95'/>
            <return type-id='48b5725f'/>
          </function-decl>
        </member-function>
        <member-function access='public' destructor='yes'>
          <function-decl name='~scoped_array' mangled-name='_ZN5boost12scoped_arrayIcED2Ev' filepath='src/third_party/boost-1.56.0/boost/smart_ptr/scoped_array.hpp' line='64' column='1' visibility='default' binding='global' size-in-bits='64' elf-symbol-id='_ZN5boost12scoped_arrayIcED2Ev'>
            <parameter type-id='e40100fa' is-artificial='yes'/>
            <return type-id='48b5725f'/>
          </function-decl>
        </member-function>
        <member-function access='public'>
          <function-decl name='get' mangled-name='_ZNK5boost12scoped_arrayIcE3getEv' filepath='src/third_party/boost-1.56.0/boost/smart_ptr/scoped_array.hpp' line='85' column='1' visibility='default' binding='global' size-in-bits='64' elf-symbol-id='_ZNK5boost12scoped_arrayIcE3getEv'>
            <parameter type-id='09a45303' is-artificial='yes'/>
            <return type-id='26a90f95'/>
          </function-decl>
        </member-function>
      </class-decl>
      <class-decl name='shared_ptr&lt;boost::filesystem::detail::dir_itr_imp&gt;' size-in-bits='128' visibility='default' filepath='src/third_party/boost-1.56.0/boost/smart_ptr/shared_ptr.hpp' line='323' column='1' id='bfcaa66b'>
        <member-type access='private'>
          <typedef-decl name='element_type' type-id='616ea405' filepath='src/third_party/boost-1.56.0/boost/smart_ptr/shared_ptr.hpp' line='332' column='1' id='4fd28aad'/>
        </member-type>
        <data-member access='private' layout-offset-in-bits='0'>
          <var-decl name='px' type-id='5512e67c' visibility='default' filepath='src/third_party/boost-1.56.0/boost/smart_ptr/shared_ptr.hpp' line='723' column='1'/>
        </data-member>
        <data-member access='private' layout-offset-in-bits='64'>
          <var-decl name='pn' type-id='6f9adacc' visibility='default' filepath='src/third_party/boost-1.56.0/boost/smart_ptr/shared_ptr.hpp' line='724' column='1'/>
        </data-member>
        <member-function access='public'>
          <function-decl name='shared_ptr' mangled-name='_ZN5boost10shared_ptrINS_10filesystem6detail11dir_itr_impEEC2Ev' filepath='src/third_party/boost-1.56.0/boost/smart_ptr/shared_ptr.hpp' line='334' column='1' visibility='default' binding='global' size-in-bits='64' elf-symbol-id='_ZN5boost10shared_ptrINS_10filesystem6detail11dir_itr_impEEC2Ev'>
            <parameter type-id='80010d5b' is-artificial='yes'/>
            <return type-id='48b5725f'/>
          </function-decl>
        </member-function>
        <member-function access='public'>
          <function-decl name='shared_ptr' filepath='src/third_party/boost-1.56.0/boost/smart_ptr/shared_ptr.hpp' line='392' column='1' visibility='default' binding='global' size-in-bits='64'>
            <parameter type-id='80010d5b' is-artificial='yes'/>
            <parameter type-id='58ec38a6'/>
            <return type-id='48b5725f'/>
          </function-decl>
        </member-function>
        <member-function access='public'>
          <function-decl name='shared_ptr' filepath='src/third_party/boost-1.56.0/boost/smart_ptr/shared_ptr.hpp' line='563' column='1' visibility='default' binding='global' size-in-bits='64'>
            <parameter type-id='80010d5b' is-artificial='yes'/>
            <parameter type-id='5e9e458b'/>
            <return type-id='48b5725f'/>
          </function-decl>
        </member-function>
        <member-function access='public' constructor='yes'>
          <function-decl name='shared_ptr&lt;boost::filesystem::detail::dir_itr_imp&gt;' mangled-name='_ZN5boost10shared_ptrINS_10filesystem6detail11dir_itr_impEEC2IS3_EEPT_' filepath='src/third_party/boost-1.56.0/boost/smart_ptr/shared_ptr.hpp' line='347' column='1' visibility='default' binding='global' size-in-bits='64' elf-symbol-id='_ZN5boost10shared_ptrINS_10filesystem6detail11dir_itr_impEEC2IS3_EEPT_'>
            <parameter type-id='80010d5b' is-artificial='yes'/>
            <parameter type-id='07f93bcc'/>
            <return type-id='48b5725f'/>
          </function-decl>
        </member-function>
        <member-function access='public'>
          <function-decl name='operator-&gt;' mangled-name='_ZNK5boost10shared_ptrINS_10filesystem6detail11dir_itr_impEEptEv' filepath='src/third_party/boost-1.56.0/boost/smart_ptr/shared_ptr.hpp' line='646' column='1' visibility='default' binding='global' size-in-bits='64' elf-symbol-id='_ZNK5boost10shared_ptrINS_10filesystem6detail11dir_itr_impEEptEv'>
            <parameter type-id='64ec4b8a' is-artificial='yes'/>
            <return type-id='3c9b3798'/>
          </function-decl>
        </member-function>
        <member-function access='public'>
          <function-decl name='reset' mangled-name='_ZN5boost10shared_ptrINS_10filesystem6detail11dir_itr_impEE5resetEv' filepath='src/third_party/boost-1.56.0/boost/smart_ptr/shared_ptr.hpp' line='612' column='1' visibility='default' binding='global' size-in-bits='64' elf-symbol-id='_ZN5boost10shared_ptrINS_10filesystem6detail11dir_itr_impEE5resetEv'>
            <parameter type-id='80010d5b' is-artificial='yes'/>
            <return type-id='48b5725f'/>
          </function-decl>
        </member-function>
        <member-function access='public'>
          <function-decl name='get' mangled-name='_ZNK5boost10shared_ptrINS_10filesystem6detail11dir_itr_impEE3getEv' filepath='src/third_party/boost-1.56.0/boost/smart_ptr/shared_ptr.hpp' line='661' column='1' visibility='default' binding='global' size-in-bits='64' elf-symbol-id='_ZNK5boost10shared_ptrINS_10filesystem6detail11dir_itr_impEE3getEv'>
            <parameter type-id='64ec4b8a' is-artificial='yes'/>
            <return type-id='5512e67c'/>
          </function-decl>
        </member-function>
        <member-function access='public'>
          <function-decl name='swap' mangled-name='_ZN5boost10shared_ptrINS_10filesystem6detail11dir_itr_impEE4swapERS4_' filepath='src/third_party/boost-1.56.0/boost/smart_ptr/shared_ptr.hpp' line='679' column='1' visibility='default' binding='global' size-in-bits='64' elf-symbol-id='_ZN5boost10shared_ptrINS_10filesystem6detail11dir_itr_impEE4swapERS4_'>
            <parameter type-id='80010d5b' is-artificial='yes'/>
            <parameter type-id='7c01070f'/>
            <return type-id='48b5725f'/>
          </function-decl>
        </member-function>
      </class-decl>
      <class-decl name='shared_ptr&lt;boost::filesystem::filesystem_error::m_imp&gt;' size-in-bits='128' visibility='default' filepath='src/third_party/boost-1.56.0/boost/smart_ptr/shared_ptr.hpp' line='323' column='1' id='c1b5e11e'>
        <member-type access='private'>
          <typedef-decl name='element_type' type-id='21e98370' filepath='src/third_party/boost-1.56.0/boost/smart_ptr/shared_ptr.hpp' line='332' column='1' id='d2c2d048'/>
        </member-type>
        <data-member access='private' layout-offset-in-bits='0'>
          <var-decl name='px' type-id='3351498f' visibility='default' filepath='src/third_party/boost-1.56.0/boost/smart_ptr/shared_ptr.hpp' line='723' column='1'/>
        </data-member>
        <data-member access='private' layout-offset-in-bits='64'>
          <var-decl name='pn' type-id='6f9adacc' visibility='default' filepath='src/third_party/boost-1.56.0/boost/smart_ptr/shared_ptr.hpp' line='724' column='1'/>
        </data-member>
        <member-function access='public'>
          <function-decl name='shared_ptr' mangled-name='_ZN5boost10shared_ptrINS_10filesystem16filesystem_error5m_impEEC2Ev' filepath='src/third_party/boost-1.56.0/boost/smart_ptr/shared_ptr.hpp' line='334' column='1' visibility='default' binding='global' size-in-bits='64' elf-symbol-id='_ZN5boost10shared_ptrINS_10filesystem16filesystem_error5m_impEEC2Ev'>
            <parameter type-id='f54a1684' is-artificial='yes'/>
            <return type-id='48b5725f'/>
          </function-decl>
        </member-function>
        <member-function access='public'>
          <function-decl name='shared_ptr' filepath='src/third_party/boost-1.56.0/boost/smart_ptr/shared_ptr.hpp' line='392' column='1' visibility='default' binding='global' size-in-bits='64'>
            <parameter type-id='f54a1684' is-artificial='yes'/>
            <parameter type-id='d750d0f1'/>
            <return type-id='48b5725f'/>
          </function-decl>
        </member-function>
        <member-function access='public'>
          <function-decl name='shared_ptr' filepath='src/third_party/boost-1.56.0/boost/smart_ptr/shared_ptr.hpp' line='563' column='1' visibility='default' binding='global' size-in-bits='64'>
            <parameter type-id='f54a1684' is-artificial='yes'/>
            <parameter type-id='c5838bf2'/>
            <return type-id='48b5725f'/>
          </function-decl>
        </member-function>
        <member-function access='public' constructor='yes'>
          <function-decl name='shared_ptr&lt;boost::filesystem::filesystem_error::m_imp&gt;' mangled-name='_ZN5boost10shared_ptrINS_10filesystem16filesystem_error5m_impEEC2IS3_EEPT_' filepath='src/third_party/boost-1.56.0/boost/smart_ptr/shared_ptr.hpp' line='347' column='1' visibility='default' binding='global' size-in-bits='64' elf-symbol-id='_ZN5boost10shared_ptrINS_10filesystem16filesystem_error5m_impEEC2IS3_EEPT_'>
            <parameter type-id='f54a1684' is-artificial='yes'/>
            <parameter type-id='261a48bd'/>
            <return type-id='48b5725f'/>
          </function-decl>
        </member-function>
        <member-function access='public'>
          <function-decl name='reset&lt;boost::filesystem::filesystem_error::m_imp&gt;' mangled-name='_ZN5boost10shared_ptrINS_10filesystem16filesystem_error5m_impEE5resetIS3_EEvPT_' filepath='src/third_party/boost-1.56.0/boost/smart_ptr/shared_ptr.hpp' line='617' column='1' visibility='default' binding='global' size-in-bits='64' elf-symbol-id='_ZN5boost10shared_ptrINS_10filesystem16filesystem_error5m_impEE5resetIS3_EEvPT_'>
            <parameter type-id='f54a1684' is-artificial='yes'/>
            <parameter type-id='261a48bd'/>
            <return type-id='48b5725f'/>
          </function-decl>
        </member-function>
        <member-function access='public'>
          <function-decl name='reset' mangled-name='_ZN5boost10shared_ptrINS_10filesystem16filesystem_error5m_impEE5resetEv' filepath='src/third_party/boost-1.56.0/boost/smart_ptr/shared_ptr.hpp' line='612' column='1' visibility='default' binding='global' size-in-bits='64' elf-symbol-id='_ZN5boost10shared_ptrINS_10filesystem16filesystem_error5m_impEE5resetEv'>
            <parameter type-id='f54a1684' is-artificial='yes'/>
            <return type-id='48b5725f'/>
          </function-decl>
        </member-function>
        <member-function access='public'>
          <function-decl name='get' mangled-name='_ZNK5boost10shared_ptrINS_10filesystem16filesystem_error5m_impEE3getEv' filepath='src/third_party/boost-1.56.0/boost/smart_ptr/shared_ptr.hpp' line='661' column='1' visibility='default' binding='global' size-in-bits='64' elf-symbol-id='_ZNK5boost10shared_ptrINS_10filesystem16filesystem_error5m_impEE3getEv'>
            <parameter type-id='d350caa5' is-artificial='yes'/>
            <return type-id='3351498f'/>
          </function-decl>
        </member-function>
        <member-function access='public'>
          <function-decl name='operator-&gt;' mangled-name='_ZNK5boost10shared_ptrINS_10filesystem16filesystem_error5m_impEEptEv' filepath='src/third_party/boost-1.56.0/boost/smart_ptr/shared_ptr.hpp' line='646' column='1' visibility='default' binding='global' size-in-bits='64' elf-symbol-id='_ZNK5boost10shared_ptrINS_10filesystem16filesystem_error5m_impEEptEv'>
            <parameter type-id='d350caa5' is-artificial='yes'/>
            <return type-id='9a1a0665'/>
          </function-decl>
        </member-function>
        <member-function access='public'>
          <function-decl name='swap' mangled-name='_ZN5boost10shared_ptrINS_10filesystem16filesystem_error5m_impEE4swapERS4_' filepath='src/third_party/boost-1.56.0/boost/smart_ptr/shared_ptr.hpp' line='679' column='1' visibility='default' binding='global' size-in-bits='64' elf-symbol-id='_ZN5boost10shared_ptrINS_10filesystem16filesystem_error5m_impEE4swapERS4_'>
            <parameter type-id='f54a1684' is-artificial='yes'/>
            <parameter type-id='e94a03a0'/>
            <return type-id='48b5725f'/>
          </function-decl>
        </member-function>
      </class-decl>
      <function-decl name='checked_delete&lt;boost::filesystem::detail::dir_itr_imp&gt;' mangled-name='_ZN5boost14checked_deleteINS_10filesystem6detail11dir_itr_impEEEvPT_' filepath='src/third_party/boost-1.56.0/boost/core/checked_delete.hpp' line='29' column='1' visibility='default' binding='global' size-in-bits='64' elf-symbol-id='_ZN5boost14checked_deleteINS_10filesystem6detail11dir_itr_impEEEvPT_'>
        <parameter type-id='07f93bcc' name='x' filepath='src/third_party/boost-1.56.0/boost/core/checked_delete.hpp' line='29' column='1'/>
        <return type-id='48b5725f'/>
      </function-decl>
      <function-decl name='checked_delete&lt;boost::filesystem::filesystem_error::m_imp&gt;' mangled-name='_ZN5boost14checked_deleteINS_10filesystem16filesystem_error5m_impEEEvPT_' filepath='src/third_party/boost-1.56.0/boost/core/checked_delete.hpp' line='29' column='1' visibility='default' binding='global' size-in-bits='64' elf-symbol-id='_ZN5boost14checked_deleteINS_10filesystem16filesystem_error5m_impEEEvPT_'>
        <parameter type-id='261a48bd' name='x' filepath='src/third_party/boost-1.56.0/boost/core/checked_delete.hpp' line='29' column='1'/>
        <return type-id='48b5725f'/>
      </function-decl>
      <function-decl name='checked_array_delete&lt;char&gt;' mangled-name='_ZN5boost20checked_array_deleteIcEEvPT_' filepath='src/third_party/boost-1.56.0/boost/core/checked_delete.hpp' line='37' column='1' visibility='default' binding='global' size-in-bits='64' elf-symbol-id='_ZN5boost20checked_array_deleteIcEEvPT_'>
        <parameter type-id='26a90f95' name='x' filepath='src/third_party/boost-1.56.0/boost/core/checked_delete.hpp' line='37' column='1'/>
        <return type-id='48b5725f'/>
      </function-decl>
      <namespace-decl name='core'>
        <typedef-decl name='typeinfo' type-id='8f2b8067' filepath='src/third_party/boost-1.56.0/boost/core/typeinfo.hpp' line='134' column='1' id='e8b195dc'/>
      </namespace-decl>
      <namespace-decl name='filesystem'>
        <class-decl name='filesystem_error' size-in-bits='448' visibility='default' filepath='src/third_party/boost-1.56.0/boost/filesystem/operations.hpp' line='64' column='1' id='c8580081'>
          <base-class access='public' layout-offset-in-bits='0' type-id='a02f3699'/>
          <member-type access='private'>
            <class-decl name='m_imp' size-in-bits='192' is-struct='yes' visibility='default' filepath='src/third_party/boost-1.56.0/boost/filesystem/operations.hpp' line='159' column='1' id='48ea06ad'>
              <data-member access='public' layout-offset-in-bits='0'>
                <var-decl name='m_path1' type-id='20b2cca0' visibility='default' filepath='src/third_party/boost-1.56.0/boost/filesystem/operations.hpp' line='161' column='1'/>
              </data-member>
              <data-member access='public' layout-offset-in-bits='64'>
                <var-decl name='m_path2' type-id='20b2cca0' visibility='default' filepath='src/third_party/boost-1.56.0/boost/filesystem/operations.hpp' line='162' column='1'/>
              </data-member>
              <data-member access='public' layout-offset-in-bits='128'>
                <var-decl name='m_what' type-id='4a30a7f0' visibility='default' filepath='src/third_party/boost-1.56.0/boost/filesystem/operations.hpp' line='163' column='1'/>
              </data-member>
            </class-decl>
          </member-type>
          <data-member access='private' layout-offset-in-bits='320'>
            <var-decl name='m_imp_ptr' type-id='c1b5e11e' visibility='default' filepath='src/third_party/boost-1.56.0/boost/filesystem/operations.hpp' line='165' column='1'/>
          </data-member>
          <member-function access='public' constructor='yes'>
            <function-decl name='filesystem_error' mangled-name='_ZN5boost10filesystem16filesystem_errorC2ERKSsNS_6system10error_codeE' filepath='src/third_party/boost-1.56.0/boost/filesystem/operations.hpp' line='76' column='1' visibility='default' binding='global' size-in-bits='64' elf-symbol-id='_ZN5boost10filesystem16filesystem_errorC2ERKSsNS_6system10error_codeE'>
              <parameter type-id='b7ffbbd9' is-artificial='yes'/>
              <parameter type-id='13a9aa92'/>
              <parameter type-id='4dca76f3'/>
              <return type-id='48b5725f'/>
            </function-decl>
          </member-function>
          <member-function access='public' constructor='yes'>
            <function-decl name='filesystem_error' mangled-name='_ZN5boost10filesystem16filesystem_errorC2ERKSsRKNS0_4pathENS_6system10error_codeE' filepath='src/third_party/boost-1.56.0/boost/filesystem/operations.hpp' line='87' column='1' visibility='default' binding='global' size-in-bits='64' elf-symbol-id='_ZN5boost10filesystem16filesystem_errorC2ERKSsRKNS0_4pathENS_6system10error_codeE'>
              <parameter type-id='b7ffbbd9' is-artificial='yes'/>
              <parameter type-id='13a9aa92'/>
              <parameter type-id='b6693e9f'/>
              <parameter type-id='4dca76f3'/>
              <return type-id='48b5725f'/>
            </function-decl>
          </member-function>
          <member-function access='public' constructor='yes'>
            <function-decl name='filesystem_error' mangled-name='_ZN5boost10filesystem16filesystem_errorC2ERKSsRKNS0_4pathES6_NS_6system10error_codeE' filepath='src/third_party/boost-1.56.0/boost/filesystem/operations.hpp' line='100' column='1' visibility='default' binding='global' size-in-bits='64' elf-symbol-id='_ZN5boost10filesystem16filesystem_errorC2ERKSsRKNS0_4pathES6_NS_6system10error_codeE'>
              <parameter type-id='b7ffbbd9' is-artificial='yes'/>
              <parameter type-id='13a9aa92'/>
              <parameter type-id='b6693e9f'/>
              <parameter type-id='b6693e9f'/>
              <parameter type-id='4dca76f3'/>
              <return type-id='48b5725f'/>
            </function-decl>
          </member-function>
          <member-function access='public' destructor='yes' vtable-offset='0'>
            <function-decl name='~filesystem_error' mangled-name='_ZN5boost10filesystem16filesystem_errorD0Ev' filepath='src/third_party/boost-1.56.0/boost/filesystem/operations.hpp' line='114' column='1' visibility='default' binding='global' size-in-bits='64' elf-symbol-id='_ZN5boost10filesystem16filesystem_errorD2Ev'>
              <parameter type-id='b7ffbbd9' is-artificial='yes'/>
              <return type-id='48b5725f'/>
            </function-decl>
          </member-function>
          <member-function access='public' vtable-offset='2'>
            <function-decl name='what' mangled-name='_ZNK5boost10filesystem16filesystem_error4whatEv' filepath='src/third_party/boost-1.56.0/boost/filesystem/operations.hpp' line='127' column='1' visibility='default' binding='global' size-in-bits='64' elf-symbol-id='_ZNK5boost10filesystem16filesystem_error4whatEv'>
              <parameter type-id='f08ce9c0' is-artificial='yes'/>
              <return type-id='80f4b756'/>
            </function-decl>
          </member-function>
        </class-decl>
        <enum-decl name='file_type' filepath='src/third_party/boost-1.56.0/boost/filesystem/operations.hpp' line='172' column='1' id='d2e04cbb'>
          <underlying-type type-id='9cac1fee'/>
          <enumerator name='status_error' value='0'/>
          <enumerator name='status_unknown' value='0'/>
          <enumerator name='file_not_found' value='1'/>
          <enumerator name='regular_file' value='2'/>
          <enumerator name='directory_file' value='3'/>
          <enumerator name='symlink_file' value='4'/>
          <enumerator name='block_file' value='5'/>
          <enumerator name='character_file' value='6'/>
          <enumerator name='fifo_file' value='7'/>
          <enumerator name='socket_file' value='8'/>
          <enumerator name='reparse_file' value='9'/>
          <enumerator name='type_unknown' value='10'/>
          <enumerator name='_detail_directory_symlink' value='11'/>
        </enum-decl>
        <enum-decl name='perms' filepath='src/third_party/boost-1.56.0/boost/filesystem/operations.hpp' line='198' column='1' id='09981dcf'>
          <underlying-type type-id='9cac1fee'/>
          <enumerator name='no_perms' value='0'/>
          <enumerator name='owner_read' value='256'/>
          <enumerator name='owner_write' value='128'/>
          <enumerator name='owner_exe' value='64'/>
          <enumerator name='owner_all' value='448'/>
          <enumerator name='group_read' value='32'/>
          <enumerator name='group_write' value='16'/>
          <enumerator name='group_exe' value='8'/>
          <enumerator name='group_all' value='56'/>
          <enumerator name='others_read' value='4'/>
          <enumerator name='others_write' value='2'/>
          <enumerator name='others_exe' value='1'/>
          <enumerator name='others_all' value='7'/>
          <enumerator name='all_all' value='511'/>
          <enumerator name='set_uid_on_exe' value='2048'/>
          <enumerator name='set_gid_on_exe' value='1024'/>
          <enumerator name='sticky_bit' value='512'/>
          <enumerator name='perms_mask' value='4095'/>
          <enumerator name='perms_not_known' value='65535'/>
          <enumerator name='add_perms' value='4096'/>
          <enumerator name='remove_perms' value='8192'/>
          <enumerator name='symlink_perms' value='16384'/>
        </enum-decl>
        <class-decl name='file_status' size-in-bits='64' visibility='default' filepath='src/third_party/boost-1.56.0/boost/filesystem/operations.hpp' line='256' column='1' id='3703986c'>
          <data-member access='private' layout-offset-in-bits='0'>
            <var-decl name='m_value' type-id='d2e04cbb' visibility='default' filepath='src/third_party/boost-1.56.0/boost/filesystem/operations.hpp' line='276' column='1'/>
          </data-member>
          <data-member access='private' layout-offset-in-bits='32'>
            <var-decl name='m_perms' type-id='09981dcf' visibility='default' filepath='src/third_party/boost-1.56.0/boost/filesystem/operations.hpp' line='277' column='1'/>
          </data-member>
          <member-function access='public' constructor='yes'>
            <function-decl name='file_status' mangled-name='_ZN5boost10filesystem11file_statusC2Ev' filepath='src/third_party/boost-1.56.0/boost/filesystem/operations.hpp' line='259' column='1' visibility='default' binding='global' size-in-bits='64' elf-symbol-id='_ZN5boost10filesystem11file_statusC2Ev'>
              <parameter type-id='383d9c9a' is-artificial='yes'/>
              <return type-id='48b5725f'/>
            </function-decl>
          </member-function>
          <member-function access='public' constructor='yes'>
            <function-decl name='file_status' mangled-name='_ZN5boost10filesystem11file_statusC2ENS0_9file_typeENS0_5permsE' filepath='src/third_party/boost-1.56.0/boost/filesystem/operations.hpp' line='260' column='1' visibility='default' binding='global' size-in-bits='64' elf-symbol-id='_ZN5boost10filesystem11file_statusC2ENS0_9file_typeENS0_5permsE'>
              <parameter type-id='383d9c9a' is-artificial='yes'/>
              <parameter type-id='d2e04cbb'/>
              <parameter type-id='09981dcf'/>
              <return type-id='48b5725f'/>
            </function-decl>
          </member-function>
          <member-function access='public'>
            <function-decl name='type' mangled-name='_ZNK5boost10filesystem11file_status4typeEv' filepath='src/third_party/boost-1.56.0/boost/filesystem/operations.hpp' line='264' column='1' visibility='default' binding='global' size-in-bits='64' elf-symbol-id='_ZNK5boost10filesystem11file_status4typeEv'>
              <parameter type-id='6a818a61' is-artificial='yes'/>
              <return type-id='d2e04cbb'/>
            </function-decl>
          </member-function>
          <member-function access='public'>
            <function-decl name='permissions' mangled-name='_ZNK5boost10filesystem11file_status11permissionsEv' filepath='src/third_party/boost-1.56.0/boost/filesystem/operations.hpp' line='265' column='1' visibility='default' binding='global' size-in-bits='64' elf-symbol-id='_ZNK5boost10filesystem11file_status11permissionsEv'>
              <parameter type-id='6a818a61' is-artificial='yes'/>
              <return type-id='09981dcf'/>
            </function-decl>
          </member-function>
        </class-decl>
        <class-decl name='space_info' size-in-bits='192' is-struct='yes' visibility='default' filepath='src/third_party/boost-1.56.0/boost/filesystem/operations.hpp' line='296' column='1' id='6d0de398'>
          <data-member access='public' layout-offset-in-bits='0'>
            <var-decl name='capacity' type-id='f8b828c9' visibility='default' filepath='src/third_party/boost-1.56.0/boost/filesystem/operations.hpp' line='299' column='1'/>
          </data-member>
          <data-member access='public' layout-offset-in-bits='64'>
            <var-decl name='free' type-id='f8b828c9' visibility='default' filepath='src/third_party/boost-1.56.0/boost/filesystem/operations.hpp' line='300' column='1'/>
          </data-member>
          <data-member access='public' layout-offset-in-bits='128'>
            <var-decl name='available' type-id='f8b828c9' visibility='default' filepath='src/third_party/boost-1.56.0/boost/filesystem/operations.hpp' line='301' column='1'/>
          </data-member>
        </class-decl>
        <enum-decl name='copy_option' filepath='src/third_party/boost-1.56.0/boost/filesystem/operations.hpp' line='304' column='1' id='1933c303'>
          <underlying-type type-id='9cac1fee'/>
          <enumerator name='none' value='0'/>
          <enumerator name='fail_if_exists' value='0'/>
          <enumerator name='overwrite_if_exists' value='1'/>
        </enum-decl>
        <class-decl name='directory_entry' size-in-bits='192' visibility='default' filepath='src/third_party/boost-1.56.0/boost/filesystem/operations.hpp' line='670' column='1' id='3cdb9c7d'>
          <data-member access='private' layout-offset-in-bits='0'>
            <var-decl name='m_path' type-id='20b2cca0' visibility='default' filepath='src/third_party/boost-1.56.0/boost/filesystem/operations.hpp' line='715' column='1'/>
          </data-member>
          <data-member access='private' layout-offset-in-bits='64'>
            <var-decl name='m_status' type-id='3703986c' visibility='default' filepath='src/third_party/boost-1.56.0/boost/filesystem/operations.hpp' line='716' column='1'/>
          </data-member>
          <data-member access='private' layout-offset-in-bits='128'>
            <var-decl name='m_symlink_status' type-id='3703986c' visibility='default' filepath='src/third_party/boost-1.56.0/boost/filesystem/operations.hpp' line='717' column='1'/>
          </data-member>
          <member-function access='public' constructor='yes'>
            <function-decl name='directory_entry' mangled-name='_ZN5boost10filesystem15directory_entryC2Ev' filepath='src/third_party/boost-1.56.0/boost/filesystem/operations.hpp' line='676' column='1' visibility='default' binding='global' size-in-bits='64' elf-symbol-id='_ZN5boost10filesystem15directory_entryC2Ev'>
              <parameter type-id='7d7c63cd' is-artificial='yes'/>
              <return type-id='48b5725f'/>
            </function-decl>
          </member-function>
          <member-function access='public' constructor='yes'>
            <function-decl name='directory_entry' filepath='src/third_party/boost-1.56.0/boost/filesystem/operations.hpp' line='677' column='1' visibility='default' binding='global' size-in-bits='64'>
              <parameter type-id='7d7c63cd' is-artificial='yes'/>
              <parameter type-id='b6693e9f'/>
              <parameter type-id='3703986c'/>
              <parameter type-id='3703986c'/>
              <return type-id='48b5725f'/>
            </function-decl>
          </member-function>
          <member-function access='private'>
            <function-decl name='m_get_status' mangled-name='_ZNK5boost10filesystem15directory_entry12m_get_statusEPNS_6system10error_codeE' filepath='src/third_party/boost-1.56.0/boost/filesystem/operations.hpp' line='719' column='1' visibility='default' binding='global' size-in-bits='64' elf-symbol-id='_ZNK5boost10filesystem15directory_entry12m_get_statusEPNS_6system10error_codeE'>
              <parameter type-id='ea71357a' is-artificial='yes'/>
              <parameter type-id='d142b053'/>
              <return type-id='3703986c'/>
            </function-decl>
          </member-function>
          <member-function access='private'>
            <function-decl name='m_get_symlink_status' mangled-name='_ZNK5boost10filesystem15directory_entry20m_get_symlink_statusEPNS_6system10error_codeE' filepath='src/third_party/boost-1.56.0/boost/filesystem/operations.hpp' line='720' column='1' visibility='default' binding='global' size-in-bits='64' elf-symbol-id='_ZNK5boost10filesystem15directory_entry20m_get_symlink_statusEPNS_6system10error_codeE'>
              <parameter type-id='ea71357a' is-artificial='yes'/>
              <parameter type-id='d142b053'/>
              <return type-id='3703986c'/>
            </function-decl>
          </member-function>
          <member-function access='public'>
            <function-decl name='path' mangled-name='_ZNK5boost10filesystem15directory_entry4pathEv' filepath='src/third_party/boost-1.56.0/boost/filesystem/operations.hpp' line='701' column='1' visibility='default' binding='global' size-in-bits='64' elf-symbol-id='_ZNK5boost10filesystem15directory_entry4pathEv'>
              <parameter type-id='ea71357a' is-artificial='yes'/>
              <return type-id='b6693e9f'/>
            </function-decl>
          </member-function>
          <member-function access='public'>
            <function-decl name='assign' mangled-name='_ZN5boost10filesystem15directory_entry6assignERKNS0_4pathENS0_11file_statusES5_' filepath='src/third_party/boost-1.56.0/boost/filesystem/operations.hpp' line='682' column='1' visibility='default' binding='global' size-in-bits='64' elf-symbol-id='_ZN5boost10filesystem15directory_entry6assignERKNS0_4pathENS0_11file_statusES5_'>
              <parameter type-id='7d7c63cd' is-artificial='yes'/>
              <parameter type-id='b6693e9f'/>
              <parameter type-id='3703986c'/>
              <parameter type-id='3703986c'/>
              <return type-id='48b5725f'/>
            </function-decl>
          </member-function>
          <member-function access='public'>
            <function-decl name='replace_filename' mangled-name='_ZN5boost10filesystem15directory_entry16replace_filenameERKNS0_4pathENS0_11file_statusES5_' filepath='src/third_party/boost-1.56.0/boost/filesystem/operations.hpp' line='686' column='1' visibility='default' binding='global' size-in-bits='64' elf-symbol-id='_ZN5boost10filesystem15directory_entry16replace_filenameERKNS0_4pathENS0_11file_statusES5_'>
              <parameter type-id='7d7c63cd' is-artificial='yes'/>
              <parameter type-id='b6693e9f'/>
              <parameter type-id='3703986c'/>
              <parameter type-id='3703986c'/>
              <return type-id='48b5725f'/>
            </function-decl>
          </member-function>
        </class-decl>
        <class-decl name='directory_iterator' size-in-bits='128' visibility='default' filepath='src/third_party/boost-1.56.0/boost/filesystem/operations.hpp' line='780' column='1' id='ddc4bf99'>
          <base-class access='public' layout-offset-in-bits='0' type-id='c7238b02'/>
          <data-member access='private' layout-offset-in-bits='0'>
            <var-decl name='m_imp' type-id='bfcaa66b' visibility='default' filepath='src/third_party/boost-1.56.0/boost/filesystem/operations.hpp' line='816' column='1'/>
          </data-member>
          <member-function access='public' constructor='yes'>
            <function-decl name='directory_iterator' mangled-name='_ZN5boost10filesystem18directory_iteratorC2Ev' filepath='src/third_party/boost-1.56.0/boost/filesystem/operations.hpp' line='787' column='1' visibility='default' binding='global' size-in-bits='64' elf-symbol-id='_ZN5boost10filesystem18directory_iteratorC2Ev'>
              <parameter type-id='81b6fdb1' is-artificial='yes'/>
              <return type-id='48b5725f'/>
            </function-decl>
          </member-function>
          <member-function access='public' constructor='yes'>
            <function-decl name='directory_iterator' mangled-name='_ZN5boost10filesystem18directory_iteratorC2ERKNS0_4pathE' filepath='src/third_party/boost-1.56.0/boost/filesystem/operations.hpp' line='791' column='1' visibility='default' binding='global' size-in-bits='64' elf-symbol-id='_ZN5boost10filesystem18directory_iteratorC2ERKNS0_4pathE'>
              <parameter type-id='81b6fdb1' is-artificial='yes'/>
              <parameter type-id='b6693e9f'/>
              <return type-id='48b5725f'/>
            </function-decl>
          </member-function>
          <member-function access='public' constructor='yes'>
            <function-decl name='directory_iterator' filepath='src/third_party/boost-1.56.0/boost/filesystem/operations.hpp' line='795' column='1' visibility='default' binding='global' size-in-bits='64'>
              <parameter type-id='81b6fdb1' is-artificial='yes'/>
              <parameter type-id='b6693e9f'/>
              <parameter type-id='dd42c337'/>
              <return type-id='48b5725f'/>
            </function-decl>
          </member-function>
          <member-function access='public' destructor='yes'>
            <function-decl name='~directory_iterator' mangled-name='_ZN5boost10filesystem18directory_iteratorD2Ev' filepath='src/third_party/boost-1.56.0/boost/filesystem/operations.hpp' line='799' column='1' visibility='default' binding='global' size-in-bits='64' elf-symbol-id='_ZN5boost10filesystem18directory_iteratorD2Ev'>
              <parameter type-id='81b6fdb1' is-artificial='yes'/>
              <return type-id='48b5725f'/>
            </function-decl>
          </member-function>
          <member-function access='public'>
            <function-decl name='increment' mangled-name='_ZN5boost10filesystem18directory_iterator9incrementERNS_6system10error_codeE' filepath='src/third_party/boost-1.56.0/boost/filesystem/operations.hpp' line='801' column='1' visibility='default' binding='global' size-in-bits='64' elf-symbol-id='_ZN5boost10filesystem18directory_iterator9incrementERNS_6system10error_codeE'>
              <parameter type-id='81b6fdb1' is-artificial='yes'/>
              <parameter type-id='dd42c337'/>
              <return type-id='7db6f765'/>
            </function-decl>
          </member-function>
          <member-function access='private'>
            <function-decl name='increment' mangled-name='_ZN5boost10filesystem18directory_iterator9incrementEv' filepath='src/third_party/boost-1.56.0/boost/filesystem/operations.hpp' line='829' column='1' visibility='default' binding='global' size-in-bits='64' elf-symbol-id='_ZN5boost10filesystem18directory_iterator9incrementEv'>
              <parameter type-id='81b6fdb1' is-artificial='yes'/>
              <return type-id='48b5725f'/>
            </function-decl>
          </member-function>
          <member-function access='private'>
            <function-decl name='dereference' mangled-name='_ZNK5boost10filesystem18directory_iterator11dereferenceEv' filepath='src/third_party/boost-1.56.0/boost/filesystem/operations.hpp' line='823' column='1' visibility='default' binding='global' size-in-bits='64' elf-symbol-id='_ZNK5boost10filesystem18directory_iterator11dereferenceEv'>
              <parameter type-id='e041a6e0' is-artificial='yes'/>
              <return type-id='ca4e0ece'/>
            </function-decl>
          </member-function>
          <member-function access='private'>
            <function-decl name='equal' mangled-name='_ZNK5boost10filesystem18directory_iterator5equalERKS1_' filepath='src/third_party/boost-1.56.0/boost/filesystem/operations.hpp' line='831' column='1' visibility='default' binding='global' size-in-bits='64' elf-symbol-id='_ZNK5boost10filesystem18directory_iterator5equalERKS1_'>
              <parameter type-id='e041a6e0' is-artificial='yes'/>
              <parameter type-id='ec41b9c4'/>
              <return type-id='c894953d'/>
            </function-decl>
          </member-function>
        </class-decl>
        <class-decl name='path' size-in-bits='64' visibility='default' filepath='src/third_party/boost-1.56.0/boost/filesystem/path.hpp' line='55' column='1' id='20b2cca0'>
          <member-type access='private'>
            <typedef-decl name='value_type' type-id='a84c031d' filepath='src/third_party/boost-1.56.0/boost/filesystem/path.hpp' line='66' column='1' id='889e7a85'/>
          </member-type>
          <member-type access='private'>
            <typedef-decl name='string_type' type-id='c2931f67' filepath='src/third_party/boost-1.56.0/boost/filesystem/path.hpp' line='69' column='1' id='31f5fac3'/>
          </member-type>
          <member-type access='private'>
            <typedef-decl name='codecvt_type' type-id='5bcbab0d' filepath='src/third_party/boost-1.56.0/boost/filesystem/path.hpp' line='71' column='1' id='f3d9f662'/>
          </member-type>
          <member-type access='private'>
            <class-decl name='iterator' size-in-bits='192' visibility='default' filepath='src/third_party/boost-1.56.0/boost/filesystem/path.hpp' line='569' column='1' id='05fd92d6'>
              <base-class access='public' layout-offset-in-bits='0' type-id='c14c8f62'/>
              <data-member access='private' layout-offset-in-bits='0'>
                <var-decl name='m_element' type-id='20b2cca0' visibility='default' filepath='src/third_party/boost-1.56.0/boost/filesystem/path.hpp' line='593' column='1'/>
              </data-member>
              <data-member access='private' layout-offset-in-bits='64'>
                <var-decl name='m_path_ptr' type-id='ba6944eb' visibility='default' filepath='src/third_party/boost-1.56.0/boost/filesystem/path.hpp' line='594' column='1'/>
              </data-member>
              <data-member access='private' layout-offset-in-bits='128'>
                <var-decl name='m_pos' type-id='4ababdf0' visibility='default' filepath='src/third_party/boost-1.56.0/boost/filesystem/path.hpp' line='595' column='1'/>
              </data-member>
              <member-function access='private'>
                <function-decl name='dereference' mangled-name='_ZNK5boost10filesystem4path8iterator11dereferenceEv' filepath='src/third_party/boost-1.56.0/boost/filesystem/path.hpp' line='581' column='1' visibility='default' binding='global' size-in-bits='64' elf-symbol-id='_ZNK5boost10filesystem4path8iterator11dereferenceEv'>
                  <parameter type-id='b731c6b9' is-artificial='yes'/>
                  <return type-id='b6693e9f'/>
                </function-decl>
              </member-function>
              <member-function access='private'>
                <function-decl name='increment' mangled-name='_ZN5boost10filesystem4path8iterator9incrementEv' filepath='src/third_party/boost-1.56.0/boost/filesystem/path.hpp' line='590' column='1' visibility='default' binding='global' size-in-bits='64' elf-symbol-id='_ZN5boost10filesystem4path8iterator9incrementEv'>
                  <parameter type-id='f55cd04c' is-artificial='yes'/>
                  <return type-id='48b5725f'/>
                </function-decl>
              </member-function>
              <member-function access='private'>
                <function-decl name='equal' mangled-name='_ZNK5boost10filesystem4path8iterator5equalERKS2_' filepath='src/third_party/boost-1.56.0/boost/filesystem/path.hpp' line='583' column='1' visibility='default' binding='global' size-in-bits='64' elf-symbol-id='_ZNK5boost10filesystem4path8iterator5equalERKS2_'>
                  <parameter type-id='b731c6b9' is-artificial='yes'/>
                  <parameter type-id='c331d99d'/>
                  <return type-id='c894953d'/>
                </function-decl>
              </member-function>
              <member-function access='private'>
                <function-decl name='decrement' mangled-name='_ZN5boost10filesystem4path8iterator9decrementEv' filepath='src/third_party/boost-1.56.0/boost/filesystem/path.hpp' line='591' column='1' visibility='default' binding='global' size-in-bits='64' elf-symbol-id='_ZN5boost10filesystem4path8iterator9decrementEv'>
                  <parameter type-id='f55cd04c' is-artificial='yes'/>
                  <return type-id='48b5725f'/>
                </function-decl>
              </member-function>
            </class-decl>
          </member-type>
          <data-member access='public' static='yes'>
            <var-decl name='preferred_separator' type-id='ad266875' visibility='default' filepath='src/third_party/boost-1.56.0/boost/filesystem/path.hpp' line='67' column='1'/>
          </data-member>
          <data-member access='private' layout-offset-in-bits='0'>
            <var-decl name='m_pathname' type-id='31f5fac3' visibility='default' filepath='src/third_party/boost-1.56.0/boost/filesystem/path.hpp' line='528' column='1'/>
          </data-member>
          <member-function access='public' constructor='yes'>
            <function-decl name='path' mangled-name='_ZN5boost10filesystem4pathC2Ev' filepath='src/third_party/boost-1.56.0/boost/filesystem/path.hpp' line='130' column='1' visibility='default' binding='global' size-in-bits='64' elf-symbol-id='_ZN5boost10filesystem4pathC2Ev'>
              <parameter type-id='975f1b56' is-artificial='yes'/>
              <return type-id='48b5725f'/>
            </function-decl>
          </member-function>
          <member-function access='public' constructor='yes'>
            <function-decl name='path' mangled-name='_ZN5boost10filesystem4pathC2ERKS1_' filepath='src/third_party/boost-1.56.0/boost/filesystem/path.hpp' line='132' column='1' visibility='default' binding='global' size-in-bits='64' elf-symbol-id='_ZN5boost10filesystem4pathC2ERKS1_'>
              <parameter type-id='975f1b56' is-artificial='yes'/>
              <parameter type-id='b6693e9f'/>
              <return type-id='48b5725f'/>
            </function-decl>
          </member-function>
          <member-function access='public' constructor='yes'>
            <function-decl name='path' mangled-name='_ZN5boost10filesystem4pathC2EPKc' filepath='src/third_party/boost-1.56.0/boost/filesystem/path.hpp' line='150' column='1' visibility='default' binding='global' size-in-bits='64' elf-symbol-id='_ZN5boost10filesystem4pathC2EPKc'>
              <parameter type-id='975f1b56' is-artificial='yes'/>
              <parameter type-id='f2764d8d'/>
              <return type-id='48b5725f'/>
            </function-decl>
          </member-function>
          <member-function access='public' constructor='yes'>
            <function-decl name='path' mangled-name='_ZN5boost10filesystem4pathC2ERKSs' filepath='src/third_party/boost-1.56.0/boost/filesystem/path.hpp' line='151' column='1' visibility='default' binding='global' size-in-bits='64' elf-symbol-id='_ZN5boost10filesystem4pathC2ERKSs'>
              <parameter type-id='975f1b56' is-artificial='yes'/>
              <parameter type-id='0d8dd23c'/>
              <return type-id='48b5725f'/>
            </function-decl>
          </member-function>
          <member-function access='public'>
            <function-decl name='is_absolute' mangled-name='_ZNK5boost10filesystem4path11is_absoluteEv' filepath='src/third_party/boost-1.56.0/boost/filesystem/path.hpp' line='450' column='1' visibility='default' binding='global' size-in-bits='64' elf-symbol-id='_ZNK5boost10filesystem4path11is_absoluteEv'>
              <parameter type-id='ba6944eb' is-artificial='yes'/>
              <return type-id='c894953d'/>
            </function-decl>
          </member-function>
          <member-function access='public'>
            <function-decl name='empty' mangled-name='_ZNK5boost10filesystem4path5emptyEv' filepath='src/third_party/boost-1.56.0/boost/filesystem/path.hpp' line='441' column='1' visibility='default' binding='global' size-in-bits='64' elf-symbol-id='_ZNK5boost10filesystem4path5emptyEv'>
              <parameter type-id='ba6944eb' is-artificial='yes'/>
              <return type-id='c894953d'/>
            </function-decl>
          </member-function>
          <member-function access='public'>
            <function-decl name='clear' mangled-name='_ZN5boost10filesystem4path5clearEv' filepath='src/third_party/boost-1.56.0/boost/filesystem/path.hpp' line='325' column='1' visibility='default' binding='global' size-in-bits='64' elf-symbol-id='_ZN5boost10filesystem4path5clearEv'>
              <parameter type-id='975f1b56' is-artificial='yes'/>
              <return type-id='48b5725f'/>
            </function-decl>
          </member-function>
          <member-function access='public'>
            <function-decl name='operator=' mangled-name='_ZN5boost10filesystem4pathaSERKS1_' filepath='src/third_party/boost-1.56.0/boost/filesystem/path.hpp' line='184' column='1' visibility='default' binding='global' size-in-bits='64' elf-symbol-id='_ZN5boost10filesystem4pathaSERKS1_'>
              <parameter type-id='975f1b56' is-artificial='yes'/>
              <parameter type-id='b6693e9f'/>
              <return type-id='a35f2e3a'/>
            </function-decl>
          </member-function>
          <member-function access='public'>
            <function-decl name='c_str' mangled-name='_ZNK5boost10filesystem4path5c_strEv' filepath='src/third_party/boost-1.56.0/boost/filesystem/path.hpp' line='358' column='1' visibility='default' binding='global' size-in-bits='64' elf-symbol-id='_ZNK5boost10filesystem4path5c_strEv'>
              <parameter type-id='ba6944eb' is-artificial='yes'/>
              <return type-id='f2764d8d'/>
            </function-decl>
          </member-function>
          <member-function access='public'>
            <function-decl name='operator=&lt;char *&gt;' mangled-name='_ZN5boost10filesystem4pathaSIPcEENS_9enable_ifINS0_11path_traits11is_pathableINS_5decayIT_E4typeEEERS1_E4typeERKS8_' filepath='src/third_party/boost-1.56.0/boost/filesystem/path.hpp' line='199' column='1' visibility='default' binding='global' size-in-bits='64' elf-symbol-id='_ZN5boost10filesystem4pathaSIPcEENS_9enable_ifINS0_11path_traits11is_pathableINS_5decayIT_E4typeEEERS1_E4typeERKS8_'>
              <parameter type-id='975f1b56' is-artificial='yes'/>
              <parameter type-id='ff1a0dc4'/>
              <return type-id='73d6b1cd'/>
            </function-decl>
          </member-function>
          <member-function access='public'>
            <function-decl name='assign&lt;char *&gt;' mangled-name='_ZN5boost10filesystem4path6assignIPcEERS1_T_S5_' filepath='src/third_party/boost-1.56.0/boost/filesystem/path.hpp' line='221' column='1' visibility='default' binding='global' size-in-bits='64' elf-symbol-id='_ZN5boost10filesystem4path6assignIPcEERS1_T_S5_'>
              <parameter type-id='975f1b56' is-artificial='yes'/>
              <parameter type-id='26a90f95'/>
              <parameter type-id='26a90f95'/>
              <return type-id='a35f2e3a'/>
            </function-decl>
          </member-function>
          <member-function access='public'>
            <function-decl name='native' mangled-name='_ZNK5boost10filesystem4path6nativeEv' filepath='src/third_party/boost-1.56.0/boost/filesystem/path.hpp' line='357' column='1' visibility='default' binding='global' size-in-bits='64' elf-symbol-id='_ZNK5boost10filesystem4path6nativeEv'>
              <parameter type-id='ba6944eb' is-artificial='yes'/>
              <return type-id='62549acf'/>
            </function-decl>
          </member-function>
          <member-function access='public'>
            <function-decl name='assign&lt;char *&gt;' mangled-name='_ZN5boost10filesystem4path6assignIPcEERS1_T_S5_RKSt7codecvtIwc11__mbstate_tE' filepath='src/third_party/boost-1.56.0/boost/filesystem/path.hpp' line='227' column='1' visibility='default' binding='global' size-in-bits='64' elf-symbol-id='_ZN5boost10filesystem4path6assignIPcEERS1_T_S5_RKSt7codecvtIwc11__mbstate_tE'>
              <parameter type-id='975f1b56' is-artificial='yes'/>
              <parameter type-id='26a90f95'/>
              <parameter type-id='26a90f95'/>
              <parameter type-id='2d3b121c'/>
              <return type-id='a35f2e3a'/>
            </function-decl>
          </member-function>
          <member-function access='public'>
            <function-decl name='string' mangled-name='_ZNK5boost10filesystem4path6stringEv' filepath='src/third_party/boost-1.56.0/boost/filesystem/path.hpp' line='383' column='1' visibility='default' binding='global' size-in-bits='64' elf-symbol-id='_ZNK5boost10filesystem4path6stringEv'>
              <parameter type-id='ba6944eb' is-artificial='yes'/>
              <return type-id='13a9aa92'/>
            </function-decl>
          </member-function>
          <member-function access='public'>
            <function-decl name='has_root_directory' mangled-name='_ZNK5boost10filesystem4path18has_root_directoryEv' filepath='src/third_party/boost-1.56.0/boost/filesystem/path.hpp' line='444' column='1' visibility='default' binding='global' size-in-bits='64' elf-symbol-id='_ZNK5boost10filesystem4path18has_root_directoryEv'>
              <parameter type-id='ba6944eb' is-artificial='yes'/>
              <return type-id='c894953d'/>
            </function-decl>
          </member-function>
          <member-function access='public'>
            <function-decl name='path&lt;const char *&gt;' mangled-name='_ZN5boost10filesystem4pathC2IPKcEET_S5_' filepath='src/third_party/boost-1.56.0/boost/filesystem/path.hpp' line='161' column='1' visibility='default' binding='global' size-in-bits='64' elf-symbol-id='_ZN5boost10filesystem4pathC2IPKcEET_S5_'>
              <parameter type-id='975f1b56' is-artificial='yes'/>
              <parameter type-id='80f4b756'/>
              <parameter type-id='80f4b756'/>
              <return type-id='48b5725f'/>
            </function-decl>
          </member-function>
          <member-function access='public'>
            <function-decl name='operator/=' mangled-name='_ZN5boost10filesystem4pathdVERKS1_' filepath='src/third_party/boost-1.56.0/boost/filesystem/path.hpp' line='293' column='1' visibility='default' binding='global' size-in-bits='64' elf-symbol-id='_ZN5boost10filesystem4pathdVERKS1_'>
              <parameter type-id='975f1b56' is-artificial='yes'/>
              <parameter type-id='b6693e9f'/>
              <return type-id='a35f2e3a'/>
            </function-decl>
          </member-function>
          <member-function access='private'>
            <function-decl name='m_append_separator_if_needed' mangled-name='_ZN5boost10filesystem4path28m_append_separator_if_neededEv' filepath='src/third_party/boost-1.56.0/boost/filesystem/path.hpp' line='534' column='1' visibility='default' binding='global' size-in-bits='64' elf-symbol-id='_ZN5boost10filesystem4path28m_append_separator_if_neededEv'>
              <parameter type-id='975f1b56' is-artificial='yes'/>
              <return type-id='4ababdf0'/>
            </function-decl>
          </member-function>
          <member-function access='public'>
            <function-decl name='operator/=' mangled-name='_ZN5boost10filesystem4pathdVEPKc' filepath='src/third_party/boost-1.56.0/boost/filesystem/path.hpp' line='295' column='1' visibility='default' binding='global' size-in-bits='64' elf-symbol-id='_ZN5boost10filesystem4pathdVEPKc'>
              <parameter type-id='975f1b56' is-artificial='yes'/>
              <parameter type-id='f2764d8d'/>
              <return type-id='a35f2e3a'/>
            </function-decl>
          </member-function>
          <member-function access='public'>
            <function-decl name='compare' mangled-name='_ZNK5boost10filesystem4path7compareERKS1_' filepath='src/third_party/boost-1.56.0/boost/filesystem/path.hpp' line='423' column='1' visibility='default' binding='global' size-in-bits='64' elf-symbol-id='_ZNK5boost10filesystem4path7compareERKS1_'>
              <parameter type-id='ba6944eb' is-artificial='yes'/>
              <parameter type-id='b6693e9f'/>
              <return type-id='95e97e5e'/>
            </function-decl>
          </member-function>
          <member-function access='public'>
            <function-decl name='begin' mangled-name='_ZNK5boost10filesystem4path5beginEv' filepath='src/third_party/boost-1.56.0/boost/filesystem/path.hpp' line='465' column='1' visibility='default' binding='global' size-in-bits='64' elf-symbol-id='_ZNK5boost10filesystem4path5beginEv'>
              <parameter type-id='ba6944eb' is-artificial='yes'/>
              <return type-id='05fd92d6'/>
            </function-decl>
          </member-function>
          <member-function access='public'>
            <function-decl name='end' mangled-name='_ZNK5boost10filesystem4path3endEv' filepath='src/third_party/boost-1.56.0/boost/filesystem/path.hpp' line='466' column='1' visibility='default' binding='global' size-in-bits='64' elf-symbol-id='_ZNK5boost10filesystem4path3endEv'>
              <parameter type-id='ba6944eb' is-artificial='yes'/>
              <return type-id='05fd92d6'/>
            </function-decl>
          </member-function>
          <member-function access='private'>
            <function-decl name='m_erase_redundant_separator' mangled-name='_ZN5boost10filesystem4path27m_erase_redundant_separatorEm' filepath='src/third_party/boost-1.56.0/boost/filesystem/path.hpp' line='538' column='1' visibility='default' binding='global' size-in-bits='64' elf-symbol-id='_ZN5boost10filesystem4path27m_erase_redundant_separatorEm'>
              <parameter type-id='975f1b56' is-artificial='yes'/>
              <parameter type-id='4ababdf0'/>
              <return type-id='48b5725f'/>
            </function-decl>
          </member-function>
          <member-function access='public'>
            <function-decl name='remove_filename' mangled-name='_ZN5boost10filesystem4path15remove_filenameEv' filepath='src/third_party/boost-1.56.0/boost/filesystem/path.hpp' line='332' column='1' visibility='default' binding='global' size-in-bits='64' elf-symbol-id='_ZN5boost10filesystem4path15remove_filenameEv'>
              <parameter type-id='975f1b56' is-artificial='yes'/>
              <return type-id='a35f2e3a'/>
            </function-decl>
          </member-function>
          <member-function access='private'>
            <function-decl name='m_parent_path_end' mangled-name='_ZNK5boost10filesystem4path17m_parent_path_endEv' filepath='src/third_party/boost-1.56.0/boost/filesystem/path.hpp' line='539' column='1' visibility='default' binding='global' size-in-bits='64' elf-symbol-id='_ZNK5boost10filesystem4path17m_parent_path_endEv'>
              <parameter type-id='ba6944eb' is-artificial='yes'/>
              <return type-id='4ababdf0'/>
            </function-decl>
          </member-function>
          <member-function access='public'>
            <function-decl name='replace_extension' mangled-name='_ZN5boost10filesystem4path17replace_extensionERKS1_' filepath='src/third_party/boost-1.56.0/boost/filesystem/path.hpp' line='333' column='1' visibility='default' binding='global' size-in-bits='64' elf-symbol-id='_ZN5boost10filesystem4path17replace_extensionERKS1_'>
              <parameter type-id='975f1b56' is-artificial='yes'/>
              <parameter type-id='b6693e9f'/>
              <return type-id='a35f2e3a'/>
            </function-decl>
          </member-function>
          <member-function access='public'>
            <function-decl name='extension' mangled-name='_ZNK5boost10filesystem4path9extensionEv' filepath='src/third_party/boost-1.56.0/boost/filesystem/path.hpp' line='437' column='1' visibility='default' binding='global' size-in-bits='64' elf-symbol-id='_ZNK5boost10filesystem4path9extensionEv'>
              <parameter type-id='ba6944eb' is-artificial='yes'/>
              <return type-id='20b2cca0'/>
            </function-decl>
          </member-function>
          <member-function access='public'>
            <function-decl name='root_path' mangled-name='_ZNK5boost10filesystem4path9root_pathEv' filepath='src/third_party/boost-1.56.0/boost/filesystem/path.hpp' line='429' column='1' visibility='default' binding='global' size-in-bits='64' elf-symbol-id='_ZNK5boost10filesystem4path9root_pathEv'>
              <parameter type-id='ba6944eb' is-artificial='yes'/>
              <return type-id='20b2cca0'/>
            </function-decl>
          </member-function>
          <member-function access='public'>
            <function-decl name='root_name' mangled-name='_ZNK5boost10filesystem4path9root_nameEv' filepath='src/third_party/boost-1.56.0/boost/filesystem/path.hpp' line='430' column='1' visibility='default' binding='global' size-in-bits='64' elf-symbol-id='_ZNK5boost10filesystem4path9root_nameEv'>
              <parameter type-id='ba6944eb' is-artificial='yes'/>
              <return type-id='20b2cca0'/>
            </function-decl>
          </member-function>
          <member-function access='public'>
            <function-decl name='root_directory' mangled-name='_ZNK5boost10filesystem4path14root_directoryEv' filepath='src/third_party/boost-1.56.0/boost/filesystem/path.hpp' line='432' column='1' visibility='default' binding='global' size-in-bits='64' elf-symbol-id='_ZNK5boost10filesystem4path14root_directoryEv'>
              <parameter type-id='ba6944eb' is-artificial='yes'/>
              <return type-id='20b2cca0'/>
            </function-decl>
          </member-function>
          <member-function access='public'>
            <function-decl name='relative_path' mangled-name='_ZNK5boost10filesystem4path13relative_pathEv' filepath='src/third_party/boost-1.56.0/boost/filesystem/path.hpp' line='433' column='1' visibility='default' binding='global' size-in-bits='64' elf-symbol-id='_ZNK5boost10filesystem4path13relative_pathEv'>
              <parameter type-id='ba6944eb' is-artificial='yes'/>
              <return type-id='20b2cca0'/>
            </function-decl>
          </member-function>
          <member-function access='public'>
            <function-decl name='parent_path' mangled-name='_ZNK5boost10filesystem4path11parent_pathEv' filepath='src/third_party/boost-1.56.0/boost/filesystem/path.hpp' line='434' column='1' visibility='default' binding='global' size-in-bits='64' elf-symbol-id='_ZNK5boost10filesystem4path11parent_pathEv'>
              <parameter type-id='ba6944eb' is-artificial='yes'/>
              <return type-id='20b2cca0'/>
            </function-decl>
          </member-function>
          <member-function access='public'>
            <function-decl name='filename' mangled-name='_ZNK5boost10filesystem4path8filenameEv' filepath='src/third_party/boost-1.56.0/boost/filesystem/path.hpp' line='435' column='1' visibility='default' binding='global' size-in-bits='64' elf-symbol-id='_ZNK5boost10filesystem4path8filenameEv'>
              <parameter type-id='ba6944eb' is-artificial='yes'/>
              <return type-id='20b2cca0'/>
            </function-decl>
          </member-function>
          <member-function access='public'>
            <function-decl name='stem' mangled-name='_ZNK5boost10filesystem4path4stemEv' filepath='src/third_party/boost-1.56.0/boost/filesystem/path.hpp' line='436' column='1' visibility='default' binding='global' size-in-bits='64' elf-symbol-id='_ZNK5boost10filesystem4path4stemEv'>
              <parameter type-id='ba6944eb' is-artificial='yes'/>
              <return type-id='20b2cca0'/>
            </function-decl>
          </member-function>
          <member-function access='private'>
            <function-decl name='m_normalize' mangled-name='_ZN5boost10filesystem4path11m_normalizeEv' filepath='src/third_party/boost-1.56.0/boost/filesystem/path.hpp' line='541' column='1' visibility='default' binding='global' size-in-bits='64' elf-symbol-id='_ZN5boost10filesystem4path11m_normalizeEv'>
              <parameter type-id='975f1b56' is-artificial='yes'/>
              <return type-id='a35f2e3a'/>
            </function-decl>
          </member-function>
          <member-function access='public'>
            <function-decl name='operator=&lt;std::basic_string&lt;char&gt; &gt;' mangled-name='_ZN5boost10filesystem4pathaSISsEENS_9enable_ifINS0_11path_traits11is_pathableINS_5decayIT_E4typeEEERS1_E4typeERKS7_' filepath='src/third_party/boost-1.56.0/boost/filesystem/path.hpp' line='199' column='1' visibility='default' binding='global' size-in-bits='64' elf-symbol-id='_ZN5boost10filesystem4pathaSISsEENS_9enable_ifINS0_11path_traits11is_pathableINS_5decayIT_E4typeEEERS1_E4typeERKS7_'>
              <parameter type-id='975f1b56' is-artificial='yes'/>
              <parameter type-id='0d8dd23c'/>
              <return type-id='73d6b1cd'/>
            </function-decl>
          </member-function>
          <member-function access='private' static='yes'>
            <function-decl name='m_path_iterator_increment' mangled-name='_ZN5boost10filesystem4path25m_path_iterator_incrementERNS1_8iteratorE' filepath='src/third_party/boost-1.56.0/boost/filesystem/path.hpp' line='549' column='1' visibility='default' binding='global' size-in-bits='64' elf-symbol-id='_ZN5boost10filesystem4path25m_path_iterator_incrementERNS1_8iteratorE'>
              <parameter type-id='f95cd698'/>
              <return type-id='48b5725f'/>
            </function-decl>
          </member-function>
          <member-function access='private' static='yes'>
            <function-decl name='m_path_iterator_decrement' mangled-name='_ZN5boost10filesystem4path25m_path_iterator_decrementERNS1_8iteratorE' filepath='src/third_party/boost-1.56.0/boost/filesystem/path.hpp' line='550' column='1' visibility='default' binding='global' size-in-bits='64' elf-symbol-id='_ZN5boost10filesystem4path25m_path_iterator_decrementERNS1_8iteratorE'>
              <parameter type-id='f95cd698'/>
              <return type-id='48b5725f'/>
            </function-decl>
          </member-function>
          <member-function access='public' static='yes'>
            <function-decl name='codecvt' mangled-name='_ZN5boost10filesystem4path7codecvtEv' filepath='src/third_party/boost-1.56.0/boost/filesystem/path.hpp' line='471' column='1' visibility='default' binding='global' size-in-bits='64' elf-symbol-id='_ZN5boost10filesystem4path7codecvtEv'>
              <return type-id='2d3b121c'/>
            </function-decl>
          </member-function>
          <member-function access='public' static='yes'>
            <function-decl name='imbue' mangled-name='_ZN5boost10filesystem4path5imbueERKSt6locale' filepath='src/third_party/boost-1.56.0/boost/filesystem/path.hpp' line='470' column='1' visibility='default' binding='global' size-in-bits='64' elf-symbol-id='_ZN5boost10filesystem4path5imbueERKSt6locale'>
              <parameter type-id='470610eb'/>
              <return type-id='d3ef8320'/>
            </function-decl>
          </member-function>
          <member-function access='public'>
            <function-decl name='path&lt;std::basic_string&lt;wchar_t&gt; &gt;' mangled-name='_ZN5boost10filesystem4pathC2ISbIwSt11char_traitsIwESaIwEEEERKT_PNS_9enable_ifINS0_11path_traits11is_pathableINS_5decayIS7_E4typeEEEvE4typeE' filepath='src/third_party/boost-1.56.0/boost/filesystem/path.hpp' line='135' column='1' visibility='default' binding='global' size-in-bits='64' elf-symbol-id='_ZN5boost10filesystem4pathC2ISbIwSt11char_traitsIwESaIwEEEERKT_PNS_9enable_ifINS0_11path_traits11is_pathableINS_5decayIS7_E4typeEEEvE4typeE'>
              <parameter type-id='975f1b56' is-artificial='yes'/>
              <parameter type-id='33a172b0'/>
              <parameter type-id='0208b085'/>
              <return type-id='48b5725f'/>
            </function-decl>
          </member-function>
          <member-function access='public'>
            <function-decl name='wstring' mangled-name='_ZNK5boost10filesystem4path7wstringEv' filepath='src/third_party/boost-1.56.0/boost/filesystem/path.hpp' line='386' column='1' visibility='default' binding='global' size-in-bits='64' elf-symbol-id='_ZNK5boost10filesystem4path7wstringEv'>
              <parameter type-id='ba6944eb' is-artificial='yes'/>
              <return type-id='3a2d5f3f'/>
            </function-decl>
          </member-function>
          <member-function access='public'>
            <function-decl name='wstring' mangled-name='_ZNK5boost10filesystem4path7wstringERKSt7codecvtIwc11__mbstate_tE' filepath='src/third_party/boost-1.56.0/boost/filesystem/path.hpp' line='387' column='1' visibility='default' binding='global' size-in-bits='64' elf-symbol-id='_ZNK5boost10filesystem4path7wstringERKSt7codecvtIwc11__mbstate_tE'>
              <parameter type-id='ba6944eb' is-artificial='yes'/>
              <parameter type-id='2d3b121c'/>
              <return type-id='3a2d5f3f'/>
            </function-decl>
          </member-function>
        </class-decl>
        <function-decl name='operator&amp;' mangled-name='_ZN5boost10filesystemanENS0_5permsES1_' filepath='src/third_party/boost-1.56.0/boost/filesystem/operations.hpp' line='250' column='1' visibility='default' binding='global' size-in-bits='64' elf-symbol-id='_ZN5boost10filesystemanENS0_5permsES1_'>
          <parameter type-id='09981dcf' name='x' filepath='src/third_party/boost-1.56.0/boost/filesystem/operations.hpp' line='250' column='1'/>
          <parameter type-id='09981dcf' name='y' filepath='src/third_party/boost-1.56.0/boost/filesystem/operations.hpp' line='250' column='1'/>
          <return type-id='09981dcf'/>
        </function-decl>
        <function-decl name='operator|' mangled-name='_ZN5boost10filesystemorENS0_5permsES1_' filepath='src/third_party/boost-1.56.0/boost/filesystem/operations.hpp' line='250' column='1' visibility='default' binding='global' size-in-bits='64' elf-symbol-id='_ZN5boost10filesystemorENS0_5permsES1_'>
          <parameter type-id='09981dcf' name='x' filepath='src/third_party/boost-1.56.0/boost/filesystem/operations.hpp' line='250' column='1'/>
          <parameter type-id='09981dcf' name='y' filepath='src/third_party/boost-1.56.0/boost/filesystem/operations.hpp' line='250' column='1'/>
          <return type-id='09981dcf'/>
        </function-decl>
        <function-decl name='operator~' mangled-name='_ZN5boost10filesystemcoENS0_5permsE' filepath='src/third_party/boost-1.56.0/boost/filesystem/operations.hpp' line='250' column='1' visibility='default' binding='global' size-in-bits='64' elf-symbol-id='_ZN5boost10filesystemcoENS0_5permsE'>
          <parameter type-id='09981dcf' name='x' filepath='src/third_party/boost-1.56.0/boost/filesystem/operations.hpp' line='250' column='1'/>
          <return type-id='09981dcf'/>
        </function-decl>
        <function-decl name='operator|=' mangled-name='_ZN5boost10filesystemoRERNS0_5permsES1_' filepath='src/third_party/boost-1.56.0/boost/filesystem/operations.hpp' line='250' column='1' visibility='default' binding='global' size-in-bits='64' elf-symbol-id='_ZN5boost10filesystemoRERNS0_5permsES1_'>
          <parameter type-id='214a8948' name='x' filepath='src/third_party/boost-1.56.0/boost/filesystem/operations.hpp' line='250' column='1'/>
          <parameter type-id='09981dcf' name='y' filepath='src/third_party/boost-1.56.0/boost/filesystem/operations.hpp' line='250' column='1'/>
          <return type-id='214a8948'/>
        </function-decl>
        <function-decl name='type_present' mangled-name='_ZN5boost10filesystem12type_presentENS0_11file_statusE' filepath='src/third_party/boost-1.56.0/boost/filesystem/operations.hpp' line='280' column='1' visibility='default' binding='global' size-in-bits='64' elf-symbol-id='_ZN5boost10filesystem12type_presentENS0_11file_statusE'>
          <parameter type-id='3703986c' name='f' filepath='src/third_party/boost-1.56.0/boost/filesystem/operations.hpp' line='288' column='1'/>
          <return type-id='c894953d'/>
        </function-decl>
        <function-decl name='permissions_present' mangled-name='_ZN5boost10filesystem19permissions_presentENS0_11file_statusE' filepath='src/third_party/boost-1.56.0/boost/filesystem/operations.hpp' line='281' column='1' visibility='default' binding='global' size-in-bits='64' elf-symbol-id='_ZN5boost10filesystem19permissions_presentENS0_11file_statusE'>
          <parameter type-id='3703986c' name='f' filepath='src/third_party/boost-1.56.0/boost/filesystem/operations.hpp' line='288' column='1'/>
          <return type-id='c894953d'/>
        </function-decl>
        <function-decl name='status_known' mangled-name='_ZN5boost10filesystem12status_knownENS0_11file_statusE' filepath='src/third_party/boost-1.56.0/boost/filesystem/operations.hpp' line='283' column='1' visibility='default' binding='global' size-in-bits='64' elf-symbol-id='_ZN5boost10filesystem12status_knownENS0_11file_statusE'>
          <parameter type-id='3703986c' name='f' filepath='src/third_party/boost-1.56.0/boost/filesystem/operations.hpp' line='288' column='1'/>
          <return type-id='c894953d'/>
        </function-decl>
        <function-decl name='is_regular_file' mangled-name='_ZN5boost10filesystem15is_regular_fileENS0_11file_statusE' filepath='src/third_party/boost-1.56.0/boost/filesystem/operations.hpp' line='286' column='1' visibility='default' binding='global' size-in-bits='64' elf-symbol-id='_ZN5boost10filesystem15is_regular_fileENS0_11file_statusE'>
          <parameter type-id='3703986c' name='f' filepath='src/third_party/boost-1.56.0/boost/filesystem/operations.hpp' line='288' column='1'/>
          <return type-id='c894953d'/>
        </function-decl>
        <function-decl name='is_directory' mangled-name='_ZN5boost10filesystem12is_directoryENS0_11file_statusE' filepath='src/third_party/boost-1.56.0/boost/filesystem/operations.hpp' line='287' column='1' visibility='default' binding='global' size-in-bits='64' elf-symbol-id='_ZN5boost10filesystem12is_directoryENS0_11file_statusE'>
          <parameter type-id='3703986c' name='f' filepath='src/third_party/boost-1.56.0/boost/filesystem/operations.hpp' line='288' column='1'/>
          <return type-id='c894953d'/>
        </function-decl>
        <function-decl name='is_symlink' mangled-name='_ZN5boost10filesystem10is_symlinkENS0_11file_statusE' filepath='src/third_party/boost-1.56.0/boost/filesystem/operations.hpp' line='288' column='1' visibility='default' binding='global' size-in-bits='64' elf-symbol-id='_ZN5boost10filesystem10is_symlinkENS0_11file_statusE'>
          <parameter type-id='3703986c' name='f' filepath='src/third_party/boost-1.56.0/boost/filesystem/operations.hpp' line='288' column='1'/>
          <return type-id='c894953d'/>
        </function-decl>
        <function-decl name='status' mangled-name='_ZN5boost10filesystem6statusERKNS0_4pathERNS_6system10error_codeE' filepath='src/third_party/boost-1.56.0/boost/filesystem/operations.hpp' line='392' column='1' visibility='default' binding='global' size-in-bits='64' elf-symbol-id='_ZN5boost10filesystem6statusERKNS0_4pathERNS_6system10error_codeE'>
          <parameter type-id='b6693e9f' name='p' filepath='src/third_party/boost-1.56.0/boost/filesystem/operations.hpp' line='392' column='1'/>
          <parameter type-id='dd42c337' name='ec' filepath='src/third_party/boost-1.56.0/boost/filesystem/operations.hpp' line='392' column='1'/>
          <return type-id='3703986c'/>
        </function-decl>
        <function-decl name='symlink_status' mangled-name='_ZN5boost10filesystem14symlink_statusERKNS0_4pathERNS_6system10error_codeE' filepath='src/third_party/boost-1.56.0/boost/filesystem/operations.hpp' line='397' column='1' visibility='default' binding='global' size-in-bits='64' elf-symbol-id='_ZN5boost10filesystem14symlink_statusERKNS0_4pathERNS_6system10error_codeE'>
          <parameter type-id='b6693e9f' name='p' filepath='src/third_party/boost-1.56.0/boost/filesystem/operations.hpp' line='392' column='1'/>
          <parameter type-id='dd42c337' name='ec' filepath='src/third_party/boost-1.56.0/boost/filesystem/operations.hpp' line='392' column='1'/>
          <return type-id='3703986c'/>
        </function-decl>
        <function-decl name='is_directory' mangled-name='_ZN5boost10filesystem12is_directoryERKNS0_4pathE' filepath='src/third_party/boost-1.56.0/boost/filesystem/operations.hpp' line='405' column='1' visibility='default' binding='global' size-in-bits='64' elf-symbol-id='_ZN5boost10filesystem12is_directoryERKNS0_4pathE'>
          <parameter type-id='b6693e9f' name='p' filepath='src/third_party/boost-1.56.0/boost/filesystem/operations.hpp' line='405' column='1'/>
          <return type-id='c894953d'/>
        </function-decl>
        <function-decl name='is_directory' mangled-name='_ZN5boost10filesystem12is_directoryERKNS0_4pathERNS_6system10error_codeE' filepath='src/third_party/boost-1.56.0/boost/filesystem/operations.hpp' line='407' column='1' visibility='default' binding='global' size-in-bits='64' elf-symbol-id='_ZN5boost10filesystem12is_directoryERKNS0_4pathERNS_6system10error_codeE'>
          <parameter type-id='b6693e9f' name='p' filepath='src/third_party/boost-1.56.0/boost/filesystem/operations.hpp' line='513' column='1'/>
          <parameter type-id='dd42c337' name='ec' filepath='src/third_party/boost-1.56.0/boost/filesystem/operations.hpp' line='513' column='1'/>
          <return type-id='c894953d'/>
        </function-decl>
        <function-decl name='copy_directory' mangled-name='_ZN5boost10filesystem14copy_directoryERKNS0_4pathES3_RNS_6system10error_codeE' filepath='src/third_party/boost-1.56.0/boost/filesystem/operations.hpp' line='487' column='1' visibility='default' binding='global' size-in-bits='64' elf-symbol-id='_ZN5boost10filesystem14copy_directoryERKNS0_4pathES3_RNS_6system10error_codeE'>
          <parameter type-id='b6693e9f' name='existing_symlink' filepath='src/third_party/boost-1.56.0/boost/filesystem/operations.hpp' line='507' column='1'/>
          <parameter type-id='b6693e9f' name='new_symlink' filepath='src/third_party/boost-1.56.0/boost/filesystem/operations.hpp' line='507' column='1'/>
          <parameter type-id='dd42c337' name='ec' filepath='src/third_party/boost-1.56.0/boost/filesystem/operations.hpp' line='507' column='1'/>
          <return type-id='48b5725f'/>
        </function-decl>
        <function-decl name='copy_file' mangled-name='_ZN5boost10filesystem9copy_fileERKNS0_4pathES3_NS0_11copy_optionERNS_6system10error_codeE' filepath='src/third_party/boost-1.56.0/boost/filesystem/operations.hpp' line='497' column='1' visibility='default' binding='global' size-in-bits='64' elf-symbol-id='_ZN5boost10filesystem9copy_fileERKNS0_4pathES3_NS0_11copy_optionERNS_6system10error_codeE'>
          <parameter type-id='b6693e9f' name='from' filepath='src/third_party/boost-1.56.0/boost/filesystem/operations.hpp' line='497' column='1'/>
          <parameter type-id='b6693e9f' name='to' filepath='src/third_party/boost-1.56.0/boost/filesystem/operations.hpp' line='497' column='1'/>
          <parameter type-id='1933c303' name='option' filepath='src/third_party/boost-1.56.0/boost/filesystem/operations.hpp' line='498' column='1'/>
          <parameter type-id='dd42c337' name='ec' filepath='src/third_party/boost-1.56.0/boost/filesystem/operations.hpp' line='498' column='1'/>
          <return type-id='48b5725f'/>
        </function-decl>
        <function-decl name='copy_symlink' mangled-name='_ZN5boost10filesystem12copy_symlinkERKNS0_4pathES3_RNS_6system10error_codeE' filepath='src/third_party/boost-1.56.0/boost/filesystem/operations.hpp' line='507' column='1' visibility='default' binding='global' size-in-bits='64' elf-symbol-id='_ZN5boost10filesystem12copy_symlinkERKNS0_4pathES3_RNS_6system10error_codeE'>
          <parameter type-id='b6693e9f' name='existing_symlink' filepath='src/third_party/boost-1.56.0/boost/filesystem/operations.hpp' line='507' column='1'/>
          <parameter type-id='b6693e9f' name='new_symlink' filepath='src/third_party/boost-1.56.0/boost/filesystem/operations.hpp' line='507' column='1'/>
          <parameter type-id='dd42c337' name='ec' filepath='src/third_party/boost-1.56.0/boost/filesystem/operations.hpp' line='507' column='1'/>
          <return type-id='48b5725f'/>
        </function-decl>
        <function-decl name='create_directories' mangled-name='_ZN5boost10filesystem18create_directoriesERKNS0_4pathERNS_6system10error_codeE' filepath='src/third_party/boost-1.56.0/boost/filesystem/operations.hpp' line='513' column='1' visibility='default' binding='global' size-in-bits='64' elf-symbol-id='_ZN5boost10filesystem18create_directoriesERKNS0_4pathERNS_6system10error_codeE'>
          <parameter type-id='b6693e9f' name='p' filepath='src/third_party/boost-1.56.0/boost/filesystem/operations.hpp' line='513' column='1'/>
          <parameter type-id='dd42c337' name='ec' filepath='src/third_party/boost-1.56.0/boost/filesystem/operations.hpp' line='513' column='1'/>
          <return type-id='c894953d'/>
        </function-decl>
        <function-decl name='current_path' mangled-name='_ZN5boost10filesystem12current_pathEv' filepath='src/third_party/boost-1.56.0/boost/filesystem/operations.hpp' line='540' column='1' visibility='default' binding='global' size-in-bits='64' elf-symbol-id='_ZN5boost10filesystem12current_pathEv'>
          <return type-id='20b2cca0'/>
        </function-decl>
        <namespace-decl name='detail'>
          <class-decl name='dir_itr_imp' size-in-bits='320' is-struct='yes' visibility='default' filepath='src/third_party/boost-1.56.0/boost/filesystem/operations.hpp' line='741' column='1' id='cd4c9d36'>
            <data-member access='public' layout-offset-in-bits='0'>
              <var-decl name='dir_entry' type-id='3cdb9c7d' visibility='default' filepath='src/third_party/boost-1.56.0/boost/filesystem/operations.hpp' line='743' column='1'/>
            </data-member>
            <data-member access='public' layout-offset-in-bits='192'>
              <var-decl name='handle' type-id='eaa32e2f' visibility='default' filepath='src/third_party/boost-1.56.0/boost/filesystem/operations.hpp' line='744' column='1'/>
            </data-member>
            <data-member access='public' layout-offset-in-bits='256'>
              <var-decl name='buffer' type-id='eaa32e2f' visibility='default' filepath='src/third_party/boost-1.56.0/boost/filesystem/operations.hpp' line='747' column='1'/>
            </data-member>
            <member-function access='public' constructor='yes'>
              <function-decl name='dir_itr_imp' mangled-name='_ZN5boost10filesystem6detail11dir_itr_impC2Ev' filepath='src/third_party/boost-1.56.0/boost/filesystem/operations.hpp' line='750' column='1' visibility='default' binding='global' size-in-bits='64' elf-symbol-id='_ZN5boost10filesystem6detail11dir_itr_impC2Ev'>
                <parameter type-id='07f93bcc' is-artificial='yes'/>
                <return type-id='48b5725f'/>
              </function-decl>
            </member-function>
            <member-function access='public' destructor='yes'>
              <function-decl name='~dir_itr_imp' mangled-name='_ZN5boost10filesystem6detail11dir_itr_impD2Ev' filepath='src/third_party/boost-1.56.0/boost/filesystem/operations.hpp' line='756' column='1' visibility='default' binding='global' size-in-bits='64' elf-symbol-id='_ZN5boost10filesystem6detail11dir_itr_impD2Ev'>
                <parameter type-id='07f93bcc' is-artificial='yes'/>
                <return type-id='48b5725f'/>
              </function-decl>
            </member-function>
          </class-decl>
          <function-decl name='possible_large_file_size_support' mangled-name='_ZN5boost10filesystem6detail32possible_large_file_size_supportEv' filepath='src/third_party/boost-1.56.0/libs/filesystem/src/operations.cpp' line='764' column='1' visibility='default' binding='global' size-in-bits='64' elf-symbol-id='_ZN5boost10filesystem6detail32possible_large_file_size_supportEv'>
            <return type-id='c894953d'/>
          </function-decl>
          <function-decl name='canonical' mangled-name='_ZN5boost10filesystem6detail9canonicalERKNS0_4pathES4_PNS_6system10error_codeE' filepath='src/third_party/boost-1.56.0/libs/filesystem/src/operations.cpp' line='775' column='1' visibility='default' binding='global' size-in-bits='64' elf-symbol-id='_ZN5boost10filesystem6detail9canonicalERKNS0_4pathES4_PNS_6system10error_codeE'>
            <parameter type-id='b6693e9f' name='p' filepath='src/third_party/boost-1.56.0/libs/filesystem/src/operations.cpp' line='775' column='1'/>
            <parameter type-id='b6693e9f' name='base' filepath='src/third_party/boost-1.56.0/libs/filesystem/src/operations.cpp' line='775' column='1'/>
            <parameter type-id='d142b053' name='ec' filepath='src/third_party/boost-1.56.0/libs/filesystem/src/operations.cpp' line='775' column='1'/>
            <return type-id='20b2cca0'/>
          </function-decl>
          <function-decl name='copy' mangled-name='_ZN5boost10filesystem6detail4copyERKNS0_4pathES4_PNS_6system10error_codeE' filepath='src/third_party/boost-1.56.0/libs/filesystem/src/operations.cpp' line='857' column='1' visibility='default' binding='global' size-in-bits='64' elf-symbol-id='_ZN5boost10filesystem6detail4copyERKNS0_4pathES4_PNS_6system10error_codeE'>
            <parameter type-id='b6693e9f' name='from' filepath='src/third_party/boost-1.56.0/libs/filesystem/src/operations.cpp' line='857' column='1'/>
            <parameter type-id='b6693e9f' name='to' filepath='src/third_party/boost-1.56.0/libs/filesystem/src/operations.cpp' line='857' column='1'/>
            <parameter type-id='d142b053' name='ec' filepath='src/third_party/boost-1.56.0/libs/filesystem/src/operations.cpp' line='857' column='1'/>
            <return type-id='48b5725f'/>
          </function-decl>
          <function-decl name='copy_directory' mangled-name='_ZN5boost10filesystem6detail14copy_directoryERKNS0_4pathES4_PNS_6system10error_codeE' filepath='src/third_party/boost-1.56.0/libs/filesystem/src/operations.cpp' line='884' column='1' visibility='default' binding='global' size-in-bits='64' elf-symbol-id='_ZN5boost10filesystem6detail14copy_directoryERKNS0_4pathES4_PNS_6system10error_codeE'>
            <parameter type-id='b6693e9f' name='from' filepath='src/third_party/boost-1.56.0/libs/filesystem/src/operations.cpp' line='857' column='1'/>
            <parameter type-id='b6693e9f' name='to' filepath='src/third_party/boost-1.56.0/libs/filesystem/src/operations.cpp' line='857' column='1'/>
            <parameter type-id='d142b053' name='ec' filepath='src/third_party/boost-1.56.0/libs/filesystem/src/operations.cpp' line='857' column='1'/>
            <return type-id='48b5725f'/>
          </function-decl>
          <function-decl name='copy_file' mangled-name='_ZN5boost10filesystem6detail9copy_fileERKNS0_4pathES4_NS0_11copy_optionEPNS_6system10error_codeE' filepath='src/third_party/boost-1.56.0/libs/filesystem/src/operations.cpp' line='894' column='1' visibility='default' binding='global' size-in-bits='64' elf-symbol-id='_ZN5boost10filesystem6detail9copy_fileERKNS0_4pathES4_NS0_11copy_optionEPNS_6system10error_codeE'>
            <parameter type-id='b6693e9f' name='from' filepath='src/third_party/boost-1.56.0/libs/filesystem/src/operations.cpp' line='894' column='1'/>
            <parameter type-id='b6693e9f' name='to' filepath='src/third_party/boost-1.56.0/libs/filesystem/src/operations.cpp' line='894' column='1'/>
            <parameter type-id='1933c303' name='option' filepath='src/third_party/boost-1.56.0/libs/filesystem/src/operations.cpp' line='895' column='1'/>
            <parameter type-id='d142b053' name='ec' filepath='src/third_party/boost-1.56.0/libs/filesystem/src/operations.cpp' line='896' column='1'/>
            <return type-id='48b5725f'/>
          </function-decl>
          <function-decl name='copy_symlink' mangled-name='_ZN5boost10filesystem6detail12copy_symlinkERKNS0_4pathES4_PNS_6system10error_codeE' filepath='src/third_party/boost-1.56.0/libs/filesystem/src/operations.cpp' line='904' column='1' visibility='default' binding='global' size-in-bits='64' elf-symbol-id='_ZN5boost10filesystem6detail12copy_symlinkERKNS0_4pathES4_PNS_6system10error_codeE'>
            <parameter type-id='b6693e9f' name='from' filepath='src/third_party/boost-1.56.0/libs/filesystem/src/operations.cpp' line='857' column='1'/>
            <parameter type-id='b6693e9f' name='to' filepath='src/third_party/boost-1.56.0/libs/filesystem/src/operations.cpp' line='857' column='1'/>
            <parameter type-id='d142b053' name='ec' filepath='src/third_party/boost-1.56.0/libs/filesystem/src/operations.cpp' line='857' column='1'/>
            <return type-id='48b5725f'/>
          </function-decl>
          <function-decl name='create_directories' mangled-name='_ZN5boost10filesystem6detail18create_directoriesERKNS0_4pathEPNS_6system10error_codeE' filepath='src/third_party/boost-1.56.0/libs/filesystem/src/operations.cpp' line='921' column='1' visibility='default' binding='global' size-in-bits='64' elf-symbol-id='_ZN5boost10filesystem6detail18create_directoriesERKNS0_4pathEPNS_6system10error_codeE'>
            <parameter type-id='b6693e9f' name='p' filepath='src/third_party/boost-1.56.0/libs/filesystem/src/operations.cpp' line='921' column='1'/>
            <parameter type-id='d142b053' name='ec' filepath='src/third_party/boost-1.56.0/libs/filesystem/src/operations.cpp' line='921' column='1'/>
            <return type-id='c894953d'/>
          </function-decl>
          <function-decl name='create_directory' mangled-name='_ZN5boost10filesystem6detail16create_directoryERKNS0_4pathEPNS_6system10error_codeE' filepath='src/third_party/boost-1.56.0/libs/filesystem/src/operations.cpp' line='961' column='1' visibility='default' binding='global' size-in-bits='64' elf-symbol-id='_ZN5boost10filesystem6detail16create_directoryERKNS0_4pathEPNS_6system10error_codeE'>
            <parameter type-id='b6693e9f' name='p' filepath='src/third_party/boost-1.56.0/libs/filesystem/src/operations.cpp' line='921' column='1'/>
            <parameter type-id='d142b053' name='ec' filepath='src/third_party/boost-1.56.0/libs/filesystem/src/operations.cpp' line='921' column='1'/>
            <return type-id='c894953d'/>
          </function-decl>
          <function-decl name='create_directory_symlink' mangled-name='_ZN5boost10filesystem6detail24create_directory_symlinkERKNS0_4pathES4_PNS_6system10error_codeE' filepath='src/third_party/boost-1.56.0/libs/filesystem/src/operations.cpp' line='990' column='1' visibility='default' binding='global' size-in-bits='64' elf-symbol-id='_ZN5boost10filesystem6detail24create_directory_symlinkERKNS0_4pathES4_PNS_6system10error_codeE'>
            <parameter type-id='b6693e9f' name='from' filepath='src/third_party/boost-1.56.0/libs/filesystem/src/operations.cpp' line='857' column='1'/>
            <parameter type-id='b6693e9f' name='to' filepath='src/third_party/boost-1.56.0/libs/filesystem/src/operations.cpp' line='857' column='1'/>
            <parameter type-id='d142b053' name='ec' filepath='src/third_party/boost-1.56.0/libs/filesystem/src/operations.cpp' line='857' column='1'/>
            <return type-id='48b5725f'/>
          </function-decl>
          <function-decl name='create_hard_link' mangled-name='_ZN5boost10filesystem6detail16create_hard_linkERKNS0_4pathES4_PNS_6system10error_codeE' filepath='src/third_party/boost-1.56.0/libs/filesystem/src/operations.cpp' line='1014' column='1' visibility='default' binding='global' size-in-bits='64' elf-symbol-id='_ZN5boost10filesystem6detail16create_hard_linkERKNS0_4pathES4_PNS_6system10error_codeE'>
            <parameter type-id='b6693e9f' name='from' filepath='src/third_party/boost-1.56.0/libs/filesystem/src/operations.cpp' line='857' column='1'/>
            <parameter type-id='b6693e9f' name='to' filepath='src/third_party/boost-1.56.0/libs/filesystem/src/operations.cpp' line='857' column='1'/>
            <parameter type-id='d142b053' name='ec' filepath='src/third_party/boost-1.56.0/libs/filesystem/src/operations.cpp' line='857' column='1'/>
            <return type-id='48b5725f'/>
          </function-decl>
          <function-decl name='create_symlink' mangled-name='_ZN5boost10filesystem6detail14create_symlinkERKNS0_4pathES4_PNS_6system10error_codeE' filepath='src/third_party/boost-1.56.0/libs/filesystem/src/operations.cpp' line='1038' column='1' visibility='default' binding='global' size-in-bits='64' elf-symbol-id='_ZN5boost10filesystem6detail14create_symlinkERKNS0_4pathES4_PNS_6system10error_codeE'>
            <parameter type-id='b6693e9f' name='from' filepath='src/third_party/boost-1.56.0/libs/filesystem/src/operations.cpp' line='857' column='1'/>
            <parameter type-id='b6693e9f' name='to' filepath='src/third_party/boost-1.56.0/libs/filesystem/src/operations.cpp' line='857' column='1'/>
            <parameter type-id='d142b053' name='ec' filepath='src/third_party/boost-1.56.0/libs/filesystem/src/operations.cpp' line='857' column='1'/>
            <return type-id='48b5725f'/>
          </function-decl>
          <function-decl name='current_path' mangled-name='_ZN5boost10filesystem6detail12current_pathEPNS_6system10error_codeE' filepath='src/third_party/boost-1.56.0/libs/filesystem/src/operations.cpp' line='1060' column='1' visibility='default' binding='global' size-in-bits='64' elf-symbol-id='_ZN5boost10filesystem6detail12current_pathEPNS_6system10error_codeE'>
            <parameter type-id='d142b053' name='ec' filepath='src/third_party/boost-1.56.0/libs/filesystem/src/operations.cpp' line='1266' column='1'/>
            <return type-id='20b2cca0'/>
          </function-decl>
          <function-decl name='current_path' mangled-name='_ZN5boost10filesystem6detail12current_pathERKNS0_4pathEPNS_6system10error_codeE' filepath='src/third_party/boost-1.56.0/libs/filesystem/src/operations.cpp' line='1101' column='1' visibility='default' binding='global' size-in-bits='64' elf-symbol-id='_ZN5boost10filesystem6detail12current_pathERKNS0_4pathEPNS_6system10error_codeE'>
            <parameter type-id='b6693e9f' name='p' filepath='src/third_party/boost-1.56.0/libs/filesystem/src/operations.cpp' line='1101' column='1'/>
            <parameter type-id='d142b053' name='ec' filepath='src/third_party/boost-1.56.0/libs/filesystem/src/operations.cpp' line='1101' column='1'/>
            <return type-id='48b5725f'/>
          </function-decl>
          <function-decl name='equivalent' mangled-name='_ZN5boost10filesystem6detail10equivalentERKNS0_4pathES4_PNS_6system10error_codeE' filepath='src/third_party/boost-1.56.0/libs/filesystem/src/operations.cpp' line='1108' column='1' visibility='default' binding='global' size-in-bits='64' elf-symbol-id='_ZN5boost10filesystem6detail10equivalentERKNS0_4pathES4_PNS_6system10error_codeE'>
            <parameter type-id='b6693e9f' name='p1' filepath='src/third_party/boost-1.56.0/libs/filesystem/src/operations.cpp' line='1108' column='1'/>
            <parameter type-id='b6693e9f' name='p2' filepath='src/third_party/boost-1.56.0/libs/filesystem/src/operations.cpp' line='1108' column='1'/>
            <parameter type-id='d142b053' name='ec' filepath='src/third_party/boost-1.56.0/libs/filesystem/src/operations.cpp' line='1108' column='1'/>
            <return type-id='c894953d'/>
          </function-decl>
          <function-decl name='file_size' mangled-name='_ZN5boost10filesystem6detail9file_sizeERKNS0_4pathEPNS_6system10error_codeE' filepath='src/third_party/boost-1.56.0/libs/filesystem/src/operations.cpp' line='1201' column='1' visibility='default' binding='global' size-in-bits='64' elf-symbol-id='_ZN5boost10filesystem6detail9file_sizeERKNS0_4pathEPNS_6system10error_codeE'>
            <parameter type-id='b6693e9f' name='p' filepath='src/third_party/boost-1.56.0/libs/filesystem/src/operations.cpp' line='1201' column='1'/>
            <parameter type-id='d142b053' name='ec' filepath='src/third_party/boost-1.56.0/libs/filesystem/src/operations.cpp' line='1201' column='1'/>
            <return type-id='f8b828c9'/>
          </function-decl>
          <function-decl name='hard_link_count' mangled-name='_ZN5boost10filesystem6detail15hard_link_countERKNS0_4pathEPNS_6system10error_codeE' filepath='src/third_party/boost-1.56.0/libs/filesystem/src/operations.cpp' line='1237' column='1' visibility='default' binding='global' size-in-bits='64' elf-symbol-id='_ZN5boost10filesystem6detail15hard_link_countERKNS0_4pathEPNS_6system10error_codeE'>
            <parameter type-id='b6693e9f' name='p' filepath='src/third_party/boost-1.56.0/libs/filesystem/src/operations.cpp' line='1201' column='1'/>
            <parameter type-id='d142b053' name='ec' filepath='src/third_party/boost-1.56.0/libs/filesystem/src/operations.cpp' line='1201' column='1'/>
            <return type-id='f8b828c9'/>
          </function-decl>
          <function-decl name='initial_path' mangled-name='_ZN5boost10filesystem6detail12initial_pathEPNS_6system10error_codeE' filepath='src/third_party/boost-1.56.0/libs/filesystem/src/operations.cpp' line='1266' column='1' visibility='default' binding='global' size-in-bits='64' elf-symbol-id='_ZN5boost10filesystem6detail12initial_pathEPNS_6system10error_codeE'>
            <parameter type-id='d142b053' name='ec' filepath='src/third_party/boost-1.56.0/libs/filesystem/src/operations.cpp' line='1266' column='1'/>
            <return type-id='20b2cca0'/>
          </function-decl>
          <function-decl name='is_empty' mangled-name='_ZN5boost10filesystem6detail8is_emptyERKNS0_4pathEPNS_6system10error_codeE' filepath='src/third_party/boost-1.56.0/libs/filesystem/src/operations.cpp' line='1276' column='1' visibility='default' binding='global' size-in-bits='64' elf-symbol-id='_ZN5boost10filesystem6detail8is_emptyERKNS0_4pathEPNS_6system10error_codeE'>
            <parameter type-id='b6693e9f' name='p' filepath='src/third_party/boost-1.56.0/libs/filesystem/src/operations.cpp' line='921' column='1'/>
            <parameter type-id='d142b053' name='ec' filepath='src/third_party/boost-1.56.0/libs/filesystem/src/operations.cpp' line='921' column='1'/>
            <return type-id='c894953d'/>
          </function-decl>
          <function-decl name='last_write_time' mangled-name='_ZN5boost10filesystem6detail15last_write_timeERKNS0_4pathEPNS_6system10error_codeE' filepath='src/third_party/boost-1.56.0/libs/filesystem/src/operations.cpp' line='1303' column='1' visibility='default' binding='global' size-in-bits='64' elf-symbol-id='_ZN5boost10filesystem6detail15last_write_timeERKNS0_4pathEPNS_6system10error_codeE'>
            <parameter type-id='b6693e9f' name='p' filepath='src/third_party/boost-1.56.0/libs/filesystem/src/operations.cpp' line='1303' column='1'/>
            <parameter type-id='d142b053' name='ec' filepath='src/third_party/boost-1.56.0/libs/filesystem/src/operations.cpp' line='1303' column='1'/>
            <return type-id='c9d12d66'/>
          </function-decl>
          <function-decl name='last_write_time' mangled-name='_ZN5boost10filesystem6detail15last_write_timeERKNS0_4pathElPNS_6system10error_codeE' filepath='src/third_party/boost-1.56.0/libs/filesystem/src/operations.cpp' line='1335' column='1' visibility='default' binding='global' size-in-bits='64' elf-symbol-id='_ZN5boost10filesystem6detail15last_write_timeERKNS0_4pathElPNS_6system10error_codeE'>
            <parameter type-id='b6693e9f' name='p' filepath='src/third_party/boost-1.56.0/libs/filesystem/src/operations.cpp' line='1335' column='1'/>
            <parameter type-id='588b3216' name='new_time' filepath='src/third_party/boost-1.56.0/libs/filesystem/src/operations.cpp' line='1335' column='1'/>
            <parameter type-id='d142b053' name='ec' filepath='src/third_party/boost-1.56.0/libs/filesystem/src/operations.cpp' line='1336' column='1'/>
            <return type-id='48b5725f'/>
          </function-decl>
          <function-decl name='mode_cast' mangled-name='_ZN5boost10filesystem6detail9mode_castENS0_5permsE' filepath='src/third_party/boost-1.56.0/libs/filesystem/src/operations.cpp' line='1371' column='1' visibility='default' binding='global' size-in-bits='64' elf-symbol-id='_ZN5boost10filesystem6detail9mode_castENS0_5permsE'>
            <parameter type-id='09981dcf' name='prms' filepath='src/third_party/boost-1.56.0/libs/filesystem/src/operations.cpp' line='1371' column='1'/>
            <return type-id='d50d396c'/>
          </function-decl>
          <function-decl name='permissions' mangled-name='_ZN5boost10filesystem6detail11permissionsERKNS0_4pathENS0_5permsEPNS_6system10error_codeE' filepath='src/third_party/boost-1.56.0/libs/filesystem/src/operations.cpp' line='1375' column='1' visibility='default' binding='global' size-in-bits='64' elf-symbol-id='_ZN5boost10filesystem6detail11permissionsERKNS0_4pathENS0_5permsEPNS_6system10error_codeE'>
            <parameter type-id='b6693e9f' name='p' filepath='src/third_party/boost-1.56.0/libs/filesystem/src/operations.cpp' line='1375' column='1'/>
            <parameter type-id='09981dcf' name='prms' filepath='src/third_party/boost-1.56.0/libs/filesystem/src/operations.cpp' line='1375' column='1'/>
            <parameter type-id='d142b053' name='ec' filepath='src/third_party/boost-1.56.0/libs/filesystem/src/operations.cpp' line='1375' column='1'/>
            <return type-id='48b5725f'/>
          </function-decl>
          <function-decl name='read_symlink' mangled-name='_ZN5boost10filesystem6detail12read_symlinkERKNS0_4pathEPNS_6system10error_codeE' filepath='src/third_party/boost-1.56.0/libs/filesystem/src/operations.cpp' line='1458' column='1' visibility='default' binding='global' size-in-bits='64' elf-symbol-id='_ZN5boost10filesystem6detail12read_symlinkERKNS0_4pathEPNS_6system10error_codeE'>
            <parameter type-id='b6693e9f' name='p' filepath='src/third_party/boost-1.56.0/libs/filesystem/src/operations.cpp' line='1458' column='1'/>
            <parameter type-id='d142b053' name='ec' filepath='src/third_party/boost-1.56.0/libs/filesystem/src/operations.cpp' line='1458' column='1'/>
            <return type-id='20b2cca0'/>
          </function-decl>
          <function-decl name='remove' mangled-name='_ZN5boost10filesystem6detail6removeERKNS0_4pathEPNS_6system10error_codeE' filepath='src/third_party/boost-1.56.0/libs/filesystem/src/operations.cpp' line='1521' column='1' visibility='default' binding='global' size-in-bits='64' elf-symbol-id='_ZN5boost10filesystem6detail6removeERKNS0_4pathEPNS_6system10error_codeE'>
            <parameter type-id='b6693e9f' name='p' filepath='src/third_party/boost-1.56.0/libs/filesystem/src/operations.cpp' line='921' column='1'/>
            <parameter type-id='d142b053' name='ec' filepath='src/third_party/boost-1.56.0/libs/filesystem/src/operations.cpp' line='921' column='1'/>
            <return type-id='c894953d'/>
          </function-decl>
          <function-decl name='remove_all' mangled-name='_ZN5boost10filesystem6detail10remove_allERKNS0_4pathEPNS_6system10error_codeE' filepath='src/third_party/boost-1.56.0/libs/filesystem/src/operations.cpp' line='1537' column='1' visibility='default' binding='global' size-in-bits='64' elf-symbol-id='_ZN5boost10filesystem6detail10remove_allERKNS0_4pathEPNS_6system10error_codeE'>
            <parameter type-id='b6693e9f' name='p' filepath='src/third_party/boost-1.56.0/libs/filesystem/src/operations.cpp' line='1201' column='1'/>
            <parameter type-id='d142b053' name='ec' filepath='src/third_party/boost-1.56.0/libs/filesystem/src/operations.cpp' line='1201' column='1'/>
            <return type-id='f8b828c9'/>
          </function-decl>
          <function-decl name='rename' mangled-name='_ZN5boost10filesystem6detail6renameERKNS0_4pathES4_PNS_6system10error_codeE' filepath='src/third_party/boost-1.56.0/libs/filesystem/src/operations.cpp' line='1551' column='1' visibility='default' binding='global' size-in-bits='64' elf-symbol-id='_ZN5boost10filesystem6detail6renameERKNS0_4pathES4_PNS_6system10error_codeE'>
            <parameter type-id='b6693e9f' name='from' filepath='src/third_party/boost-1.56.0/libs/filesystem/src/operations.cpp' line='857' column='1'/>
            <parameter type-id='b6693e9f' name='to' filepath='src/third_party/boost-1.56.0/libs/filesystem/src/operations.cpp' line='857' column='1'/>
            <parameter type-id='d142b053' name='ec' filepath='src/third_party/boost-1.56.0/libs/filesystem/src/operations.cpp' line='857' column='1'/>
            <return type-id='48b5725f'/>
          </function-decl>
          <function-decl name='resize_file' mangled-name='_ZN5boost10filesystem6detail11resize_fileERKNS0_4pathEmPNS_6system10error_codeE' filepath='src/third_party/boost-1.56.0/libs/filesystem/src/operations.cpp' line='1558' column='1' visibility='default' binding='global' size-in-bits='64' elf-symbol-id='_ZN5boost10filesystem6detail11resize_fileERKNS0_4pathEmPNS_6system10error_codeE'>
            <parameter type-id='b6693e9f' name='p' filepath='src/third_party/boost-1.56.0/libs/filesystem/src/operations.cpp' line='1558' column='1'/>
            <parameter type-id='f8b828c9' name='size' filepath='src/third_party/boost-1.56.0/libs/filesystem/src/operations.cpp' line='1558' column='1'/>
            <parameter type-id='d142b053' name='ec' filepath='src/third_party/boost-1.56.0/libs/filesystem/src/operations.cpp' line='1558' column='1'/>
            <return type-id='48b5725f'/>
          </function-decl>
          <function-decl name='space' mangled-name='_ZN5boost10filesystem6detail5spaceERKNS0_4pathEPNS_6system10error_codeE' filepath='src/third_party/boost-1.56.0/libs/filesystem/src/operations.cpp' line='1564' column='1' visibility='default' binding='global' size-in-bits='64' elf-symbol-id='_ZN5boost10filesystem6detail5spaceERKNS0_4pathEPNS_6system10error_codeE'>
            <parameter type-id='b6693e9f' name='p' filepath='src/third_party/boost-1.56.0/libs/filesystem/src/operations.cpp' line='1564' column='1'/>
            <parameter type-id='d142b053' name='ec' filepath='src/third_party/boost-1.56.0/libs/filesystem/src/operations.cpp' line='1564' column='1'/>
            <return type-id='6d0de398'/>
          </function-decl>
          <function-decl name='status' mangled-name='_ZN5boost10filesystem6detail6statusERKNS0_4pathEPNS_6system10error_codeE' filepath='src/third_party/boost-1.56.0/libs/filesystem/src/operations.cpp' line='1608' column='1' visibility='default' binding='global' size-in-bits='64' elf-symbol-id='_ZN5boost10filesystem6detail6statusERKNS0_4pathEPNS_6system10error_codeE'>
            <parameter type-id='b6693e9f' name='p' filepath='src/third_party/boost-1.56.0/libs/filesystem/src/operations.cpp' line='1688' column='1'/>
            <parameter type-id='d142b053' name='ec' filepath='src/third_party/boost-1.56.0/libs/filesystem/src/operations.cpp' line='1688' column='1'/>
            <return type-id='3703986c'/>
          </function-decl>
          <function-decl name='symlink_status' mangled-name='_ZN5boost10filesystem6detail14symlink_statusERKNS0_4pathEPNS_6system10error_codeE' filepath='src/third_party/boost-1.56.0/libs/filesystem/src/operations.cpp' line='1688' column='1' visibility='default' binding='global' size-in-bits='64' elf-symbol-id='_ZN5boost10filesystem6detail14symlink_statusERKNS0_4pathEPNS_6system10error_codeE'>
            <parameter type-id='b6693e9f' name='p' filepath='src/third_party/boost-1.56.0/libs/filesystem/src/operations.cpp' line='1688' column='1'/>
            <parameter type-id='d142b053' name='ec' filepath='src/third_party/boost-1.56.0/libs/filesystem/src/operations.cpp' line='1688' column='1'/>
            <return type-id='3703986c'/>
          </function-decl>
          <function-decl name='temp_directory_path' mangled-name='_ZN5boost10filesystem6detail19temp_directory_pathEPNS_6system10error_codeE' filepath='src/third_party/boost-1.56.0/libs/filesystem/src/operations.cpp' line='1755' column='1' visibility='default' binding='global' size-in-bits='64' elf-symbol-id='_ZN5boost10filesystem6detail19temp_directory_pathEPNS_6system10error_codeE'>
            <parameter type-id='d142b053' name='ec' filepath='src/third_party/boost-1.56.0/libs/filesystem/src/operations.cpp' line='1266' column='1'/>
            <return type-id='20b2cca0'/>
          </function-decl>
          <function-decl name='system_complete' mangled-name='_ZN5boost10filesystem6detail15system_completeERKNS0_4pathEPNS_6system10error_codeE' filepath='src/third_party/boost-1.56.0/libs/filesystem/src/operations.cpp' line='1803' column='1' visibility='default' binding='global' size-in-bits='64' elf-symbol-id='_ZN5boost10filesystem6detail15system_completeERKNS0_4pathEPNS_6system10error_codeE'>
            <parameter type-id='b6693e9f' name='p' filepath='src/third_party/boost-1.56.0/libs/filesystem/src/operations.cpp' line='1458' column='1'/>
            <parameter type-id='d142b053' name='ec' filepath='src/third_party/boost-1.56.0/libs/filesystem/src/operations.cpp' line='1458' column='1'/>
            <return type-id='20b2cca0'/>
          </function-decl>
          <function-decl name='dir_itr_close' mangled-name='_ZN5boost10filesystem6detail13dir_itr_closeERPvS3_' filepath='src/third_party/boost-1.56.0/libs/filesystem/src/operations.cpp' line='2120' column='1' visibility='default' binding='global' size-in-bits='64' elf-symbol-id='_ZN5boost10filesystem6detail13dir_itr_closeERPvS3_'>
            <parameter type-id='67e1782b' name='handle' filepath='src/third_party/boost-1.56.0/libs/filesystem/src/operations.cpp' line='2121' column='1'/>
            <parameter type-id='67e1782b' name='buffer' filepath='src/third_party/boost-1.56.0/libs/filesystem/src/operations.cpp' line='2123' column='1'/>
            <return type-id='4dca76f3'/>
          </function-decl>
          <function-decl name='directory_iterator_construct' mangled-name='_ZN5boost10filesystem6detail28directory_iterator_constructERNS0_18directory_iteratorERKNS0_4pathEPNS_6system10error_codeE' filepath='src/third_party/boost-1.56.0/libs/filesystem/src/operations.cpp' line='2146' column='1' visibility='default' binding='global' size-in-bits='64' elf-symbol-id='_ZN5boost10filesystem6detail28directory_iterator_constructERNS0_18directory_iteratorERKNS0_4pathEPNS_6system10error_codeE'>
            <parameter type-id='7db6f765' name='it' filepath='src/third_party/boost-1.56.0/libs/filesystem/src/operations.cpp' line='2146' column='1'/>
            <parameter type-id='b6693e9f' name='p' filepath='src/third_party/boost-1.56.0/libs/filesystem/src/operations.cpp' line='2147' column='1'/>
            <parameter type-id='d142b053' name='ec' filepath='src/third_party/boost-1.56.0/libs/filesystem/src/operations.cpp' line='2147' column='1'/>
            <return type-id='48b5725f'/>
          </function-decl>
          <function-decl name='directory_iterator_increment' mangled-name='_ZN5boost10filesystem6detail28directory_iterator_incrementERNS0_18directory_iteratorEPNS_6system10error_codeE' filepath='src/third_party/boost-1.56.0/libs/filesystem/src/operations.cpp' line='2182' column='1' visibility='default' binding='global' size-in-bits='64' elf-symbol-id='_ZN5boost10filesystem6detail28directory_iterator_incrementERNS0_18directory_iteratorEPNS_6system10error_codeE'>
            <parameter type-id='7db6f765' name='it' filepath='src/third_party/boost-1.56.0/libs/filesystem/src/operations.cpp' line='2182' column='1'/>
            <parameter type-id='d142b053' name='ec' filepath='src/third_party/boost-1.56.0/libs/filesystem/src/operations.cpp' line='2183' column='1'/>
            <return type-id='48b5725f'/>
          </function-decl>
        </namespace-decl>
        <function-decl name='operator==' mangled-name='_ZN5boost10filesystemeqERKNS0_4pathES3_' filepath='src/third_party/boost-1.56.0/boost/filesystem/path.hpp' line='615' column='1' visibility='default' binding='global' size-in-bits='64' elf-symbol-id='_ZN5boost10filesystemeqERKNS0_4pathES3_'>
          <parameter type-id='b6693e9f' name='lhs' filepath='src/third_party/boost-1.56.0/boost/filesystem/path.hpp' line='615' column='1'/>
          <parameter type-id='b6693e9f' name='rhs' filepath='src/third_party/boost-1.56.0/boost/filesystem/path.hpp' line='615' column='1'/>
          <return type-id='c894953d'/>
        </function-decl>
        <function-decl name='operator!=' mangled-name='_ZN5boost10filesystemneERKNS0_4pathES3_' filepath='src/third_party/boost-1.56.0/boost/filesystem/path.hpp' line='621' column='1' visibility='default' binding='global' size-in-bits='64' elf-symbol-id='_ZN5boost10filesystemneERKNS0_4pathES3_'>
          <parameter type-id='b6693e9f' name='lhs' filepath='src/third_party/boost-1.56.0/boost/filesystem/path.hpp' line='615' column='1'/>
          <parameter type-id='b6693e9f' name='rhs' filepath='src/third_party/boost-1.56.0/boost/filesystem/path.hpp' line='615' column='1'/>
          <return type-id='c894953d'/>
        </function-decl>
        <function-decl name='operator/' mangled-name='_ZN5boost10filesystemdvERKNS0_4pathES3_' filepath='src/third_party/boost-1.56.0/boost/filesystem/path.hpp' line='648' column='1' visibility='default' binding='global' size-in-bits='64' elf-symbol-id='_ZN5boost10filesystemdvERKNS0_4pathES3_'>
          <parameter type-id='b6693e9f' name='p' filepath='src/third_party/boost-1.56.0/libs/filesystem/src/operations.cpp' line='708' column='1'/>
          <parameter type-id='b6693e9f' name='base' filepath='src/third_party/boost-1.56.0/libs/filesystem/src/operations.cpp' line='708' column='1'/>
          <return type-id='20b2cca0'/>
        </function-decl>
        <namespace-decl name='path_traits'>
          <typedef-decl name='codecvt_type' type-id='5bcbab0d' filepath='src/third_party/boost-1.56.0/boost/filesystem/path_traits.hpp' line='52' column='1' id='cb91c984'/>
          <function-decl name='convert' mangled-name='_ZN5boost10filesystem11path_traits7convertEPKcS3_RSsRKSt7codecvtIwc11__mbstate_tE' filepath='src/third_party/boost-1.56.0/boost/filesystem/path_traits.hpp' line='130' column='1' visibility='default' binding='global' size-in-bits='64' elf-symbol-id='_ZN5boost10filesystem11path_traits7convertEPKcS3_RSsRKSt7codecvtIwc11__mbstate_tE'>
            <parameter type-id='80f4b756' name='from' filepath='src/third_party/boost-1.56.0/boost/filesystem/path_traits.hpp' line='130' column='1'/>
            <parameter type-id='80f4b756' name='from_end' filepath='src/third_party/boost-1.56.0/boost/filesystem/path_traits.hpp' line='130' column='1'/>
            <parameter type-id='0f5b8043' name='to' filepath='src/third_party/boost-1.56.0/boost/filesystem/path_traits.hpp' line='130' column='1'/>
            <parameter type-id='823e0896' filepath='src/third_party/boost-1.56.0/boost/filesystem/path_traits.hpp' line='131' column='1'/>
            <return type-id='48b5725f'/>
          </function-decl>
          <function-decl name='convert' mangled-name='_ZN5boost10filesystem11path_traits7convertEPKcRSsRKSt7codecvtIwc11__mbstate_tE' filepath='src/third_party/boost-1.56.0/boost/filesystem/path_traits.hpp' line='139' column='1' visibility='default' binding='global' size-in-bits='64' elf-symbol-id='_ZN5boost10filesystem11path_traits7convertEPKcRSsRKSt7codecvtIwc11__mbstate_tE'>
            <parameter type-id='80f4b756' name='from' filepath='src/third_party/boost-1.56.0/boost/filesystem/path_traits.hpp' line='139' column='1'/>
            <parameter type-id='0f5b8043' name='to' filepath='src/third_party/boost-1.56.0/boost/filesystem/path_traits.hpp' line='140' column='1'/>
            <parameter type-id='823e0896' filepath='src/third_party/boost-1.56.0/boost/filesystem/path_traits.hpp' line='141' column='1'/>
            <return type-id='48b5725f'/>
          </function-decl>
          <function-decl name='dispatch&lt;char, std::basic_string&lt;char&gt; &gt;' mangled-name='_ZN5boost10filesystem11path_traits8dispatchIcSsEEvRKPT_RT0_RKSt7codecvtIwc11__mbstate_tE' filepath='src/third_party/boost-1.56.0/boost/filesystem/path_traits.hpp' line='211' column='1' visibility='default' binding='global' size-in-bits='64' elf-symbol-id='_ZN5boost10filesystem11path_traits8dispatchIcSsEEvRKPT_RT0_RKSt7codecvtIwc11__mbstate_tE'>
            <parameter type-id='ff1a0dc4' name='c_str' filepath='src/third_party/boost-1.56.0/boost/filesystem/path_traits.hpp' line='211' column='1'/>
            <parameter type-id='1a9350bb' name='to' filepath='src/third_party/boost-1.56.0/boost/filesystem/path_traits.hpp' line='211' column='1'/>
            <parameter type-id='823e0896' name='cvt' filepath='src/third_party/boost-1.56.0/boost/filesystem/path_traits.hpp' line='211' column='1'/>
            <return type-id='48b5725f'/>
          </function-decl>
          <function-decl name='dispatch' mangled-name='_ZN5boost10filesystem11path_traits8dispatchERKNS0_15directory_entryERSsRKSt7codecvtIwc11__mbstate_tE' filepath='src/third_party/boost-1.56.0/libs/filesystem/src/operations.cpp' line='1877' column='1' visibility='default' binding='global' size-in-bits='64' elf-symbol-id='_ZN5boost10filesystem11path_traits8dispatchERKNS0_15directory_entryERSsRKSt7codecvtIwc11__mbstate_tE'>
            <parameter type-id='de712296' name='de' filepath='src/third_party/boost-1.56.0/libs/filesystem/src/operations.cpp' line='1877' column='1'/>
            <parameter type-id='0f5b8043' name='to' filepath='src/third_party/boost-1.56.0/libs/filesystem/src/operations.cpp' line='1881' column='1'/>
            <parameter type-id='823e0896' filepath='src/third_party/boost-1.56.0/libs/filesystem/src/operations.cpp' line='1883' column='1'/>
            <return type-id='48b5725f'/>
          </function-decl>
        </namespace-decl>
        <function-decl name='absolute' mangled-name='_ZN5boost10filesystem8absoluteERKNS0_4pathES3_' filepath='src/third_party/boost-1.56.0/libs/filesystem/src/operations.cpp' line='708' column='1' visibility='default' binding='global' size-in-bits='64' elf-symbol-id='_ZN5boost10filesystem8absoluteERKNS0_4pathES3_'>
          <parameter type-id='b6693e9f' name='p' filepath='src/third_party/boost-1.56.0/libs/filesystem/src/operations.cpp' line='708' column='1'/>
          <parameter type-id='b6693e9f' name='base' filepath='src/third_party/boost-1.56.0/libs/filesystem/src/operations.cpp' line='708' column='1'/>
          <return type-id='20b2cca0'/>
        </function-decl>
      </namespace-decl>
      <namespace-decl name='iterators'>
        <class-decl name='enabled&lt;true&gt;' size-in-bits='8' is-struct='yes' visibility='default' filepath='src/third_party/boost-1.56.0/boost/iterator/detail/enable_if.hpp' line='30' column='1' id='c215fbce'>
          <member-type access='public'>
            <class-decl name='base&lt;bool&gt;' size-in-bits='8' is-struct='yes' visibility='default' filepath='src/third_party/boost-1.56.0/boost/iterator/detail/enable_if.hpp' line='33' column='1' id='82c7aae5'>
              <member-type access='public'>
                <typedef-decl name='type' type-id='c894953d' filepath='src/third_party/boost-1.56.0/boost/iterator/detail/enable_if.hpp' line='35' column='1' id='492719be'/>
              </member-type>
            </class-decl>
          </member-type>
        </class-decl>
      </namespace-decl>
      <function-decl name='operator==&lt;boost::filesystem::directory_iterator, boost::filesystem::directory_entry, boost::single_pass_traversal_tag, boost::filesystem::directory_entry &amp;, long, boost::filesystem::directory_iterator, boost::filesystem::directory_entry, boost::single_pass_traversal_tag, boost::filesystem::directory_entry &amp;, long&gt;' mangled-name='_ZN5boosteqINS_10filesystem18directory_iteratorENS1_15directory_entryENS_25single_pass_traversal_tagERS3_lS2_S3_S4_S5_lEENS_6detail23enable_if_interoperableIT_T4_NS_3mpl6apply2INS6_12always_bool2ES8_S9_E4typeEE4typeERKNS_15iterator_facadeIS8_T0_T1_T2_T3_EERKNSH_IS9_T5_T6_T7_T8_EE' filepath='src/third_party/boost-1.56.0/boost/iterator/iterator_facade.hpp' line='832' column='1' visibility='default' binding='global' size-in-bits='64' elf-symbol-id='_ZN5boosteqINS_10filesystem18directory_iteratorENS1_15directory_entryENS_25single_pass_traversal_tagERS3_lS2_S3_S4_S5_lEENS_6detail23enable_if_interoperableIT_T4_NS_3mpl6apply2INS6_12always_bool2ES8_S9_E4typeEE4typeERKNS_15iterator_facadeIS8_T0_T1_T2_T3_EERKNSH_IS9_T5_T6_T7_T8_EE'>
        <parameter type-id='3be3de65' name='lhs' filepath='src/third_party/boost-1.56.0/boost/iterator/iterator_facade.hpp' line='833' column='1'/>
        <parameter type-id='3be3de65' name='rhs' filepath='src/third_party/boost-1.56.0/boost/iterator/iterator_facade.hpp' line='833' column='1'/>
        <return type-id='492719be'/>
      </function-decl>
      <function-decl name='operator!=&lt;boost::filesystem::directory_iterator, boost::filesystem::directory_entry, boost::single_pass_traversal_tag, boost::filesystem::directory_entry &amp;, long, boost::filesystem::directory_iterator, boost::filesystem::directory_entry, boost::single_pass_traversal_tag, boost::filesystem::directory_entry &amp;, long&gt;' mangled-name='_ZN5boostneINS_10filesystem18directory_iteratorENS1_15directory_entryENS_25single_pass_traversal_tagERS3_lS2_S3_S4_S5_lEENS_6detail23enable_if_interoperableIT_T4_NS_3mpl6apply2INS6_12always_bool2ES8_S9_E4typeEE4typeERKNS_15iterator_facadeIS8_T0_T1_T2_T3_EERKNSH_IS9_T5_T6_T7_T8_EE' filepath='src/third_party/boost-1.56.0/boost/iterator/iterator_facade.hpp' line='833' column='1' visibility='default' binding='global' size-in-bits='64' elf-symbol-id='_ZN5boostneINS_10filesystem18directory_iteratorENS1_15directory_entryENS_25single_pass_traversal_tagERS3_lS2_S3_S4_S5_lEENS_6detail23enable_if_interoperableIT_T4_NS_3mpl6apply2INS6_12always_bool2ES8_S9_E4typeEE4typeERKNS_15iterator_facadeIS8_T0_T1_T2_T3_EERKNSH_IS9_T5_T6_T7_T8_EE'>
        <parameter type-id='3be3de65' name='lhs' filepath='src/third_party/boost-1.56.0/boost/iterator/iterator_facade.hpp' line='833' column='1'/>
        <parameter type-id='3be3de65' name='rhs' filepath='src/third_party/boost-1.56.0/boost/iterator/iterator_facade.hpp' line='833' column='1'/>
        <return type-id='492719be'/>
      </function-decl>
      <function-decl name='operator!=&lt;boost::filesystem::path::iterator, const boost::filesystem::path, boost::bidirectional_traversal_tag, const boost::filesystem::path &amp;, long, boost::filesystem::path::iterator, const boost::filesystem::path, boost::bidirectional_traversal_tag, const boost::filesystem::path &amp;, long&gt;' mangled-name='_ZN5boostneINS_10filesystem4path8iteratorEKS2_NS_27bidirectional_traversal_tagERS4_lS3_S4_S5_S6_lEENS_6detail23enable_if_interoperableIT_T4_NS_3mpl6apply2INS7_12always_bool2ES9_SA_E4typeEE4typeERKNS_15iterator_facadeIS9_T0_T1_T2_T3_EERKNSI_ISA_T5_T6_T7_T8_EE' filepath='src/third_party/boost-1.56.0/boost/iterator/iterator_facade.hpp' line='833' column='1' visibility='default' binding='global' size-in-bits='64' elf-symbol-id='_ZN5boostneINS_10filesystem4path8iteratorEKS2_NS_27bidirectional_traversal_tagERS4_lS3_S4_S5_S6_lEENS_6detail23enable_if_interoperableIT_T4_NS_3mpl6apply2INS7_12always_bool2ES9_SA_E4typeEE4typeERKNS_15iterator_facadeIS9_T0_T1_T2_T3_EERKNSI_ISA_T5_T6_T7_T8_EE'>
        <parameter type-id='8142c63d' name='lhs' filepath='src/third_party/boost-1.56.0/boost/iterator/iterator_facade.hpp' line='833' column='1'/>
        <parameter type-id='8142c63d' name='rhs' filepath='src/third_party/boost-1.56.0/boost/iterator/iterator_facade.hpp' line='833' column='1'/>
        <return type-id='492719be'/>
      </function-decl>
      <namespace-decl name='mpl'>
        <class-decl name='if_c&lt;true, boost::detail::operator_brackets_proxy&lt;boost::filesystem::directory_iterator&gt;, boost::filesystem::directory_entry&gt;' size-in-bits='8' is-struct='yes' visibility='default' filepath='src/third_party/boost-1.56.0/boost/mpl/if.hpp' line='34' column='1' id='ca609b61'>
          <member-type access='public'>
            <typedef-decl name='type' type-id='d36c9198' filepath='src/third_party/boost-1.56.0/boost/mpl/if.hpp' line='36' column='1' id='4e8d49e6'/>
          </member-type>
        </class-decl>
        <class-decl name='if_c&lt;true, boost::detail::operator_brackets_proxy&lt;boost::filesystem::path::iterator&gt;, const boost::filesystem::path&gt;' size-in-bits='8' is-struct='yes' visibility='default' filepath='src/third_party/boost-1.56.0/boost/mpl/if.hpp' line='34' column='1' id='5665b216'>
          <member-type access='public'>
            <typedef-decl name='type' type-id='386b04a1' filepath='src/third_party/boost-1.56.0/boost/mpl/if.hpp' line='36' column='1' id='bc29bf73'/>
          </member-type>
        </class-decl>
        <class-decl name='if_&lt;boost::detail::use_operator_brackets_proxy&lt;boost::filesystem::directory_entry, boost::filesystem::directory_entry &amp;&gt;, boost::detail::operator_brackets_proxy&lt;boost::filesystem::directory_iterator&gt;, boost::filesystem::directory_entry&gt;' size-in-bits='8' is-struct='yes' visibility='default' filepath='src/third_party/boost-1.56.0/boost/mpl/if.hpp' line='55' column='1' id='41e73541'>
          <member-type access='public'>
            <typedef-decl name='type' type-id='4e8d49e6' filepath='src/third_party/boost-1.56.0/boost/mpl/if.hpp' line='70' column='1' id='8fe45a9c'/>
          </member-type>
        </class-decl>
        <class-decl name='if_&lt;boost::detail::use_operator_brackets_proxy&lt;const boost::filesystem::path, const boost::filesystem::path &amp;&gt;, boost::detail::operator_brackets_proxy&lt;boost::filesystem::path::iterator&gt;, const boost::filesystem::path&gt;' size-in-bits='8' is-struct='yes' visibility='default' filepath='src/third_party/boost-1.56.0/boost/mpl/if.hpp' line='55' column='1' id='2486b7be'>
          <member-type access='public'>
            <typedef-decl name='type' type-id='bc29bf73' filepath='src/third_party/boost-1.56.0/boost/mpl/if.hpp' line='70' column='1' id='ad945ee9'/>
          </member-type>
        </class-decl>
      </namespace-decl>
      <function-decl name='operator==&lt;boost::filesystem::detail::dir_itr_imp, boost::filesystem::detail::dir_itr_imp&gt;' mangled-name='_ZN5boosteqINS_10filesystem6detail11dir_itr_impES3_EEbRKNS_10shared_ptrIT_EERKNS4_IT0_EE' filepath='src/third_party/boost-1.56.0/boost/smart_ptr/shared_ptr.hpp' line='728' column='1' visibility='default' binding='global' size-in-bits='64' elf-symbol-id='_ZN5boosteqINS_10filesystem6detail11dir_itr_impES3_EEbRKNS_10shared_ptrIT_EERKNS4_IT0_EE'>
        <parameter type-id='58ec38a6' name='a' filepath='src/third_party/boost-1.56.0/boost/smart_ptr/shared_ptr.hpp' line='728' column='1'/>
        <parameter type-id='58ec38a6' name='b' filepath='src/third_party/boost-1.56.0/boost/smart_ptr/shared_ptr.hpp' line='728' column='1'/>
        <return type-id='c894953d'/>
      </function-decl>
      <namespace-decl name='system'>
        <class-decl name='system_error' size-in-bits='320' visibility='default' filepath='src/third_party/boost-1.56.0/boost/system/system_error.hpp' line='22' column='1' id='a02f3699'>
          <base-class access='public' layout-offset-in-bits='0' type-id='58f30d83'/>
          <data-member access='private' layout-offset-in-bits='128'>
            <var-decl name='m_error_code' type-id='4dca76f3' visibility='default' filepath='src/third_party/boost-1.56.0/boost/system/system_error.hpp' line='53' column='1'/>
          </data-member>
          <data-member access='private' layout-offset-in-bits='256'>
            <var-decl name='m_what' type-id='4a30a7f0' visibility='default' filepath='src/third_party/boost-1.56.0/boost/system/system_error.hpp' line='54' column='1'/>
          </data-member>
          <member-function access='public' constructor='yes'>
            <function-decl name='system_error' filepath='src/third_party/boost-1.56.0/boost/system/system_error.hpp' line='27' column='1' visibility='default' binding='global' size-in-bits='64'>
              <parameter type-id='c9005a11' is-artificial='yes'/>
              <parameter type-id='4dca76f3'/>
              <return type-id='48b5725f'/>
            </function-decl>
          </member-function>
          <member-function access='public' constructor='yes'>
            <function-decl name='system_error' mangled-name='_ZN5boost6system12system_errorC2ENS0_10error_codeERKSs' filepath='src/third_party/boost-1.56.0/boost/system/system_error.hpp' line='30' column='1' visibility='default' binding='global' size-in-bits='64' elf-symbol-id='_ZN5boost6system12system_errorC2ENS0_10error_codeERKSs'>
              <parameter type-id='c9005a11' is-artificial='yes'/>
              <parameter type-id='4dca76f3'/>
              <parameter type-id='13a9aa92'/>
              <return type-id='48b5725f'/>
            </function-decl>
          </member-function>
          <member-function access='public' constructor='yes'>
            <function-decl name='system_error' filepath='src/third_party/boost-1.56.0/boost/system/system_error.hpp' line='33' column='1' visibility='default' binding='global' size-in-bits='64'>
              <parameter type-id='c9005a11' is-artificial='yes'/>
              <parameter type-id='4dca76f3'/>
              <parameter type-id='80f4b756'/>
              <return type-id='48b5725f'/>
            </function-decl>
          </member-function>
          <member-function access='public' constructor='yes'>
            <function-decl name='system_error' filepath='src/third_party/boost-1.56.0/boost/system/system_error.hpp' line='36' column='1' visibility='default' binding='global' size-in-bits='64'>
              <parameter type-id='c9005a11' is-artificial='yes'/>
              <parameter type-id='95e97e5e'/>
              <parameter type-id='04bc0b99'/>
              <return type-id='48b5725f'/>
            </function-decl>
          </member-function>
          <member-function access='public' constructor='yes'>
            <function-decl name='system_error' filepath='src/third_party/boost-1.56.0/boost/system/system_error.hpp' line='39' column='1' visibility='default' binding='global' size-in-bits='64'>
              <parameter type-id='c9005a11' is-artificial='yes'/>
              <parameter type-id='95e97e5e'/>
              <parameter type-id='04bc0b99'/>
              <parameter type-id='13a9aa92'/>
              <return type-id='48b5725f'/>
            </function-decl>
          </member-function>
          <member-function access='public' constructor='yes'>
            <function-decl name='system_error' mangled-name='_ZN5boost6system12system_errorC2EiRKNS0_14error_categoryEPKc' filepath='src/third_party/boost-1.56.0/boost/system/system_error.hpp' line='43' column='1' visibility='default' binding='global' size-in-bits='64' elf-symbol-id='_ZN5boost6system12system_errorC2EiRKNS0_14error_categoryEPKc'>
              <parameter type-id='c9005a11' is-artificial='yes'/>
              <parameter type-id='95e97e5e'/>
              <parameter type-id='04bc0b99'/>
              <parameter type-id='80f4b756'/>
              <return type-id='48b5725f'/>
            </function-decl>
          </member-function>
          <member-function access='public' destructor='yes' vtable-offset='0'>
            <function-decl name='~system_error' mangled-name='_ZN5boost6system12system_errorD0Ev' filepath='src/third_party/boost-1.56.0/boost/system/system_error.hpp' line='47' column='1' visibility='default' binding='global' size-in-bits='64' elf-symbol-id='_ZN5boost6system12system_errorD2Ev'>
              <parameter type-id='c9005a11' is-artificial='yes'/>
              <return type-id='48b5725f'/>
            </function-decl>
          </member-function>
          <member-function access='public' vtable-offset='2'>
            <function-decl name='what' mangled-name='_ZNK5boost6system12system_error4whatEv' filepath='src/third_party/boost-1.56.0/boost/system/system_error.hpp' line='50' column='1' visibility='default' binding='global' size-in-bits='64' elf-symbol-id='_ZNK5boost6system12system_error4whatEv'>
              <parameter type-id='b35b60e8' is-artificial='yes'/>
              <return type-id='80f4b756'/>
            </function-decl>
          </member-function>
        </class-decl>
      </namespace-decl>
      <namespace-decl name='detail'>
        <class-decl name='addr_impl_ref&lt;boost::filesystem::directory_entry&gt;' size-in-bits='64' is-struct='yes' visibility='default' filepath='src/third_party/boost-1.56.0/boost/core/addressof.hpp' line='25' column='1' id='d56be6bd'>
          <data-member access='public' layout-offset-in-bits='0'>
            <var-decl name='v_' type-id='717c50e9' visibility='default' filepath='src/third_party/boost-1.56.0/boost/core/addressof.hpp' line='27' column='1'/>
          </data-member>
          <member-function access='public'>
            <function-decl name='addr_impl_ref' mangled-name='_ZN5boost6detail13addr_impl_refINS_10filesystem15directory_entryEEC2ERS3_' filepath='src/third_party/boost-1.56.0/boost/core/addressof.hpp' line='29' column='1' visibility='default' binding='global' size-in-bits='64'>
              <parameter type-id='3822ce7d' is-artificial='yes'/>
              <parameter type-id='717c50e9'/>
              <return type-id='48b5725f'/>
            </function-decl>
          </member-function>
          <member-function access='public'>
            <function-decl name='operator boost::filesystem::directory_entry &amp;' mangled-name='_ZNK5boost6detail13addr_impl_refINS_10filesystem15directory_entryEEcvRS3_Ev' filepath='src/third_party/boost-1.56.0/boost/core/addressof.hpp' line='30' column='1' visibility='default' binding='global' size-in-bits='64'>
              <parameter type-id='7b27a892' is-artificial='yes'/>
              <return type-id='717c50e9'/>
            </function-decl>
          </member-function>
        </class-decl>
        <class-decl name='addressof_impl&lt;boost::filesystem::directory_entry&gt;' size-in-bits='8' is-struct='yes' visibility='default' filepath='src/third_party/boost-1.56.0/boost/core/addressof.hpp' line='36' column='1' id='672943ab'>
          <member-function access='public' static='yes'>
            <function-decl name='f' mangled-name='_ZN5boost6detail14addressof_implINS_10filesystem15directory_entryEE1fERS3_l' filepath='src/third_party/boost-1.56.0/boost/core/addressof.hpp' line='38' column='1' visibility='default' binding='global' size-in-bits='64'>
              <parameter type-id='717c50e9'/>
              <parameter type-id='bd54fe1a'/>
              <return type-id='7d7c63cd'/>
            </function-decl>
          </member-function>
        </class-decl>
        <typedef-decl name='sp_typeinfo' type-id='e8b195dc' filepath='src/third_party/boost-1.56.0/boost/detail/sp_typeinfo.hpp' line='28' column='1' id='11c1fa22'/>
        <class-decl name='operator_arrow_dispatch&lt;boost::filesystem::directory_entry &amp;, boost::filesystem::directory_entry *&gt;' size-in-bits='8' is-struct='yes' visibility='default' filepath='src/third_party/boost-1.56.0/boost/iterator/iterator_facade.hpp' line='319' column='1' id='fb2e2bc4'>
          <member-type access='public'>
            <typedef-decl name='result_type' type-id='7d7c63cd' filepath='src/third_party/boost-1.56.0/boost/iterator/iterator_facade.hpp' line='321' column='1' id='bc989bb1'/>
          </member-type>
          <member-function access='public' static='yes'>
            <function-decl name='apply' mangled-name='_ZN5boost6detail23operator_arrow_dispatchIRNS_10filesystem15directory_entryEPS3_E5applyES4_' filepath='src/third_party/boost-1.56.0/boost/iterator/iterator_facade.hpp' line='322' column='1' visibility='default' binding='global' size-in-bits='64' elf-symbol-id='_ZN5boost6detail23operator_arrow_dispatchIRNS_10filesystem15directory_entryEPS3_E5applyES4_'>
              <parameter type-id='717c50e9'/>
              <return type-id='bc989bb1'/>
            </function-decl>
          </member-function>
        </class-decl>
        <class-decl name='operator_arrow_dispatch&lt;const boost::filesystem::path &amp;, const boost::filesystem::path *&gt;' size-in-bits='8' is-struct='yes' visibility='default' filepath='src/third_party/boost-1.56.0/boost/iterator/iterator_facade.hpp' line='319' column='1' id='5be2a724'>
          <member-type access='public'>
            <typedef-decl name='result_type' type-id='ba6944eb' filepath='src/third_party/boost-1.56.0/boost/iterator/iterator_facade.hpp' line='321' column='1' id='666d9f01'/>
          </member-type>
          <member-function access='public' static='yes'>
            <function-decl name='apply' mangled-name='_ZN5boost6detail23operator_arrow_dispatchIRKNS_10filesystem4pathEPS4_E5applyES5_' filepath='src/third_party/boost-1.56.0/boost/iterator/iterator_facade.hpp' line='322' column='1' visibility='default' binding='global' size-in-bits='64' elf-symbol-id='_ZN5boost6detail23operator_arrow_dispatchIRKNS_10filesystem4pathEPS4_E5applyES5_'>
              <parameter type-id='b6693e9f'/>
              <return type-id='666d9f01'/>
            </function-decl>
          </member-function>
        </class-decl>
        <class-decl name='operator_brackets_result&lt;boost::filesystem::directory_iterator, boost::filesystem::directory_entry, boost::filesystem::directory_entry &amp;&gt;' size-in-bits='8' is-struct='yes' visibility='default' filepath='src/third_party/boost-1.56.0/boost/iterator/iterator_facade.hpp' line='383' column='1' id='7ecb32dd'>
          <member-type access='public'>
            <typedef-decl name='type' type-id='8fe45a9c' filepath='src/third_party/boost-1.56.0/boost/iterator/iterator_facade.hpp' line='389' column='1' id='e87e1cc0'/>
          </member-type>
        </class-decl>
        <class-decl name='operator_brackets_result&lt;boost::filesystem::path::iterator, const boost::filesystem::path, const boost::filesystem::path &amp;&gt;' size-in-bits='8' is-struct='yes' visibility='default' filepath='src/third_party/boost-1.56.0/boost/iterator/iterator_facade.hpp' line='383' column='1' id='3e92a34c'>
          <member-type access='public'>
            <typedef-decl name='type' type-id='ad945ee9' filepath='src/third_party/boost-1.56.0/boost/iterator/iterator_facade.hpp' line='389' column='1' id='53f0241d'/>
          </member-type>
        </class-decl>
        <class-decl name='sp_nothrow_tag' size-in-bits='8' is-struct='yes' visibility='default' filepath='src/third_party/boost-1.56.0/boost/smart_ptr/detail/shared_count.hpp' line='60' column='1' id='c9338307'/>
        <class-decl name='shared_count' size-in-bits='64' visibility='default' filepath='src/third_party/boost-1.56.0/boost/smart_ptr/detail/shared_count.hpp' line='100' column='1' id='6f9adacc'>
          <data-member access='private' layout-offset-in-bits='0'>
            <var-decl name='pi_' type-id='77be4445' visibility='default' filepath='src/third_party/boost-1.56.0/boost/smart_ptr/detail/shared_count.hpp' line='104' column='1'/>
          </data-member>
          <member-function access='public' constructor='yes'>
            <function-decl name='shared_count' mangled-name='_ZN5boost6detail12shared_countC2Ev' filepath='src/third_party/boost-1.56.0/boost/smart_ptr/detail/shared_count.hpp' line='114' column='1' visibility='default' binding='global' size-in-bits='64' elf-symbol-id='_ZN5boost6detail12shared_countC2Ev'>
              <parameter type-id='3580201a' is-artificial='yes'/>
              <return type-id='48b5725f'/>
            </function-decl>
          </member-function>
          <member-function access='public' destructor='yes'>
            <function-decl name='~shared_count' mangled-name='_ZN5boost6detail12shared_countD2Ev' filepath='src/third_party/boost-1.56.0/boost/smart_ptr/detail/shared_count.hpp' line='441' column='1' visibility='default' binding='global' size-in-bits='64' elf-symbol-id='_ZN5boost6detail12shared_countD2Ev'>
              <parameter type-id='3580201a' is-artificial='yes'/>
              <return type-id='48b5725f'/>
            </function-decl>
          </member-function>
          <member-function access='public' constructor='yes'>
            <function-decl name='shared_count' filepath='src/third_party/boost-1.56.0/boost/smart_ptr/detail/shared_count.hpp' line='449' column='1' visibility='default' binding='global' size-in-bits='64'>
              <parameter type-id='3580201a' is-artificial='yes'/>
              <parameter type-id='2224a0ab'/>
              <return type-id='48b5725f'/>
            </function-decl>
          </member-function>
          <member-function access='public' constructor='yes'>
            <function-decl name='shared_count' filepath='src/third_party/boost-1.56.0/boost/smart_ptr/detail/shared_count.hpp' line='459' column='1' visibility='default' binding='global' size-in-bits='64'>
              <parameter type-id='3580201a' is-artificial='yes'/>
              <parameter type-id='64949030'/>
              <return type-id='48b5725f'/>
            </function-decl>
          </member-function>
          <member-function access='public' constructor='yes'>
            <function-decl name='shared_count' filepath='src/third_party/boost-1.56.0/boost/smart_ptr/detail/shared_count.hpp' line='469' column='1' visibility='default' binding='global' size-in-bits='64'>
              <parameter type-id='3580201a' is-artificial='yes'/>
              <parameter type-id='ac060410'/>
              <return type-id='48b5725f'/>
            </function-decl>
          </member-function>
          <member-function access='public' constructor='yes'>
            <function-decl name='shared_count' filepath='src/third_party/boost-1.56.0/boost/smart_ptr/detail/shared_count.hpp' line='470' column='1' visibility='default' binding='global' size-in-bits='64'>
              <parameter type-id='3580201a' is-artificial='yes'/>
              <parameter type-id='ac060410'/>
              <parameter type-id='c9338307'/>
              <return type-id='48b5725f'/>
            </function-decl>
          </member-function>
          <member-function access='public'>
            <function-decl name='shared_count&lt;boost::filesystem::detail::dir_itr_imp&gt;' mangled-name='_ZN5boost6detail12shared_countC2INS_10filesystem6detail11dir_itr_impEEEPT_' filepath='src/third_party/boost-1.56.0/boost/smart_ptr/detail/shared_count.hpp' line='121' column='1' visibility='default' binding='global' size-in-bits='64' elf-symbol-id='_ZN5boost6detail12shared_countC2INS_10filesystem6detail11dir_itr_impEEEPT_'>
              <parameter type-id='3580201a' is-artificial='yes'/>
              <parameter type-id='07f93bcc'/>
              <return type-id='48b5725f'/>
            </function-decl>
          </member-function>
          <member-function access='public'>
            <function-decl name='shared_count&lt;boost::filesystem::filesystem_error::m_imp&gt;' mangled-name='_ZN5boost6detail12shared_countC2INS_10filesystem16filesystem_error5m_impEEEPT_' filepath='src/third_party/boost-1.56.0/boost/smart_ptr/detail/shared_count.hpp' line='121' column='1' visibility='default' binding='global' size-in-bits='64' elf-symbol-id='_ZN5boost6detail12shared_countC2INS_10filesystem16filesystem_error5m_impEEEPT_'>
              <parameter type-id='3580201a' is-artificial='yes'/>
              <parameter type-id='261a48bd'/>
              <return type-id='48b5725f'/>
            </function-decl>
          </member-function>
          <member-function access='public'>
            <function-decl name='swap' mangled-name='_ZN5boost6detail12shared_count4swapERS1_' filepath='src/third_party/boost-1.56.0/boost/smart_ptr/detail/shared_count.hpp' line='486' column='1' visibility='default' binding='global' size-in-bits='64' elf-symbol-id='_ZN5boost6detail12shared_count4swapERS1_'>
              <parameter type-id='3580201a' is-artificial='yes'/>
              <parameter type-id='29800d36'/>
              <return type-id='48b5725f'/>
            </function-decl>
          </member-function>
        </class-decl>
        <class-decl name='weak_count' size-in-bits='64' visibility='default' filepath='src/third_party/boost-1.56.0/boost/smart_ptr/detail/shared_count.hpp' line='530' column='1' id='e6a4d6cd'>
          <data-member access='private' layout-offset-in-bits='0'>
            <var-decl name='pi_' type-id='77be4445' visibility='default' filepath='src/third_party/boost-1.56.0/boost/smart_ptr/detail/shared_count.hpp' line='534' column='1'/>
          </data-member>
          <member-function access='public' constructor='yes'>
            <function-decl name='weak_count' filepath='src/third_party/boost-1.56.0/boost/smart_ptr/detail/shared_count.hpp' line='544' column='1' visibility='default' binding='global' size-in-bits='64'>
              <parameter type-id='6e13c82d' is-artificial='yes'/>
              <return type-id='48b5725f'/>
            </function-decl>
          </member-function>
          <member-function access='public' constructor='yes'>
            <function-decl name='weak_count' filepath='src/third_party/boost-1.56.0/boost/smart_ptr/detail/shared_count.hpp' line='551' column='1' visibility='default' binding='global' size-in-bits='64'>
              <parameter type-id='6e13c82d' is-artificial='yes'/>
              <parameter type-id='2224a0ab'/>
              <return type-id='48b5725f'/>
            </function-decl>
          </member-function>
          <member-function access='public' constructor='yes'>
            <function-decl name='weak_count' filepath='src/third_party/boost-1.56.0/boost/smart_ptr/detail/shared_count.hpp' line='559' column='1' visibility='default' binding='global' size-in-bits='64'>
              <parameter type-id='6e13c82d' is-artificial='yes'/>
              <parameter type-id='ac060410'/>
              <return type-id='48b5725f'/>
            </function-decl>
          </member-function>
          <member-function access='public' constructor='yes'>
            <function-decl name='weak_count' filepath='src/third_party/boost-1.56.0/boost/smart_ptr/detail/shared_count.hpp' line='571' column='1' visibility='default' binding='global' size-in-bits='64'>
              <parameter type-id='6e13c82d' is-artificial='yes'/>
              <parameter type-id='d4069dbd'/>
              <return type-id='48b5725f'/>
            </function-decl>
          </member-function>
          <member-function access='public' destructor='yes'>
            <function-decl name='~weak_count' filepath='src/third_party/boost-1.56.0/boost/smart_ptr/detail/shared_count.hpp' line='581' column='1' visibility='default' binding='global' size-in-bits='64'>
              <parameter type-id='6e13c82d' is-artificial='yes'/>
              <return type-id='48b5725f'/>
            </function-decl>
          </member-function>
        </class-decl>
        <class-decl name='sp_counted_base' size-in-bits='128' visibility='default' filepath='src/third_party/boost-1.56.0/boost/smart_ptr/detail/sp_counted_base_gcc_x86.hpp' line='97' column='1' id='c45344b5'>
          <data-member access='private' layout-offset-in-bits='64'>
            <var-decl name='use_count_' type-id='95e97e5e' visibility='default' filepath='src/third_party/boost-1.56.0/boost/smart_ptr/detail/sp_counted_base_gcc_x86.hpp' line='104' column='1'/>
          </data-member>
          <data-member access='private' layout-offset-in-bits='96'>
            <var-decl name='weak_count_' type-id='95e97e5e' visibility='default' filepath='src/third_party/boost-1.56.0/boost/smart_ptr/detail/sp_counted_base_gcc_x86.hpp' line='105' column='1'/>
          </data-member>
          <member-function access='private' constructor='yes'>
            <function-decl name='sp_counted_base' filepath='src/third_party/boost-1.56.0/boost/smart_ptr/detail/sp_counted_base_gcc_x86.hpp' line='101' column='1' visibility='default' binding='global' size-in-bits='64'>
              <parameter type-id='77be4445' is-artificial='yes'/>
              <parameter type-id='fd9e6afa'/>
              <return type-id='48b5725f'/>
            </function-decl>
          </member-function>
          <member-function access='public' constructor='yes'>
            <function-decl name='sp_counted_base' mangled-name='_ZN5boost6detail15sp_counted_baseC2Ev' filepath='src/third_party/boost-1.56.0/boost/smart_ptr/detail/sp_counted_base_gcc_x86.hpp' line='109' column='1' visibility='default' binding='global' size-in-bits='64' elf-symbol-id='_ZN5boost6detail15sp_counted_baseC2Ev'>
              <parameter type-id='77be4445' is-artificial='yes'/>
              <return type-id='48b5725f'/>
            </function-decl>
          </member-function>
          <member-function access='public'>
            <function-decl name='release' mangled-name='_ZN5boost6detail15sp_counted_base7releaseEv' filepath='src/third_party/boost-1.56.0/boost/smart_ptr/detail/sp_counted_base_gcc_x86.hpp' line='142' column='1' visibility='default' binding='global' size-in-bits='64' elf-symbol-id='_ZN5boost6detail15sp_counted_base7releaseEv'>
              <parameter type-id='77be4445' is-artificial='yes'/>
              <return type-id='48b5725f'/>
            </function-decl>
          </member-function>
          <member-function access='public'>
            <function-decl name='weak_release' mangled-name='_ZN5boost6detail15sp_counted_base12weak_releaseEv' filepath='src/third_party/boost-1.56.0/boost/smart_ptr/detail/sp_counted_base_gcc_x86.hpp' line='156' column='1' visibility='default' binding='global' size-in-bits='64' elf-symbol-id='_ZN5boost6detail15sp_counted_base12weak_releaseEv'>
              <parameter type-id='77be4445' is-artificial='yes'/>
              <return type-id='48b5725f'/>
            </function-decl>
          </member-function>
          <member-function access='public' destructor='yes' vtable-offset='0'>
            <function-decl name='~sp_counted_base' mangled-name='_ZN5boost6detail15sp_counted_baseD0Ev' filepath='src/third_party/boost-1.56.0/boost/smart_ptr/detail/sp_counted_base_gcc_x86.hpp' line='113' column='1' visibility='default' binding='global' size-in-bits='64' elf-symbol-id='_ZN5boost6detail15sp_counted_baseD2Ev'>
              <parameter type-id='77be4445' is-artificial='yes'/>
              <return type-id='48b5725f'/>
            </function-decl>
          </member-function>
          <member-function access='public' vtable-offset='2'>
            <function-decl name='dispose' mangled-name='_ZN5boost6detail15sp_counted_base7disposeEv' filepath='src/third_party/boost-1.56.0/boost/smart_ptr/detail/sp_counted_base_gcc_x86.hpp' line='120' column='1' visibility='default' binding='global' size-in-bits='64'>
              <parameter type-id='77be4445' is-artificial='yes'/>
              <return type-id='48b5725f'/>
            </function-decl>
          </member-function>
          <member-function access='public' vtable-offset='3'>
            <function-decl name='destroy' mangled-name='_ZN5boost6detail15sp_counted_base7destroyEv' filepath='src/third_party/boost-1.56.0/boost/smart_ptr/detail/sp_counted_base_gcc_x86.hpp' line='124' column='1' visibility='default' binding='global' size-in-bits='64' elf-symbol-id='_ZN5boost6detail15sp_counted_base7destroyEv'>
              <parameter type-id='77be4445' is-artificial='yes'/>
              <return type-id='48b5725f'/>
            </function-decl>
          </member-function>
          <member-function access='public' vtable-offset='4'>
            <function-decl name='get_deleter' mangled-name='_ZN5boost6detail15sp_counted_base11get_deleterERKSt9type_info' filepath='src/third_party/boost-1.56.0/boost/smart_ptr/detail/sp_counted_base_gcc_x86.hpp' line='129' column='1' visibility='default' binding='global' size-in-bits='64'>
              <parameter type-id='77be4445' is-artificial='yes'/>
              <parameter type-id='11b7035c'/>
              <return type-id='eaa32e2f'/>
            </function-decl>
          </member-function>
          <member-function access='public' vtable-offset='5'>
            <function-decl name='get_untyped_deleter' mangled-name='_ZN5boost6detail15sp_counted_base19get_untyped_deleterEv' filepath='src/third_party/boost-1.56.0/boost/smart_ptr/detail/sp_counted_base_gcc_x86.hpp' line='130' column='1' visibility='default' binding='global' size-in-bits='64'>
              <parameter type-id='77be4445' is-artificial='yes'/>
              <return type-id='eaa32e2f'/>
            </function-decl>
          </member-function>
        </class-decl>
        <class-decl name='sp_counted_impl_p&lt;boost::filesystem::detail::dir_itr_imp&gt;' size-in-bits='192' visibility='default' filepath='src/third_party/boost-1.56.0/boost/smart_ptr/detail/sp_counted_impl.hpp' line='53' column='1' id='f6eb022e'>
          <base-class access='public' layout-offset-in-bits='0' type-id='c45344b5'/>
          <data-member access='private' layout-offset-in-bits='128'>
            <var-decl name='px_' type-id='07f93bcc' visibility='default' filepath='src/third_party/boost-1.56.0/boost/smart_ptr/detail/sp_counted_impl.hpp' line='57' column='1'/>
          </data-member>
          <member-function access='private'>
            <function-decl name='sp_counted_impl_p' filepath='src/third_party/boost-1.56.0/boost/smart_ptr/detail/sp_counted_impl.hpp' line='59' column='1' visibility='default' binding='global' size-in-bits='64'>
              <parameter type-id='81d79d04' is-artificial='yes'/>
              <parameter type-id='c14fdf8f'/>
              <return type-id='48b5725f'/>
            </function-decl>
          </member-function>
          <member-function access='public'>
            <function-decl name='sp_counted_impl_p' mangled-name='_ZN5boost6detail17sp_counted_impl_pINS_10filesystem6detail11dir_itr_impEEC2EPS4_' filepath='src/third_party/boost-1.56.0/boost/smart_ptr/detail/sp_counted_impl.hpp' line='66' column='1' visibility='default' binding='global' size-in-bits='64' elf-symbol-id='_ZN5boost6detail17sp_counted_impl_pINS_10filesystem6detail11dir_itr_impEEC2EPS4_'>
              <parameter type-id='81d79d04' is-artificial='yes'/>
              <parameter type-id='07f93bcc'/>
              <return type-id='48b5725f'/>
            </function-decl>
          </member-function>
          <member-function access='public' vtable-offset='2'>
            <function-decl name='dispose' mangled-name='_ZN5boost6detail17sp_counted_impl_pINS_10filesystem6detail11dir_itr_impEE7disposeEv' filepath='src/third_party/boost-1.56.0/boost/smart_ptr/detail/sp_counted_impl.hpp' line='73' column='1' visibility='default' binding='global' size-in-bits='64' elf-symbol-id='_ZN5boost6detail17sp_counted_impl_pINS_10filesystem6detail11dir_itr_impEE7disposeEv'>
              <parameter type-id='81d79d04' is-artificial='yes'/>
              <return type-id='48b5725f'/>
            </function-decl>
          </member-function>
          <member-function access='public' vtable-offset='4'>
            <function-decl name='get_deleter' mangled-name='_ZN5boost6detail17sp_counted_impl_pINS_10filesystem6detail11dir_itr_impEE11get_deleterERKSt9type_info' filepath='src/third_party/boost-1.56.0/boost/smart_ptr/detail/sp_counted_impl.hpp' line='81' column='1' visibility='default' binding='global' size-in-bits='64' elf-symbol-id='_ZN5boost6detail17sp_counted_impl_pINS_10filesystem6detail11dir_itr_impEE11get_deleterERKSt9type_info'>
              <parameter type-id='81d79d04' is-artificial='yes'/>
              <parameter type-id='11b7035c'/>
              <return type-id='eaa32e2f'/>
            </function-decl>
          </member-function>
          <member-function access='public' vtable-offset='5'>
            <function-decl name='get_untyped_deleter' mangled-name='_ZN5boost6detail17sp_counted_impl_pINS_10filesystem6detail11dir_itr_impEE19get_untyped_deleterEv' filepath='src/third_party/boost-1.56.0/boost/smart_ptr/detail/sp_counted_impl.hpp' line='86' column='1' visibility='default' binding='global' size-in-bits='64' elf-symbol-id='_ZN5boost6detail17sp_counted_impl_pINS_10filesystem6detail11dir_itr_impEE19get_untyped_deleterEv'>
              <parameter type-id='81d79d04' is-artificial='yes'/>
              <return type-id='eaa32e2f'/>
            </function-decl>
          </member-function>
        </class-decl>
        <class-decl name='sp_counted_impl_p&lt;boost::filesystem::filesystem_error::m_imp&gt;' size-in-bits='192' visibility='default' filepath='src/third_party/boost-1.56.0/boost/smart_ptr/detail/sp_counted_impl.hpp' line='53' column='1' id='bbd227fb'>
          <base-class access='public' layout-offset-in-bits='0' type-id='c45344b5'/>
          <data-member access='private' layout-offset-in-bits='128'>
            <var-decl name='px_' type-id='261a48bd' visibility='default' filepath='src/third_party/boost-1.56.0/boost/smart_ptr/detail/sp_counted_impl.hpp' line='57' column='1'/>
          </data-member>
          <member-function access='private'>
            <function-decl name='sp_counted_impl_p' filepath='src/third_party/boost-1.56.0/boost/smart_ptr/detail/sp_counted_impl.hpp' line='59' column='1' visibility='default' binding='global' size-in-bits='64'>
              <parameter type-id='ba05817b' is-artificial='yes'/>
              <parameter type-id='20cde420'/>
              <return type-id='48b5725f'/>
            </function-decl>
          </member-function>
          <member-function access='public'>
            <function-decl name='sp_counted_impl_p' mangled-name='_ZN5boost6detail17sp_counted_impl_pINS_10filesystem16filesystem_error5m_impEEC2EPS4_' filepath='src/third_party/boost-1.56.0/boost/smart_ptr/detail/sp_counted_impl.hpp' line='66' column='1' visibility='default' binding='global' size-in-bits='64' elf-symbol-id='_ZN5boost6detail17sp_counted_impl_pINS_10filesystem16filesystem_error5m_impEEC2EPS4_'>
              <parameter type-id='ba05817b' is-artificial='yes'/>
              <parameter type-id='261a48bd'/>
              <return type-id='48b5725f'/>
            </function-decl>
          </member-function>
          <member-function access='public' vtable-offset='2'>
            <function-decl name='dispose' mangled-name='_ZN5boost6detail17sp_counted_impl_pINS_10filesystem16filesystem_error5m_impEE7disposeEv' filepath='src/third_party/boost-1.56.0/boost/smart_ptr/detail/sp_counted_impl.hpp' line='73' column='1' visibility='default' binding='global' size-in-bits='64' elf-symbol-id='_ZN5boost6detail17sp_counted_impl_pINS_10filesystem16filesystem_error5m_impEE7disposeEv'>
              <parameter type-id='ba05817b' is-artificial='yes'/>
              <return type-id='48b5725f'/>
            </function-decl>
          </member-function>
          <member-function access='public' vtable-offset='4'>
            <function-decl name='get_deleter' mangled-name='_ZN5boost6detail17sp_counted_impl_pINS_10filesystem16filesystem_error5m_impEE11get_deleterERKSt9type_info' filepath='src/third_party/boost-1.56.0/boost/smart_ptr/detail/sp_counted_impl.hpp' line='81' column='1' visibility='default' binding='global' size-in-bits='64' elf-symbol-id='_ZN5boost6detail17sp_counted_impl_pINS_10filesystem16filesystem_error5m_impEE11get_deleterERKSt9type_info'>
              <parameter type-id='ba05817b' is-artificial='yes'/>
              <parameter type-id='11b7035c'/>
              <return type-id='eaa32e2f'/>
            </function-decl>
          </member-function>
          <member-function access='public' vtable-offset='5'>
            <function-decl name='get_untyped_deleter' mangled-name='_ZN5boost6detail17sp_counted_impl_pINS_10filesystem16filesystem_error5m_impEE19get_untyped_deleterEv' filepath='src/third_party/boost-1.56.0/boost/smart_ptr/detail/sp_counted_impl.hpp' line='86' column='1' visibility='default' binding='global' size-in-bits='64' elf-symbol-id='_ZN5boost6detail17sp_counted_impl_pINS_10filesystem16filesystem_error5m_impEE19get_untyped_deleterEv'>
              <parameter type-id='ba05817b' is-artificial='yes'/>
              <return type-id='eaa32e2f'/>
            </function-decl>
          </member-function>
        </class-decl>
        <class-decl name='sp_element&lt;boost::filesystem::detail::dir_itr_imp&gt;' size-in-bits='8' is-struct='yes' visibility='default' filepath='src/third_party/boost-1.56.0/boost/smart_ptr/shared_ptr.hpp' line='63' column='1' id='0605991e'>
          <member-type access='public'>
            <typedef-decl name='type' type-id='cd4c9d36' filepath='src/third_party/boost-1.56.0/boost/smart_ptr/shared_ptr.hpp' line='65' column='1' id='616ea405'/>
          </member-type>
        </class-decl>
        <class-decl name='sp_element&lt;boost::filesystem::filesystem_error::m_imp&gt;' size-in-bits='8' is-struct='yes' visibility='default' filepath='src/third_party/boost-1.56.0/boost/smart_ptr/shared_ptr.hpp' line='63' column='1' id='6d07e84b'>
          <member-type access='public'>
            <typedef-decl name='type' type-id='48ea06ad' filepath='src/third_party/boost-1.56.0/boost/smart_ptr/shared_ptr.hpp' line='65' column='1' id='21e98370'/>
          </member-type>
        </class-decl>
        <class-decl name='sp_dereference&lt;boost::filesystem::detail::dir_itr_imp&gt;' size-in-bits='8' is-struct='yes' visibility='default' filepath='src/third_party/boost-1.56.0/boost/smart_ptr/shared_ptr.hpp' line='88' column='1' id='4489b6be'>
          <member-type access='public'>
            <typedef-decl name='type' type-id='0bf94218' filepath='src/third_party/boost-1.56.0/boost/smart_ptr/shared_ptr.hpp' line='90' column='1' id='e976e655'/>
          </member-type>
        </class-decl>
        <class-decl name='sp_dereference&lt;boost::filesystem::filesystem_error::m_imp&gt;' size-in-bits='8' is-struct='yes' visibility='default' filepath='src/third_party/boost-1.56.0/boost/smart_ptr/shared_ptr.hpp' line='88' column='1' id='291c916b'>
          <member-type access='public'>
            <typedef-decl name='type' type-id='1a1a35d9' filepath='src/third_party/boost-1.56.0/boost/smart_ptr/shared_ptr.hpp' line='90' column='1' id='149178a0'/>
          </member-type>
        </class-decl>
        <class-decl name='sp_member_access&lt;boost::filesystem::detail::dir_itr_imp&gt;' size-in-bits='8' is-struct='yes' visibility='default' filepath='src/third_party/boost-1.56.0/boost/smart_ptr/shared_ptr.hpp' line='137' column='1' id='1c552033'>
          <member-type access='public'>
            <typedef-decl name='type' type-id='07f93bcc' filepath='src/third_party/boost-1.56.0/boost/smart_ptr/shared_ptr.hpp' line='139' column='1' id='3c9b3798'/>
          </member-type>
        </class-decl>
        <class-decl name='sp_member_access&lt;boost::filesystem::filesystem_error::m_imp&gt;' size-in-bits='8' is-struct='yes' visibility='default' filepath='src/third_party/boost-1.56.0/boost/smart_ptr/shared_ptr.hpp' line='137' column='1' id='20b86fc6'>
          <member-type access='public'>
            <typedef-decl name='type' type-id='261a48bd' filepath='src/third_party/boost-1.56.0/boost/smart_ptr/shared_ptr.hpp' line='139' column='1' id='9a1a0665'/>
          </member-type>
        </class-decl>
        <class-decl name='sp_array_access&lt;boost::filesystem::detail::dir_itr_imp&gt;' size-in-bits='8' is-struct='yes' visibility='default' filepath='src/third_party/boost-1.56.0/boost/smart_ptr/shared_ptr.hpp' line='162' column='1' id='7b770934'>
          <member-type access='public'>
            <typedef-decl name='type' type-id='48b5725f' filepath='src/third_party/boost-1.56.0/boost/smart_ptr/shared_ptr.hpp' line='164' column='1' id='9bb07809'/>
          </member-type>
        </class-decl>
        <class-decl name='sp_array_access&lt;boost::filesystem::filesystem_error::m_imp&gt;' size-in-bits='8' is-struct='yes' visibility='default' filepath='src/third_party/boost-1.56.0/boost/smart_ptr/shared_ptr.hpp' line='162' column='1' id='3f919a7d'>
          <member-type access='public'>
            <typedef-decl name='type' type-id='48b5725f' filepath='src/third_party/boost-1.56.0/boost/smart_ptr/shared_ptr.hpp' line='164' column='1' id='af6ffb2c'/>
          </member-type>
        </class-decl>
        <class-decl name='operator_brackets_proxy&lt;boost::filesystem::directory_iterator&gt;' visibility='default' is-declaration-only='yes' id='d36c9198'/>
        <class-decl name='operator_brackets_proxy&lt;boost::filesystem::path::iterator&gt;' visibility='default' is-declaration-only='yes' id='386b04a1'/>
        <function-decl name='atomic_exchange_and_add' mangled-name='_ZN5boost6detail23atomic_exchange_and_addEPii' filepath='src/third_party/boost-1.56.0/boost/smart_ptr/detail/sp_counted_base_gcc_x86.hpp' line='35' column='1' visibility='default' binding='global' size-in-bits='64' elf-symbol-id='_ZN5boost6detail23atomic_exchange_and_addEPii'>
          <parameter type-id='7292109c' name='pw' filepath='src/third_party/boost-1.56.0/boost/smart_ptr/detail/sp_counted_base_gcc_x86.hpp' line='35' column='1'/>
          <parameter type-id='95e97e5e' name='dv' filepath='src/third_party/boost-1.56.0/boost/smart_ptr/detail/sp_counted_base_gcc_x86.hpp' line='35' column='1'/>
          <return type-id='95e97e5e'/>
        </function-decl>
        <function-decl name='sp_enable_shared_from_this' mangled-name='_ZN5boost6detail26sp_enable_shared_from_thisEz' filepath='src/third_party/boost-1.56.0/boost/smart_ptr/shared_ptr.hpp' line='228' column='1' visibility='default' binding='global' size-in-bits='64' elf-symbol-id='_ZN5boost6detail26sp_enable_shared_from_thisEz'>
          <parameter is-variadic='yes'/>
          <return type-id='48b5725f'/>
        </function-decl>
        <function-decl name='sp_pointer_construct&lt;boost::filesystem::detail::dir_itr_imp, boost::filesystem::detail::dir_itr_imp&gt;' mangled-name='_ZN5boost6detail20sp_pointer_constructINS_10filesystem6detail11dir_itr_impES4_EEvPNS_10shared_ptrIT_EEPT0_RNS0_12shared_countE' filepath='src/third_party/boost-1.56.0/boost/smart_ptr/shared_ptr.hpp' line='269' column='1' visibility='default' binding='global' size-in-bits='64' elf-symbol-id='_ZN5boost6detail20sp_pointer_constructINS_10filesystem6detail11dir_itr_impES4_EEvPNS_10shared_ptrIT_EEPT0_RNS0_12shared_countE'>
          <parameter type-id='80010d5b' name='ppx' filepath='src/third_party/boost-1.56.0/boost/smart_ptr/shared_ptr.hpp' line='269' column='1'/>
          <parameter type-id='07f93bcc' name='p' filepath='src/third_party/boost-1.56.0/boost/smart_ptr/shared_ptr.hpp' line='269' column='1'/>
          <parameter type-id='29800d36' name='pn' filepath='src/third_party/boost-1.56.0/boost/smart_ptr/shared_ptr.hpp' line='269' column='1'/>
          <return type-id='48b5725f'/>
        </function-decl>
        <function-decl name='sp_pointer_construct&lt;boost::filesystem::filesystem_error::m_imp, boost::filesystem::filesystem_error::m_imp&gt;' mangled-name='_ZN5boost6detail20sp_pointer_constructINS_10filesystem16filesystem_error5m_impES4_EEvPNS_10shared_ptrIT_EEPT0_RNS0_12shared_countE' filepath='src/third_party/boost-1.56.0/boost/smart_ptr/shared_ptr.hpp' line='269' column='1' visibility='default' binding='global' size-in-bits='64' elf-symbol-id='_ZN5boost6detail20sp_pointer_constructINS_10filesystem16filesystem_error5m_impES4_EEvPNS_10shared_ptrIT_EEPT0_RNS0_12shared_countE'>
          <parameter type-id='f54a1684' name='ppx' filepath='src/third_party/boost-1.56.0/boost/smart_ptr/shared_ptr.hpp' line='269' column='1'/>
          <parameter type-id='261a48bd' name='p' filepath='src/third_party/boost-1.56.0/boost/smart_ptr/shared_ptr.hpp' line='269' column='1'/>
          <parameter type-id='29800d36' name='pn' filepath='src/third_party/boost-1.56.0/boost/smart_ptr/shared_ptr.hpp' line='269' column='1'/>
          <return type-id='48b5725f'/>
        </function-decl>
      </namespace-decl>
    </namespace-decl>
    <namespace-decl name='mpl_'>
      <class-decl name='bool_&lt;true&gt;' size-in-bits='8' is-struct='yes' visibility='default' filepath='src/third_party/boost-1.56.0/boost/mpl/bool.hpp' line='23' column='1' id='8a5c8b50'>
        <data-member access='public' static='yes'>
          <var-decl name='value' type-id='4ab96a04' visibility='default' filepath='src/third_party/boost-1.56.0/boost/mpl/bool.hpp' line='25' column='1'/>
        </data-member>
      </class-decl>
      <typedef-decl name='true_' type-id='8a5c8b50' filepath='src/third_party/boost-1.56.0/boost/mpl/bool_fwd.hpp' line='24' column='1' id='27cfcd09'/>
    </namespace-decl>
  </abi-instr>
  <abi-instr address-size='64' path='src/third_party/boost-1.56.0/libs/filesystem/src/path.cpp' comp-dir-path='/home/andrew/Documents/10gen/dev/src/mongodb' language='LANG_C_plus_plus'>
    <reference-type-def kind='lvalue' type-id='a42ef078' size-in-bits='64' id='ff09be12'/>
    <pointer-type-def type-id='a42ef078' size-in-bits='64' id='0309c45e'/>
    <reference-type-def kind='lvalue' type-id='0eb2b427' size-in-bits='64' id='116c826b'/>
    <pointer-type-def type-id='0eb2b427' size-in-bits='64' id='0d6c7c1f'/>
    <reference-type-def kind='lvalue' type-id='678be8cb' size-in-bits='64' id='765d8faf'/>
    <pointer-type-def type-id='678be8cb' size-in-bits='64' id='7a5d95fb'/>
    <qualified-type-def type-id='a42ef078' const='yes' id='0a752dd5'/>
    <pointer-type-def type-id='0a752dd5' size-in-bits='64' id='7577686d'/>
    <qualified-type-def type-id='0eb2b427' const='yes' id='a936a026'/>
    <pointer-type-def type-id='a936a026' size-in-bits='64' id='6cfdf2e4'/>
    <qualified-type-def type-id='678be8cb' const='yes' id='e56ff0f0'/>
    <reference-type-def kind='lvalue' type-id='e56ff0f0' size-in-bits='64' id='053820e2'/>
    <pointer-type-def type-id='e56ff0f0' size-in-bits='64' id='0938272e'/>
    <reference-type-def kind='lvalue' type-id='9b45d938' size-in-bits='64' id='8cf4ca3a'/>
    <reference-type-def kind='lvalue' type-id='b99c00c9' size-in-bits='64' id='1f95783d'/>
    <qualified-type-def type-id='d3b6d5a2' const='yes' id='1c751112'/>
    <reference-type-def kind='lvalue' type-id='1c751112' size-in-bits='64' id='004a14dc'/>
    <pointer-type-def type-id='1c751112' size-in-bits='64' id='044a1b28'/>
    <qualified-type-def type-id='e967275f' const='yes' id='dda95aaf'/>
    <reference-type-def kind='lvalue' type-id='dda95aaf' size-in-bits='64' id='7a9985ab'/>
    <reference-type-def kind='lvalue' type-id='d3b6d5a2' size-in-bits='64' id='e28cef01'/>
    <pointer-type-def type-id='d3b6d5a2' size-in-bits='64' id='de8ce8b5'/>
    <namespace-decl name='__gnu_cxx'>
      <class-decl name='__normal_iterator&lt;char *, std::basic_string&lt;char&gt; &gt;' size-in-bits='64' visibility='default' filepath='/usr/bin/../lib/gcc/x86_64-linux-gnu/4.9/../../../../include/c++/4.9/bits/stl_iterator.h' line='709' column='1' id='a42ef078'>
        <member-type access='private'>
          <typedef-decl name='difference_type' type-id='72690d37' filepath='/usr/bin/../lib/gcc/x86_64-linux-gnu/4.9/../../../../include/c++/4.9/bits/stl_iterator.h' line='720' column='1' id='bdcb3dcf'/>
        </member-type>
        <member-type access='private'>
          <typedef-decl name='reference' type-id='c3131322' filepath='/usr/bin/../lib/gcc/x86_64-linux-gnu/4.9/../../../../include/c++/4.9/bits/stl_iterator.h' line='721' column='1' id='b3e896ca'/>
        </member-type>
        <member-type access='private'>
          <typedef-decl name='pointer' type-id='827b1a12' filepath='/usr/bin/../lib/gcc/x86_64-linux-gnu/4.9/../../../../include/c++/4.9/bits/stl_iterator.h' line='722' column='1' id='e7007dfa'/>
        </member-type>
        <data-member access='protected' layout-offset-in-bits='0'>
          <var-decl name='_M_current' type-id='26a90f95' visibility='default' filepath='/usr/bin/../lib/gcc/x86_64-linux-gnu/4.9/../../../../include/c++/4.9/bits/stl_iterator.h' line='712' column='1'/>
        </data-member>
        <member-function access='public'>
          <function-decl name='__normal_iterator' filepath='/usr/bin/../lib/gcc/x86_64-linux-gnu/4.9/../../../../include/c++/4.9/bits/stl_iterator.h' line='724' column='1' visibility='default' binding='global' size-in-bits='64'>
            <parameter type-id='0309c45e' is-artificial='yes'/>
            <return type-id='48b5725f'/>
          </function-decl>
        </member-function>
        <member-function access='public'>
          <function-decl name='__normal_iterator' mangled-name='_ZN9__gnu_cxx17__normal_iteratorIPcSsEC2ERKS1_' filepath='/usr/bin/../lib/gcc/x86_64-linux-gnu/4.9/../../../../include/c++/4.9/bits/stl_iterator.h' line='728' column='1' visibility='default' binding='global' size-in-bits='64' elf-symbol-id='_ZN9__gnu_cxx17__normal_iteratorIPcSsEC2ERKS1_'>
            <parameter type-id='0309c45e' is-artificial='yes'/>
            <parameter type-id='ff1a0dc4'/>
            <return type-id='48b5725f'/>
          </function-decl>
        </member-function>
        <member-function access='public'>
          <function-decl name='operator-' mangled-name='_ZNK9__gnu_cxx17__normal_iteratorIPcSsEmiEl' filepath='/usr/bin/../lib/gcc/x86_64-linux-gnu/4.9/../../../../include/c++/4.9/bits/stl_iterator.h' line='789' column='1' visibility='default' binding='global' size-in-bits='64' elf-symbol-id='_ZNK9__gnu_cxx17__normal_iteratorIPcSsEmiEl'>
            <parameter type-id='7577686d' is-artificial='yes'/>
            <parameter type-id='bdcb3dcf'/>
            <return type-id='a42ef078'/>
          </function-decl>
        </member-function>
        <member-function access='public'>
          <function-decl name='operator*' mangled-name='_ZNK9__gnu_cxx17__normal_iteratorIPcSsEdeEv' filepath='/usr/bin/../lib/gcc/x86_64-linux-gnu/4.9/../../../../include/c++/4.9/bits/stl_iterator.h' line='741' column='1' visibility='default' binding='global' size-in-bits='64' elf-symbol-id='_ZNK9__gnu_cxx17__normal_iteratorIPcSsEdeEv'>
            <parameter type-id='7577686d' is-artificial='yes'/>
            <return type-id='b3e896ca'/>
          </function-decl>
        </member-function>
      </class-decl>
      <class-decl name='__normal_iterator&lt;const char *, std::basic_string&lt;char&gt; &gt;' size-in-bits='64' visibility='default' filepath='/usr/bin/../lib/gcc/x86_64-linux-gnu/4.9/../../../../include/c++/4.9/bits/stl_iterator.h' line='709' column='1' id='0eb2b427'>
        <member-type access='private'>
          <typedef-decl name='difference_type' type-id='7e5b9666' filepath='/usr/bin/../lib/gcc/x86_64-linux-gnu/4.9/../../../../include/c++/4.9/bits/stl_iterator.h' line='720' column='1' id='7ad770ea'/>
        </member-type>
        <member-type access='private'>
          <typedef-decl name='reference' type-id='836747cb' filepath='/usr/bin/../lib/gcc/x86_64-linux-gnu/4.9/../../../../include/c++/4.9/bits/stl_iterator.h' line='721' column='1' id='b685904f'/>
        </member-type>
        <member-type access='private'>
          <typedef-decl name='pointer' type-id='a26850a7' filepath='/usr/bin/../lib/gcc/x86_64-linux-gnu/4.9/../../../../include/c++/4.9/bits/stl_iterator.h' line='722' column='1' id='e2c578db'/>
        </member-type>
        <data-member access='protected' layout-offset-in-bits='0'>
          <var-decl name='_M_current' type-id='80f4b756' visibility='default' filepath='/usr/bin/../lib/gcc/x86_64-linux-gnu/4.9/../../../../include/c++/4.9/bits/stl_iterator.h' line='712' column='1'/>
        </data-member>
        <member-function access='public'>
          <function-decl name='__normal_iterator' filepath='/usr/bin/../lib/gcc/x86_64-linux-gnu/4.9/../../../../include/c++/4.9/bits/stl_iterator.h' line='724' column='1' visibility='default' binding='global' size-in-bits='64'>
            <parameter type-id='0d6c7c1f' is-artificial='yes'/>
            <return type-id='48b5725f'/>
          </function-decl>
        </member-function>
        <member-function access='public'>
          <function-decl name='__normal_iterator' mangled-name='_ZN9__gnu_cxx17__normal_iteratorIPKcSsEC2ERKS2_' filepath='/usr/bin/../lib/gcc/x86_64-linux-gnu/4.9/../../../../include/c++/4.9/bits/stl_iterator.h' line='728' column='1' visibility='default' binding='global' size-in-bits='64' elf-symbol-id='_ZN9__gnu_cxx17__normal_iteratorIPKcSsEC2ERKS2_'>
            <parameter type-id='0d6c7c1f' is-artificial='yes'/>
            <parameter type-id='1f95783d'/>
            <return type-id='48b5725f'/>
          </function-decl>
        </member-function>
        <member-function access='public'>
          <function-decl name='operator*' mangled-name='_ZNK9__gnu_cxx17__normal_iteratorIPKcSsEdeEv' filepath='/usr/bin/../lib/gcc/x86_64-linux-gnu/4.9/../../../../include/c++/4.9/bits/stl_iterator.h' line='741' column='1' visibility='default' binding='global' size-in-bits='64' elf-symbol-id='_ZNK9__gnu_cxx17__normal_iteratorIPKcSsEdeEv'>
            <parameter type-id='6cfdf2e4' is-artificial='yes'/>
            <return type-id='b685904f'/>
          </function-decl>
        </member-function>
        <member-function access='public'>
          <function-decl name='operator-' mangled-name='_ZNK9__gnu_cxx17__normal_iteratorIPKcSsEmiEl' filepath='/usr/bin/../lib/gcc/x86_64-linux-gnu/4.9/../../../../include/c++/4.9/bits/stl_iterator.h' line='789' column='1' visibility='default' binding='global' size-in-bits='64' elf-symbol-id='_ZNK9__gnu_cxx17__normal_iteratorIPKcSsEmiEl'>
            <parameter type-id='6cfdf2e4' is-artificial='yes'/>
            <parameter type-id='7ad770ea'/>
            <return type-id='0eb2b427'/>
          </function-decl>
        </member-function>
      </class-decl>
      <class-decl name='__enable_if&lt;true, bool&gt;' size-in-bits='8' is-struct='yes' visibility='default' filepath='/usr/bin/../lib/gcc/x86_64-linux-gnu/4.9/../../../../include/c++/4.9/ext/type_traits.h' line='47' column='1' id='298bc2d6'>
        <member-type access='public'>
          <typedef-decl name='__type' type-id='c894953d' filepath='/usr/bin/../lib/gcc/x86_64-linux-gnu/4.9/../../../../include/c++/4.9/ext/type_traits.h' line='48' column='1' id='8a062395'/>
        </member-type>
      </class-decl>
      <function-decl name='__is_null_pointer&lt;const char&gt;' mangled-name='_ZN9__gnu_cxx17__is_null_pointerIKcEEbPT_' filepath='/usr/bin/../lib/gcc/x86_64-linux-gnu/4.9/../../../../include/c++/4.9/ext/type_traits.h' line='150' column='1' visibility='default' binding='global' size-in-bits='64' elf-symbol-id='_ZN9__gnu_cxx17__is_null_pointerIKcEEbPT_'>
        <parameter type-id='80f4b756' name='__ptr' filepath='/usr/bin/../lib/gcc/x86_64-linux-gnu/4.9/../../../../include/c++/4.9/ext/type_traits.h' line='150' column='1'/>
        <return type-id='c894953d'/>
      </function-decl>
    </namespace-decl>
    <namespace-decl name='std'>
      <class-decl name='char_traits&lt;char&gt;' size-in-bits='8' is-struct='yes' visibility='default' filepath='/usr/bin/../lib/gcc/x86_64-linux-gnu/4.9/../../../../include/c++/4.9/bits/char_traits.h' line='233' column='1' id='6382fa58'>
        <member-type access='public'>
          <typedef-decl name='char_type' type-id='a84c031d' filepath='/usr/bin/../lib/gcc/x86_64-linux-gnu/4.9/../../../../include/c++/4.9/bits/char_traits.h' line='235' column='1' id='d3b6d5a2'/>
        </member-type>
        <member-type access='public'>
          <typedef-decl name='int_type' type-id='95e97e5e' filepath='/usr/bin/../lib/gcc/x86_64-linux-gnu/4.9/../../../../include/c++/4.9/bits/char_traits.h' line='236' column='1' id='e967275f'/>
        </member-type>
        <member-function access='public' static='yes'>
          <function-decl name='compare' mangled-name='_ZNSt11char_traitsIcE7compareEPKcS2_m' filepath='/usr/bin/../lib/gcc/x86_64-linux-gnu/4.9/../../../../include/c++/4.9/bits/char_traits.h' line='258' column='1' visibility='default' binding='global' size-in-bits='64' elf-symbol-id='_ZNSt11char_traitsIcE7compareEPKcS2_m'>
            <parameter type-id='044a1b28'/>
            <parameter type-id='044a1b28'/>
            <parameter type-id='7a51dc7f'/>
            <return type-id='95e97e5e'/>
          </function-decl>
        </member-function>
      </class-decl>
      <class-decl name='iterator_traits&lt;const char *&gt;' size-in-bits='8' is-struct='yes' visibility='default' filepath='/usr/bin/../lib/gcc/x86_64-linux-gnu/4.9/../../../../include/c++/4.9/bits/stl_iterator_base_types.h' line='186' column='1' id='7569a3f7'>
        <member-type access='public'>
          <typedef-decl name='iterator_category' type-id='988b3d04' filepath='/usr/bin/../lib/gcc/x86_64-linux-gnu/4.9/../../../../include/c++/4.9/bits/stl_iterator_base_types.h' line='188' column='1' id='a4d6b06d'/>
        </member-type>
        <member-type access='public'>
          <typedef-decl name='difference_type' type-id='d368b855' filepath='/usr/bin/../lib/gcc/x86_64-linux-gnu/4.9/../../../../include/c++/4.9/bits/stl_iterator_base_types.h' line='190' column='1' id='7e5b9666'/>
        </member-type>
        <member-type access='public'>
          <typedef-decl name='pointer' type-id='80f4b756' filepath='/usr/bin/../lib/gcc/x86_64-linux-gnu/4.9/../../../../include/c++/4.9/bits/stl_iterator_base_types.h' line='191' column='1' id='a26850a7'/>
        </member-type>
        <member-type access='public'>
          <typedef-decl name='reference' type-id='8cf4ca3a' filepath='/usr/bin/../lib/gcc/x86_64-linux-gnu/4.9/../../../../include/c++/4.9/bits/stl_iterator_base_types.h' line='192' column='1' id='836747cb'/>
        </member-type>
      </class-decl>
      <function-decl name='operator==&lt;char&gt;' mangled-name='_ZSteqIcEN9__gnu_cxx11__enable_ifIXsr9__is_charIT_EE7__valueEbE6__typeERKSbIS2_St11char_traitsIS2_ESaIS2_EESA_' filepath='/usr/bin/../lib/gcc/x86_64-linux-gnu/4.9/../../../../include/c++/4.9/bits/basic_string.h' line='2512' column='1' visibility='default' binding='global' size-in-bits='64' elf-symbol-id='_ZSteqIcEN9__gnu_cxx11__enable_ifIXsr9__is_charIT_EE7__valueEbE6__typeERKSbIS2_St11char_traitsIS2_ESaIS2_EESA_'>
        <parameter type-id='0d8dd23c' name='__lhs' filepath='/usr/bin/../lib/gcc/x86_64-linux-gnu/4.9/../../../../include/c++/4.9/bits/basic_string.h' line='2512' column='1'/>
        <parameter type-id='0d8dd23c' name='__rhs' filepath='/usr/bin/../lib/gcc/x86_64-linux-gnu/4.9/../../../../include/c++/4.9/bits/basic_string.h' line='2513' column='1'/>
        <return type-id='8a062395'/>
      </function-decl>
      <function-decl name='operator==&lt;char, std::char_traits&lt;char&gt;, std::allocator&lt;char&gt; &gt;' mangled-name='_ZSteqIcSt11char_traitsIcESaIcEEbRKSbIT_T0_T1_EPKS3_' filepath='/usr/bin/../lib/gcc/x86_64-linux-gnu/4.9/../../../../include/c++/4.9/bits/basic_string.h' line='2538' column='1' visibility='default' binding='global' size-in-bits='64' elf-symbol-id='_ZSteqIcSt11char_traitsIcESaIcEEbRKSbIT_T0_T1_EPKS3_'>
        <parameter type-id='0d8dd23c' name='__lhs' filepath='/usr/bin/../lib/gcc/x86_64-linux-gnu/4.9/../../../../include/c++/4.9/bits/basic_string.h' line='2538' column='1'/>
        <parameter type-id='80f4b756' name='__rhs' filepath='/usr/bin/../lib/gcc/x86_64-linux-gnu/4.9/../../../../include/c++/4.9/bits/basic_string.h' line='2539' column='1'/>
        <return type-id='c894953d'/>
      </function-decl>
      <function-decl name='operator&lt;&lt;char, std::char_traits&lt;char&gt;, std::allocator&lt;char&gt; &gt;' mangled-name='_ZStltIcSt11char_traitsIcESaIcEEbRKSbIT_T0_T1_ES8_' filepath='/usr/bin/../lib/gcc/x86_64-linux-gnu/4.9/../../../../include/c++/4.9/bits/basic_string.h' line='2588' column='1' visibility='default' binding='global' size-in-bits='64' elf-symbol-id='_ZStltIcSt11char_traitsIcESaIcEEbRKSbIT_T0_T1_ES8_'>
        <parameter type-id='0d8dd23c' name='__lhs' filepath='/usr/bin/../lib/gcc/x86_64-linux-gnu/4.9/../../../../include/c++/4.9/bits/basic_string.h' line='2588' column='1'/>
        <parameter type-id='0d8dd23c' name='__rhs' filepath='/usr/bin/../lib/gcc/x86_64-linux-gnu/4.9/../../../../include/c++/4.9/bits/basic_string.h' line='2589' column='1'/>
        <return type-id='c894953d'/>
      </function-decl>
      <function-decl name='__distance&lt;const char *&gt;' mangled-name='_ZSt10__distanceIPKcENSt15iterator_traitsIT_E15difference_typeES3_S3_St26random_access_iterator_tag' filepath='/usr/bin/../lib/gcc/x86_64-linux-gnu/4.9/../../../../include/c++/4.9/bits/stl_iterator_base_funcs.h' line='90' column='1' visibility='default' binding='global' size-in-bits='64' elf-symbol-id='_ZSt10__distanceIPKcENSt15iterator_traitsIT_E15difference_typeES3_S3_St26random_access_iterator_tag'>
        <parameter type-id='80f4b756' name='__first' filepath='/usr/bin/../lib/gcc/x86_64-linux-gnu/4.9/../../../../include/c++/4.9/bits/stl_iterator_base_funcs.h' line='90' column='1'/>
        <parameter type-id='80f4b756' name='__last' filepath='/usr/bin/../lib/gcc/x86_64-linux-gnu/4.9/../../../../include/c++/4.9/bits/stl_iterator_base_funcs.h' line='90' column='1'/>
        <parameter type-id='988b3d04' filepath='/usr/bin/../lib/gcc/x86_64-linux-gnu/4.9/../../../../include/c++/4.9/bits/stl_iterator_base_funcs.h' line='91' column='1'/>
        <return type-id='7e5b9666'/>
      </function-decl>
      <function-decl name='distance&lt;const char *&gt;' mangled-name='_ZSt8distanceIPKcENSt15iterator_traitsIT_E15difference_typeES3_S3_' filepath='/usr/bin/../lib/gcc/x86_64-linux-gnu/4.9/../../../../include/c++/4.9/bits/stl_iterator_base_funcs.h' line='114' column='1' visibility='default' binding='global' size-in-bits='64' elf-symbol-id='_ZSt8distanceIPKcENSt15iterator_traitsIT_E15difference_typeES3_S3_'>
        <parameter type-id='80f4b756' name='__first' filepath='/usr/bin/../lib/gcc/x86_64-linux-gnu/4.9/../../../../include/c++/4.9/bits/stl_iterator_base_funcs.h' line='114' column='1'/>
        <parameter type-id='80f4b756' name='__last' filepath='/usr/bin/../lib/gcc/x86_64-linux-gnu/4.9/../../../../include/c++/4.9/bits/stl_iterator_base_funcs.h' line='114' column='1'/>
        <return type-id='7e5b9666'/>
      </function-decl>
      <function-decl name='__iterator_category&lt;const char *&gt;' mangled-name='_ZSt19__iterator_categoryIPKcENSt15iterator_traitsIT_E17iterator_categoryERKS3_' filepath='/usr/bin/../lib/gcc/x86_64-linux-gnu/4.9/../../../../include/c++/4.9/bits/stl_iterator_base_types.h' line='201' column='1' visibility='default' binding='global' size-in-bits='64' elf-symbol-id='_ZSt19__iterator_categoryIPKcENSt15iterator_traitsIT_E17iterator_categoryERKS3_'>
        <parameter type-id='1f95783d' filepath='/usr/bin/../lib/gcc/x86_64-linux-gnu/4.9/../../../../include/c++/4.9/bits/stl_iterator_base_types.h' line='201' column='1'/>
        <return type-id='a4d6b06d'/>
      </function-decl>
    </namespace-decl>
    <namespace-decl name='boost'>
      <namespace-decl name='filesystem'>
        <namespace-decl name='detail'>
          <function-decl name='lex_compare' mangled-name='_ZN5boost10filesystem6detail11lex_compareENS0_4path8iteratorES3_S3_S3_' filepath='src/third_party/boost-1.56.0/libs/filesystem/src/path.cpp' line='649' column='1' visibility='default' binding='global' size-in-bits='64' elf-symbol-id='_ZN5boost10filesystem6detail11lex_compareENS0_4path8iteratorES3_S3_S3_'>
            <parameter type-id='05fd92d6' name='first1' filepath='src/third_party/boost-1.56.0/libs/filesystem/src/path.cpp' line='649' column='1'/>
            <parameter type-id='05fd92d6' name='last1' filepath='src/third_party/boost-1.56.0/libs/filesystem/src/path.cpp' line='649' column='1'/>
            <parameter type-id='05fd92d6' name='first2' filepath='src/third_party/boost-1.56.0/libs/filesystem/src/path.cpp' line='650' column='1'/>
            <parameter type-id='05fd92d6' name='last2' filepath='src/third_party/boost-1.56.0/libs/filesystem/src/path.cpp' line='650' column='1'/>
            <return type-id='95e97e5e'/>
          </function-decl>
        </namespace-decl>
        <namespace-decl name='path_traits'>
          <function-decl name='dispatch&lt;std::basic_string&lt;char&gt; &gt;' mangled-name='_ZN5boost10filesystem11path_traits8dispatchISsEEvRKSsRT_RKSt7codecvtIwc11__mbstate_tE' filepath='src/third_party/boost-1.56.0/boost/filesystem/path_traits.hpp' line='171' column='1' visibility='default' binding='global' size-in-bits='64' elf-symbol-id='_ZN5boost10filesystem11path_traits8dispatchISsEEvRKSsRT_RKSt7codecvtIwc11__mbstate_tE'>
            <parameter type-id='13a9aa92' name='c' filepath='src/third_party/boost-1.56.0/boost/filesystem/path_traits.hpp' line='171' column='1'/>
            <parameter type-id='1a9350bb' name='to' filepath='src/third_party/boost-1.56.0/boost/filesystem/path_traits.hpp' line='171' column='1'/>
            <parameter type-id='823e0896' name='cvt' filepath='src/third_party/boost-1.56.0/boost/filesystem/path_traits.hpp' line='171' column='1'/>
            <return type-id='48b5725f'/>
          </function-decl>
        </namespace-decl>
      </namespace-decl>
      <function-decl name='operator==&lt;boost::filesystem::path::iterator, const boost::filesystem::path, boost::bidirectional_traversal_tag, const boost::filesystem::path &amp;, long, boost::filesystem::path::iterator, const boost::filesystem::path, boost::bidirectional_traversal_tag, const boost::filesystem::path &amp;, long&gt;' mangled-name='_ZN5boosteqINS_10filesystem4path8iteratorEKS2_NS_27bidirectional_traversal_tagERS4_lS3_S4_S5_S6_lEENS_6detail23enable_if_interoperableIT_T4_NS_3mpl6apply2INS7_12always_bool2ES9_SA_E4typeEE4typeERKNS_15iterator_facadeIS9_T0_T1_T2_T3_EERKNSI_ISA_T5_T6_T7_T8_EE' filepath='src/third_party/boost-1.56.0/boost/iterator/iterator_facade.hpp' line='832' column='1' visibility='default' binding='global' size-in-bits='64' elf-symbol-id='_ZN5boosteqINS_10filesystem4path8iteratorEKS2_NS_27bidirectional_traversal_tagERS4_lS3_S4_S5_S6_lEENS_6detail23enable_if_interoperableIT_T4_NS_3mpl6apply2INS7_12always_bool2ES9_SA_E4typeEE4typeERKNS_15iterator_facadeIS9_T0_T1_T2_T3_EERKNSI_ISA_T5_T6_T7_T8_EE'>
        <parameter type-id='8142c63d' name='lhs' filepath='src/third_party/boost-1.56.0/boost/iterator/iterator_facade.hpp' line='833' column='1'/>
        <parameter type-id='8142c63d' name='rhs' filepath='src/third_party/boost-1.56.0/boost/iterator/iterator_facade.hpp' line='833' column='1'/>
        <return type-id='492719be'/>
      </function-decl>
      <namespace-decl name='detail'>
        <class-decl name='addr_impl_ref&lt;const boost::filesystem::path&gt;' size-in-bits='64' is-struct='yes' visibility='default' filepath='src/third_party/boost-1.56.0/boost/core/addressof.hpp' line='25' column='1' id='678be8cb'>
          <data-member access='public' layout-offset-in-bits='0'>
            <var-decl name='v_' type-id='b6693e9f' visibility='default' filepath='src/third_party/boost-1.56.0/boost/core/addressof.hpp' line='27' column='1'/>
          </data-member>
          <member-function access='public'>
            <function-decl name='addr_impl_ref' mangled-name='_ZN5boost6detail13addr_impl_refIKNS_10filesystem4pathEEC2ERS4_' filepath='src/third_party/boost-1.56.0/boost/core/addressof.hpp' line='29' column='1' visibility='default' binding='global' size-in-bits='64'>
              <parameter type-id='7a5d95fb' is-artificial='yes'/>
              <parameter type-id='b6693e9f'/>
              <return type-id='48b5725f'/>
            </function-decl>
          </member-function>
          <member-function access='public'>
            <function-decl name='operator const boost::filesystem::path &amp;' mangled-name='_ZNK5boost6detail13addr_impl_refIKNS_10filesystem4pathEEcvRS4_Ev' filepath='src/third_party/boost-1.56.0/boost/core/addressof.hpp' line='30' column='1' visibility='default' binding='global' size-in-bits='64'>
              <parameter type-id='0938272e' is-artificial='yes'/>
              <return type-id='b6693e9f'/>
            </function-decl>
          </member-function>
        </class-decl>
        <class-decl name='addressof_impl&lt;const boost::filesystem::path&gt;' size-in-bits='8' is-struct='yes' visibility='default' filepath='src/third_party/boost-1.56.0/boost/core/addressof.hpp' line='36' column='1' id='7f64c219'>
          <member-function access='public' static='yes'>
            <function-decl name='f' mangled-name='_ZN5boost6detail14addressof_implIKNS_10filesystem4pathEE1fERS4_l' filepath='src/third_party/boost-1.56.0/boost/core/addressof.hpp' line='38' column='1' visibility='default' binding='global' size-in-bits='64'>
              <parameter type-id='b6693e9f'/>
              <parameter type-id='bd54fe1a'/>
              <return type-id='ba6944eb'/>
            </function-decl>
          </member-function>
        </class-decl>
      </namespace-decl>
    </namespace-decl>
  </abi-instr>
  <abi-instr address-size='64' path='src/third_party/boost-1.56.0/libs/filesystem/src/path_traits.cpp' comp-dir-path='/home/andrew/Documents/10gen/dev/src/mongodb' language='LANG_C_plus_plus'>
    <class-decl name='state_type' size-in-bits='64' is-struct='yes' naming-typedef-id='1fa125e9' visibility='default' filepath='/usr/include/wchar.h' line='82' column='1' id='3671f89b'>
      <data-member access='public' layout-offset-in-bits='0'>
        <var-decl name='__count' type-id='95e97e5e' visibility='default' filepath='/usr/include/wchar.h' line='84' column='1'/>
      </data-member>
      <data-member access='public' layout-offset-in-bits='32'>
        <var-decl name='__value' type-id='ac5ab595' visibility='default' filepath='/usr/include/wchar.h' line='93' column='1'/>
      </data-member>
    </class-decl>
    <reference-type-def kind='lvalue' type-id='665f1722' size-in-bits='64' id='e10a1484'/>
    <pointer-type-def type-id='665f1722' size-in-bits='64' id='d50a01a0'/>
    <qualified-type-def type-id='665f1722' const='yes' id='df420823'/>
    <reference-type-def kind='lvalue' type-id='df420823' size-in-bits='64' id='79f29fdf'/>
    <pointer-type-def type-id='df420823' size-in-bits='64' id='7df2a62b'/>
    <qualified-type-def type-id='8edf9716' const='yes' id='10ca0eb3'/>
    <pointer-type-def type-id='10ca0eb3' size-in-bits='64' id='0714fadb'/>
    <qualified-type-def type-id='78d09fde' const='yes' id='711a154e'/>
    <pointer-type-def type-id='711a154e' size-in-bits='64' id='700fac6c'/>
    <reference-type-def kind='lvalue' type-id='700fac6c' size-in-bits='64' id='b2ac387e'/>
    <qualified-type-def type-id='45aefa48' const='yes' id='8aa21998'/>
    <pointer-type-def type-id='8aa21998' size-in-bits='64' id='ef2e7336'/>
    <reference-type-def kind='lvalue' type-id='ef2e7336' size-in-bits='64' id='961f2230'/>
    <pointer-type-def type-id='78d09fde' size-in-bits='64' id='05b5c5c9'/>
    <reference-type-def kind='lvalue' type-id='05b5c5c9' size-in-bits='64' id='ec26973d'/>
    <pointer-type-def type-id='45aefa48' size-in-bits='64' id='82a45f7f'/>
    <reference-type-def kind='lvalue' type-id='82a45f7f' size-in-bits='64' id='01c2191b'/>
    <reference-type-def kind='lvalue' type-id='1fa125e9' size-in-bits='64' id='7b42f9e2'/>
    <reference-type-def kind='lvalue' type-id='08a27e41' size-in-bits='64' id='cf32d62d'/>
    <pointer-type-def type-id='08a27e41' size-in-bits='64' id='c332c349'/>
    <reference-type-def kind='lvalue' type-id='819536af' size-in-bits='64' id='ced5d720'/>
    <reference-type-def kind='lvalue' type-id='c523b9f1' size-in-bits='64' id='2e3d8d75'/>
    <namespace-decl name='std'>
      <class-decl name='codecvt_base' size-in-bits='8' visibility='default' filepath='/usr/bin/../lib/gcc/x86_64-linux-gnu/4.9/../../../../include/c++/4.9/bits/codecvt.h' line='46' column='1' id='4eb8f7ea'>
        <member-type access='private'>
          <enum-decl name='result' filepath='/usr/bin/../lib/gcc/x86_64-linux-gnu/4.9/../../../../include/c++/4.9/bits/codecvt.h' line='49' column='1' id='eaccf398'>
            <underlying-type type-id='9cac1fee'/>
            <enumerator name='ok' value='0'/>
            <enumerator name='partial' value='1'/>
            <enumerator name='error' value='2'/>
            <enumerator name='noconv' value='3'/>
          </enum-decl>
        </member-type>
      </class-decl>
      <class-decl name='__codecvt_abstract_base&lt;wchar_t, char, __mbstate_t&gt;' visibility='default' is-declaration-only='yes' id='8edf9716'>
        <member-type access='private'>
          <typedef-decl name='result' type-id='eaccf398' filepath='/usr/bin/../lib/gcc/x86_64-linux-gnu/4.9/../../../../include/c++/4.9/bits/codecvt.h' line='73' column='1' id='1e1109ba'/>
        </member-type>
        <member-type access='private'>
          <typedef-decl name='intern_type' type-id='c523b9f1' filepath='/usr/bin/../lib/gcc/x86_64-linux-gnu/4.9/../../../../include/c++/4.9/bits/codecvt.h' line='74' column='1' id='45aefa48'/>
        </member-type>
        <member-type access='private'>
          <typedef-decl name='extern_type' type-id='a84c031d' filepath='/usr/bin/../lib/gcc/x86_64-linux-gnu/4.9/../../../../include/c++/4.9/bits/codecvt.h' line='75' column='1' id='78d09fde'/>
        </member-type>
        <member-type access='private'>
          <typedef-decl name='state_type' type-id='3671f89b' filepath='/usr/bin/../lib/gcc/x86_64-linux-gnu/4.9/../../../../include/c++/4.9/bits/codecvt.h' line='76' column='1' id='1fa125e9'/>
        </member-type>
        <member-function access='public'>
          <function-decl name='out' mangled-name='_ZNKSt23__codecvt_abstract_baseIwc11__mbstate_tE3outERS0_PKwS4_RS4_PcS6_RS6_' filepath='/usr/bin/../lib/gcc/x86_64-linux-gnu/4.9/../../../../include/c++/4.9/bits/codecvt.h' line='116' column='1' visibility='default' binding='global' size-in-bits='64' elf-symbol-id='_ZNKSt23__codecvt_abstract_baseIwc11__mbstate_tE3outERS0_PKwS4_RS4_PcS6_RS6_'>
            <parameter type-id='0714fadb' is-artificial='yes'/>
            <parameter type-id='7b42f9e2'/>
            <parameter type-id='ef2e7336'/>
            <parameter type-id='ef2e7336'/>
            <parameter type-id='961f2230'/>
            <parameter type-id='05b5c5c9'/>
            <parameter type-id='05b5c5c9'/>
            <parameter type-id='ec26973d'/>
            <return type-id='1e1109ba'/>
          </function-decl>
        </member-function>
        <member-function access='public'>
          <function-decl name='in' mangled-name='_ZNKSt23__codecvt_abstract_baseIwc11__mbstate_tE2inERS0_PKcS4_RS4_PwS6_RS6_' filepath='/usr/bin/../lib/gcc/x86_64-linux-gnu/4.9/../../../../include/c++/4.9/bits/codecvt.h' line='196' column='1' visibility='default' binding='global' size-in-bits='64' elf-symbol-id='_ZNKSt23__codecvt_abstract_baseIwc11__mbstate_tE2inERS0_PKcS4_RS4_PwS6_RS6_'>
            <parameter type-id='0714fadb' is-artificial='yes'/>
            <parameter type-id='7b42f9e2'/>
            <parameter type-id='700fac6c'/>
            <parameter type-id='700fac6c'/>
            <parameter type-id='b2ac387e'/>
            <parameter type-id='82a45f7f'/>
            <parameter type-id='82a45f7f'/>
            <parameter type-id='01c2191b'/>
            <return type-id='1e1109ba'/>
          </function-decl>
        </member-function>
      </class-decl>
    </namespace-decl>
    <namespace-decl name='boost'>
      <class-decl name='scoped_array&lt;wchar_t&gt;' size-in-bits='64' visibility='default' filepath='src/third_party/boost-1.56.0/boost/smart_ptr/scoped_array.hpp' line='39' column='1' id='665f1722'>
        <data-member access='private' layout-offset-in-bits='0'>
          <var-decl name='px' type-id='323d93c1' visibility='default' filepath='src/third_party/boost-1.56.0/boost/smart_ptr/scoped_array.hpp' line='43' column='1'/>
        </data-member>
        <member-function access='private'>
          <function-decl name='scoped_array' filepath='src/third_party/boost-1.56.0/boost/smart_ptr/scoped_array.hpp' line='45' column='1' visibility='default' binding='global' size-in-bits='64'>
            <parameter type-id='d50a01a0' is-artificial='yes'/>
            <parameter type-id='79f29fdf'/>
            <return type-id='48b5725f'/>
          </function-decl>
        </member-function>
        <member-function access='public'>
          <function-decl name='scoped_array' mangled-name='_ZN5boost12scoped_arrayIwEC2EPw' filepath='src/third_party/boost-1.56.0/boost/smart_ptr/scoped_array.hpp' line='57' column='1' visibility='default' binding='global' size-in-bits='64' elf-symbol-id='_ZN5boost12scoped_arrayIwEC2EPw'>
            <parameter type-id='d50a01a0' is-artificial='yes'/>
            <parameter type-id='323d93c1'/>
            <return type-id='48b5725f'/>
          </function-decl>
        </member-function>
        <member-function access='public' destructor='yes'>
          <function-decl name='~scoped_array' mangled-name='_ZN5boost12scoped_arrayIwED2Ev' filepath='src/third_party/boost-1.56.0/boost/smart_ptr/scoped_array.hpp' line='64' column='1' visibility='default' binding='global' size-in-bits='64' elf-symbol-id='_ZN5boost12scoped_arrayIwED2Ev'>
            <parameter type-id='d50a01a0' is-artificial='yes'/>
            <return type-id='48b5725f'/>
          </function-decl>
        </member-function>
        <member-function access='public'>
          <function-decl name='get' mangled-name='_ZNK5boost12scoped_arrayIwE3getEv' filepath='src/third_party/boost-1.56.0/boost/smart_ptr/scoped_array.hpp' line='85' column='1' visibility='default' binding='global' size-in-bits='64' elf-symbol-id='_ZNK5boost12scoped_arrayIwE3getEv'>
            <parameter type-id='7df2a62b' is-artificial='yes'/>
            <return type-id='323d93c1'/>
          </function-decl>
        </member-function>
      </class-decl>
      <function-decl name='checked_array_delete&lt;wchar_t&gt;' mangled-name='_ZN5boost20checked_array_deleteIwEEvPT_' filepath='src/third_party/boost-1.56.0/boost/core/checked_delete.hpp' line='37' column='1' visibility='default' binding='global' size-in-bits='64' elf-symbol-id='_ZN5boost20checked_array_deleteIwEEvPT_'>
        <parameter type-id='323d93c1' name='x' filepath='src/third_party/boost-1.56.0/boost/core/checked_delete.hpp' line='37' column='1'/>
        <return type-id='48b5725f'/>
      </function-decl>
      <namespace-decl name='filesystem'>
        <namespace-decl name='path_traits'>
          <function-decl name='convert' mangled-name='_ZN5boost10filesystem11path_traits7convertEPKcS3_RSbIwSt11char_traitsIwESaIwEERKSt7codecvtIwc11__mbstate_tE' filepath='src/third_party/boost-1.56.0/libs/filesystem/src/path_traits.cpp' line='133' column='1' visibility='default' binding='global' size-in-bits='64' elf-symbol-id='_ZN5boost10filesystem11path_traits7convertEPKcS3_RSbIwSt11char_traitsIwESaIwEERKSt7codecvtIwc11__mbstate_tE'>
            <parameter type-id='80f4b756' name='from' filepath='src/third_party/boost-1.56.0/libs/filesystem/src/path_traits.cpp' line='133' column='1'/>
            <parameter type-id='80f4b756' name='from_end' filepath='src/third_party/boost-1.56.0/libs/filesystem/src/path_traits.cpp' line='134' column='1'/>
            <parameter type-id='ced5d720' name='to' filepath='src/third_party/boost-1.56.0/libs/filesystem/src/path_traits.cpp' line='135' column='1'/>
            <parameter type-id='823e0896' name='cvt' filepath='src/third_party/boost-1.56.0/libs/filesystem/src/path_traits.cpp' line='136' column='1'/>
            <return type-id='48b5725f'/>
          </function-decl>
          <function-decl name='convert' mangled-name='_ZN5boost10filesystem11path_traits7convertEPKwS3_RSsRKSt7codecvtIwc11__mbstate_tE' filepath='src/third_party/boost-1.56.0/libs/filesystem/src/path_traits.cpp' line='167' column='1' visibility='default' binding='global' size-in-bits='64' elf-symbol-id='_ZN5boost10filesystem11path_traits7convertEPKwS3_RSsRKSt7codecvtIwc11__mbstate_tE'>
            <parameter type-id='f077d3f8' name='from' filepath='src/third_party/boost-1.56.0/libs/filesystem/src/path_traits.cpp' line='167' column='1'/>
            <parameter type-id='f077d3f8' name='from_end' filepath='src/third_party/boost-1.56.0/libs/filesystem/src/path_traits.cpp' line='168' column='1'/>
            <parameter type-id='0f5b8043' name='to' filepath='src/third_party/boost-1.56.0/libs/filesystem/src/path_traits.cpp' line='169' column='1'/>
            <parameter type-id='823e0896' name='cvt' filepath='src/third_party/boost-1.56.0/libs/filesystem/src/path_traits.cpp' line='170' column='1'/>
            <return type-id='48b5725f'/>
          </function-decl>
        </namespace-decl>
      </namespace-decl>
    </namespace-decl>
  </abi-instr>
  <abi-instr address-size='64' path='src/third_party/boost-1.56.0/libs/filesystem/src/portability.cpp' comp-dir-path='/home/andrew/Documents/10gen/dev/src/mongodb' language='LANG_C_plus_plus'>
    <namespace-decl name='std'>
      <function-decl name='operator!=&lt;char, std::char_traits&lt;char&gt;, std::allocator&lt;char&gt; &gt;' mangled-name='_ZStneIcSt11char_traitsIcESaIcEEbRKSbIT_T0_T1_EPKS3_' filepath='/usr/bin/../lib/gcc/x86_64-linux-gnu/4.9/../../../../include/c++/4.9/bits/basic_string.h' line='2575' column='1' visibility='default' binding='global' size-in-bits='64' elf-symbol-id='_ZStneIcSt11char_traitsIcESaIcEEbRKSbIT_T0_T1_EPKS3_'>
        <parameter type-id='0d8dd23c' name='__lhs' filepath='/usr/bin/../lib/gcc/x86_64-linux-gnu/4.9/../../../../include/c++/4.9/bits/basic_string.h' line='2538' column='1'/>
        <parameter type-id='80f4b756' name='__rhs' filepath='/usr/bin/../lib/gcc/x86_64-linux-gnu/4.9/../../../../include/c++/4.9/bits/basic_string.h' line='2539' column='1'/>
        <return type-id='c894953d'/>
      </function-decl>
    </namespace-decl>
    <namespace-decl name='boost'>
      <namespace-decl name='filesystem'>
        <function-decl name='native' mangled-name='_ZN5boost10filesystem6nativeERKSs' filepath='src/third_party/boost-1.56.0/libs/filesystem/src/portability.cpp' line='61' column='1' visibility='default' binding='global' size-in-bits='64' elf-symbol-id='_ZN5boost10filesystem6nativeERKSs'>
          <parameter type-id='13a9aa92' name='name' filepath='src/third_party/boost-1.56.0/libs/filesystem/src/portability.cpp' line='61' column='1'/>
          <return type-id='c894953d'/>
        </function-decl>
        <function-decl name='portable_posix_name' mangled-name='_ZN5boost10filesystem19portable_posix_nameERKSs' filepath='src/third_party/boost-1.56.0/libs/filesystem/src/portability.cpp' line='69' column='1' visibility='default' binding='global' size-in-bits='64' elf-symbol-id='_ZN5boost10filesystem19portable_posix_nameERKSs'>
          <parameter type-id='13a9aa92' name='name' filepath='src/third_party/boost-1.56.0/libs/filesystem/src/portability.cpp' line='61' column='1'/>
          <return type-id='c894953d'/>
        </function-decl>
        <function-decl name='windows_name' mangled-name='_ZN5boost10filesystem12windows_nameERKSs' filepath='src/third_party/boost-1.56.0/libs/filesystem/src/portability.cpp' line='75' column='1' visibility='default' binding='global' size-in-bits='64' elf-symbol-id='_ZN5boost10filesystem12windows_nameERKSs'>
          <parameter type-id='13a9aa92' name='name' filepath='src/third_party/boost-1.56.0/libs/filesystem/src/portability.cpp' line='61' column='1'/>
          <return type-id='c894953d'/>
        </function-decl>
        <function-decl name='portable_name' mangled-name='_ZN5boost10filesystem13portable_nameERKSs' filepath='src/third_party/boost-1.56.0/libs/filesystem/src/portability.cpp' line='85' column='1' visibility='default' binding='global' size-in-bits='64' elf-symbol-id='_ZN5boost10filesystem13portable_nameERKSs'>
          <parameter type-id='13a9aa92' name='name' filepath='src/third_party/boost-1.56.0/libs/filesystem/src/portability.cpp' line='61' column='1'/>
          <return type-id='c894953d'/>
        </function-decl>
        <function-decl name='portable_directory_name' mangled-name='_ZN5boost10filesystem23portable_directory_nameERKSs' filepath='src/third_party/boost-1.56.0/libs/filesystem/src/portability.cpp' line='96' column='1' visibility='default' binding='global' size-in-bits='64' elf-symbol-id='_ZN5boost10filesystem23portable_directory_nameERKSs'>
          <parameter type-id='13a9aa92' name='name' filepath='src/third_party/boost-1.56.0/libs/filesystem/src/portability.cpp' line='61' column='1'/>
          <return type-id='c894953d'/>
        </function-decl>
        <function-decl name='portable_file_name' mangled-name='_ZN5boost10filesystem18portable_file_nameERKSs' filepath='src/third_party/boost-1.56.0/libs/filesystem/src/portability.cpp' line='105' column='1' visibility='default' binding='global' size-in-bits='64' elf-symbol-id='_ZN5boost10filesystem18portable_file_nameERKSs'>
          <parameter type-id='13a9aa92' name='name' filepath='src/third_party/boost-1.56.0/libs/filesystem/src/portability.cpp' line='61' column='1'/>
          <return type-id='c894953d'/>
        </function-decl>
      </namespace-decl>
    </namespace-decl>
  </abi-instr>
  <abi-instr address-size='64' path='src/third_party/boost-1.56.0/libs/filesystem/src/unique_path.cpp' comp-dir-path='/home/andrew/Documents/10gen/dev/src/mongodb' language='LANG_C_plus_plus'>
    <reference-type-def kind='lvalue' type-id='4970a619' size-in-bits='64' id='62797165'/>
    <pointer-type-def type-id='4970a619' size-in-bits='64' id='667977b1'/>
    <pointer-type-def type-id='1cb110d8' size-in-bits='64' id='0208b085'/>
    <qualified-type-def type-id='4970a619' const='yes' id='d1e9564c'/>
    <pointer-type-def type-id='d1e9564c' size-in-bits='64' id='d8530292'/>
    <qualified-type-def type-id='08a27e41' const='yes' id='787730b6'/>
    <reference-type-def kind='lvalue' type-id='787730b6' size-in-bits='64' id='33a172b0'/>
    <reference-type-def kind='lvalue' type-id='3a2d5f3f' size-in-bits='64' id='ae6cb45b'/>
    <reference-type-def kind='lvalue' type-id='effb3702' size-in-bits='64' id='ec77cdac'/>
    <qualified-type-def type-id='f077d3f8' const='yes' id='ce9fbc8b'/>
    <reference-type-def kind='lvalue' type-id='ce9fbc8b' size-in-bits='64' id='f2760457'/>
    <namespace-decl name='__gnu_cxx'>
      <class-decl name='__normal_iterator&lt;const wchar_t *, std::basic_string&lt;wchar_t&gt; &gt;' size-in-bits='64' visibility='default' filepath='/usr/bin/../lib/gcc/x86_64-linux-gnu/4.9/../../../../include/c++/4.9/bits/stl_iterator.h' line='709' column='1' id='4970a619'>
        <member-type access='private'>
          <typedef-decl name='difference_type' type-id='1fc4da34' filepath='/usr/bin/../lib/gcc/x86_64-linux-gnu/4.9/../../../../include/c++/4.9/bits/stl_iterator.h' line='720' column='1' id='ee0ccb94'/>
        </member-type>
        <member-type access='private'>
          <typedef-decl name='reference' type-id='94df42b5' filepath='/usr/bin/../lib/gcc/x86_64-linux-gnu/4.9/../../../../include/c++/4.9/bits/stl_iterator.h' line='721' column='1' id='06c2fcd5'/>
        </member-type>
        <member-type access='private'>
          <typedef-decl name='pointer' type-id='1fa21179' filepath='/usr/bin/../lib/gcc/x86_64-linux-gnu/4.9/../../../../include/c++/4.9/bits/stl_iterator.h' line='722' column='1' id='5394af99'/>
        </member-type>
        <data-member access='protected' layout-offset-in-bits='0'>
          <var-decl name='_M_current' type-id='f077d3f8' visibility='default' filepath='/usr/bin/../lib/gcc/x86_64-linux-gnu/4.9/../../../../include/c++/4.9/bits/stl_iterator.h' line='712' column='1'/>
        </data-member>
        <member-function access='public'>
          <function-decl name='__normal_iterator' filepath='/usr/bin/../lib/gcc/x86_64-linux-gnu/4.9/../../../../include/c++/4.9/bits/stl_iterator.h' line='724' column='1' visibility='default' binding='global' size-in-bits='64'>
            <parameter type-id='667977b1' is-artificial='yes'/>
            <return type-id='48b5725f'/>
          </function-decl>
        </member-function>
        <member-function access='public'>
          <function-decl name='__normal_iterator' filepath='/usr/bin/../lib/gcc/x86_64-linux-gnu/4.9/../../../../include/c++/4.9/bits/stl_iterator.h' line='728' column='1' visibility='default' binding='global' size-in-bits='64'>
            <parameter type-id='667977b1' is-artificial='yes'/>
            <parameter type-id='f2760457'/>
            <return type-id='48b5725f'/>
          </function-decl>
        </member-function>
        <member-function access='public'>
          <function-decl name='operator*' mangled-name='_ZNK9__gnu_cxx17__normal_iteratorIPKwSbIwSt11char_traitsIwESaIwEEEdeEv' filepath='/usr/bin/../lib/gcc/x86_64-linux-gnu/4.9/../../../../include/c++/4.9/bits/stl_iterator.h' line='741' column='1' visibility='default' binding='global' size-in-bits='64' elf-symbol-id='_ZNK9__gnu_cxx17__normal_iteratorIPKwSbIwSt11char_traitsIwESaIwEEEdeEv'>
            <parameter type-id='d8530292' is-artificial='yes'/>
            <return type-id='06c2fcd5'/>
          </function-decl>
        </member-function>
      </class-decl>
    </namespace-decl>
    <namespace-decl name='std'>
      <class-decl name='iterator_traits&lt;const wchar_t *&gt;' size-in-bits='8' is-struct='yes' visibility='default' filepath='/usr/bin/../lib/gcc/x86_64-linux-gnu/4.9/../../../../include/c++/4.9/bits/stl_iterator_base_types.h' line='186' column='1' id='07adec2b'>
        <member-type access='public'>
          <typedef-decl name='difference_type' type-id='d368b855' filepath='/usr/bin/../lib/gcc/x86_64-linux-gnu/4.9/../../../../include/c++/4.9/bits/stl_iterator_base_types.h' line='190' column='1' id='1fc4da34'/>
        </member-type>
        <member-type access='public'>
          <typedef-decl name='pointer' type-id='f077d3f8' filepath='/usr/bin/../lib/gcc/x86_64-linux-gnu/4.9/../../../../include/c++/4.9/bits/stl_iterator_base_types.h' line='191' column='1' id='1fa21179'/>
        </member-type>
        <member-type access='public'>
          <typedef-decl name='reference' type-id='ec77cdac' filepath='/usr/bin/../lib/gcc/x86_64-linux-gnu/4.9/../../../../include/c++/4.9/bits/stl_iterator_base_types.h' line='192' column='1' id='94df42b5'/>
        </member-type>
      </class-decl>
      <class-decl name='allocator&lt;wchar_t&gt;' visibility='default' is-declaration-only='yes' id='760ad299'>
        <member-type access='private'>
          <typedef-decl name='size_type' type-id='7a51dc7f' filepath='/usr/bin/../lib/gcc/x86_64-linux-gnu/4.9/../../../../include/c++/4.9/bits/allocator.h' line='95' column='1' id='080ef374'/>
        </member-type>
      </class-decl>
    </namespace-decl>
    <namespace-decl name='boost'>
      <class-decl name='enable_if_c&lt;true, void&gt;' size-in-bits='8' is-struct='yes' visibility='default' filepath='src/third_party/boost-1.56.0/boost/core/enable_if.hpp' line='28' column='1' id='31ffcadd'>
        <member-type access='public'>
          <typedef-decl name='type' type-id='48b5725f' filepath='src/third_party/boost-1.56.0/boost/core/enable_if.hpp' line='29' column='1' id='1cb110d8'/>
        </member-type>
      </class-decl>
      <namespace-decl name='filesystem'>
        <namespace-decl name='detail'>
          <function-decl name='unique_path' mangled-name='_ZN5boost10filesystem6detail11unique_pathERKNS0_4pathEPNS_6system10error_codeE' filepath='src/third_party/boost-1.56.0/libs/filesystem/src/unique_path.cpp' line='111' column='1' visibility='default' binding='global' size-in-bits='64' elf-symbol-id='_ZN5boost10filesystem6detail11unique_pathERKNS0_4pathEPNS_6system10error_codeE'>
            <parameter type-id='b6693e9f' name='p' filepath='src/third_party/boost-1.56.0/libs/filesystem/src/operations.cpp' line='1458' column='1'/>
            <parameter type-id='d142b053' name='ec' filepath='src/third_party/boost-1.56.0/libs/filesystem/src/operations.cpp' line='1458' column='1'/>
            <return type-id='20b2cca0'/>
          </function-decl>
        </namespace-decl>
        <namespace-decl name='path_traits'>
          <function-decl name='dispatch&lt;std::basic_string&lt;char&gt; &gt;' mangled-name='_ZN5boost10filesystem11path_traits8dispatchISsEEvRKSbIwSt11char_traitsIwESaIwEERT_RKSt7codecvtIwc11__mbstate_tE' filepath='src/third_party/boost-1.56.0/boost/filesystem/path_traits.hpp' line='177' column='1' visibility='default' binding='global' size-in-bits='64' elf-symbol-id='_ZN5boost10filesystem11path_traits8dispatchISsEEvRKSbIwSt11char_traitsIwESaIwEERT_RKSt7codecvtIwc11__mbstate_tE'>
            <parameter type-id='ae6cb45b' name='c' filepath='src/third_party/boost-1.56.0/boost/filesystem/path_traits.hpp' line='177' column='1'/>
            <parameter type-id='1a9350bb' name='to' filepath='src/third_party/boost-1.56.0/boost/filesystem/path_traits.hpp' line='177' column='1'/>
            <parameter type-id='823e0896' name='cvt' filepath='src/third_party/boost-1.56.0/boost/filesystem/path_traits.hpp' line='177' column='1'/>
            <return type-id='48b5725f'/>
          </function-decl>
        </namespace-decl>
      </namespace-decl>
    </namespace-decl>
  </abi-instr>
  <abi-instr address-size='64' path='src/third_party/boost-1.56.0/libs/filesystem/src/utf8_codecvt_facet.cpp' comp-dir-path='/home/andrew/Documents/10gen/dev/src/mongodb' language='LANG_C_plus_plus'>
    <type-decl name='unsigned char' size-in-bits='8' id='002ac4a6'/>
    <class-decl name='__anonymous_struct__' size-in-bits='64' is-struct='yes' is-anonymous='yes' visibility='default' filepath='/usr/include/wchar.h' line='82' column='1' id='e7f43f72'>
      <data-member access='public' layout-offset-in-bits='0'>
        <var-decl name='__count' type-id='95e97e5e' visibility='default' filepath='/usr/include/wchar.h' line='84' column='1'/>
      </data-member>
      <data-member access='public' layout-offset-in-bits='32'>
        <var-decl name='__value' type-id='ac5ab595' visibility='default' filepath='/usr/include/wchar.h' line='93' column='1'/>
      </data-member>
    </class-decl>
    <pointer-type-def type-id='59092076' size-in-bits='64' id='9dc9b0dc'/>
    <reference-type-def kind='lvalue' type-id='26a90f95' size-in-bits='64' id='8f23b6c9'/>
    <qualified-type-def type-id='59092076' const='yes' id='f6fa0631'/>
    <pointer-type-def type-id='f6fa0631' size-in-bits='64' id='e6979c81'/>
    <reference-type-def kind='lvalue' type-id='80f4b756' size-in-bits='64' id='713cc550'/>
    <qualified-type-def type-id='95e97e5e' const='yes' id='2448a865'/>
    <qualified-type-def type-id='c42f379d' const='yes' id='110dc181'/>
    <qualified-type-def type-id='35d38f90' const='yes' id='5e1638c4'/>
    <reference-type-def kind='lvalue' type-id='f077d3f8' size-in-bits='64' id='6aa2867a'/>
    <reference-type-def kind='lvalue' type-id='3d7d8cbf' size-in-bits='64' id='a2801b82'/>
    <reference-type-def kind='lvalue' type-id='323d93c1' size-in-bits='64' id='fdefd4a5'/>
    <namespace-decl name='std'>
      <enum-decl name='float_round_style' filepath='/usr/bin/../lib/gcc/x86_64-linux-gnu/4.9/../../../../include/c++/4.9/limits' line='156' column='1' id='35d38f90'>
        <underlying-type type-id='9cac1fee'/>
        <enumerator name='round_indeterminate' value='-1'/>
        <enumerator name='round_toward_zero' value='0'/>
        <enumerator name='round_to_nearest' value='1'/>
        <enumerator name='round_toward_infinity' value='2'/>
        <enumerator name='round_toward_neg_infinity' value='3'/>
      </enum-decl>
      <enum-decl name='float_denorm_style' filepath='/usr/bin/../lib/gcc/x86_64-linux-gnu/4.9/../../../../include/c++/4.9/limits' line='171' column='1' id='c42f379d'>
        <underlying-type type-id='9cac1fee'/>
        <enumerator name='denorm_indeterminate' value='-1'/>
        <enumerator name='denorm_absent' value='0'/>
        <enumerator name='denorm_present' value='1'/>
      </enum-decl>
      <class-decl name='numeric_limits&lt;wchar_t&gt;' size-in-bits='8' is-struct='yes' visibility='default' filepath='/usr/bin/../lib/gcc/x86_64-linux-gnu/4.9/../../../../include/c++/4.9/limits' line='650' column='1' id='3bdba5e2'>
        <data-member access='public' static='yes'>
          <var-decl name='is_specialized' type-id='4ab96a04' visibility='default' filepath='/usr/bin/../lib/gcc/x86_64-linux-gnu/4.9/../../../../include/c++/4.9/limits' line='652' column='1'/>
        </data-member>
        <data-member access='public' static='yes'>
          <var-decl name='digits' type-id='2448a865' visibility='default' filepath='/usr/bin/../lib/gcc/x86_64-linux-gnu/4.9/../../../../include/c++/4.9/limits' line='665' column='1'/>
        </data-member>
        <data-member access='public' static='yes'>
          <var-decl name='digits10' type-id='2448a865' visibility='default' filepath='/usr/bin/../lib/gcc/x86_64-linux-gnu/4.9/../../../../include/c++/4.9/limits' line='666' column='1'/>
        </data-member>
        <data-member access='public' static='yes'>
          <var-decl name='max_digits10' type-id='2448a865' visibility='default' filepath='/usr/bin/../lib/gcc/x86_64-linux-gnu/4.9/../../../../include/c++/4.9/limits' line='669' column='1'/>
        </data-member>
        <data-member access='public' static='yes'>
          <var-decl name='is_signed' type-id='4ab96a04' visibility='default' filepath='/usr/bin/../lib/gcc/x86_64-linux-gnu/4.9/../../../../include/c++/4.9/limits' line='671' column='1'/>
        </data-member>
        <data-member access='public' static='yes'>
          <var-decl name='is_integer' type-id='4ab96a04' visibility='default' filepath='/usr/bin/../lib/gcc/x86_64-linux-gnu/4.9/../../../../include/c++/4.9/limits' line='672' column='1'/>
        </data-member>
        <data-member access='public' static='yes'>
          <var-decl name='is_exact' type-id='4ab96a04' visibility='default' filepath='/usr/bin/../lib/gcc/x86_64-linux-gnu/4.9/../../../../include/c++/4.9/limits' line='673' column='1'/>
        </data-member>
        <data-member access='public' static='yes'>
          <var-decl name='radix' type-id='2448a865' visibility='default' filepath='/usr/bin/../lib/gcc/x86_64-linux-gnu/4.9/../../../../include/c++/4.9/limits' line='674' column='1'/>
        </data-member>
        <data-member access='public' static='yes'>
          <var-decl name='min_exponent' type-id='2448a865' visibility='default' filepath='/usr/bin/../lib/gcc/x86_64-linux-gnu/4.9/../../../../include/c++/4.9/limits' line='682' column='1'/>
        </data-member>
        <data-member access='public' static='yes'>
          <var-decl name='min_exponent10' type-id='2448a865' visibility='default' filepath='/usr/bin/../lib/gcc/x86_64-linux-gnu/4.9/../../../../include/c++/4.9/limits' line='683' column='1'/>
        </data-member>
        <data-member access='public' static='yes'>
          <var-decl name='max_exponent' type-id='2448a865' visibility='default' filepath='/usr/bin/../lib/gcc/x86_64-linux-gnu/4.9/../../../../include/c++/4.9/limits' line='684' column='1'/>
        </data-member>
        <data-member access='public' static='yes'>
          <var-decl name='max_exponent10' type-id='2448a865' visibility='default' filepath='/usr/bin/../lib/gcc/x86_64-linux-gnu/4.9/../../../../include/c++/4.9/limits' line='685' column='1'/>
        </data-member>
        <data-member access='public' static='yes'>
          <var-decl name='has_infinity' type-id='4ab96a04' visibility='default' filepath='/usr/bin/../lib/gcc/x86_64-linux-gnu/4.9/../../../../include/c++/4.9/limits' line='687' column='1'/>
        </data-member>
        <data-member access='public' static='yes'>
          <var-decl name='has_quiet_NaN' type-id='4ab96a04' visibility='default' filepath='/usr/bin/../lib/gcc/x86_64-linux-gnu/4.9/../../../../include/c++/4.9/limits' line='688' column='1'/>
        </data-member>
        <data-member access='public' static='yes'>
          <var-decl name='has_signaling_NaN' type-id='4ab96a04' visibility='default' filepath='/usr/bin/../lib/gcc/x86_64-linux-gnu/4.9/../../../../include/c++/4.9/limits' line='689' column='1'/>
        </data-member>
        <data-member access='public' static='yes'>
          <var-decl name='has_denorm' type-id='110dc181' visibility='default' filepath='/usr/bin/../lib/gcc/x86_64-linux-gnu/4.9/../../../../include/c++/4.9/limits' line='690' column='1'/>
        </data-member>
        <data-member access='public' static='yes'>
          <var-decl name='has_denorm_loss' type-id='4ab96a04' visibility='default' filepath='/usr/bin/../lib/gcc/x86_64-linux-gnu/4.9/../../../../include/c++/4.9/limits' line='692' column='1'/>
        </data-member>
        <data-member access='public' static='yes'>
          <var-decl name='is_iec559' type-id='4ab96a04' visibility='default' filepath='/usr/bin/../lib/gcc/x86_64-linux-gnu/4.9/../../../../include/c++/4.9/limits' line='706' column='1'/>
        </data-member>
        <data-member access='public' static='yes'>
          <var-decl name='is_bounded' type-id='4ab96a04' visibility='default' filepath='/usr/bin/../lib/gcc/x86_64-linux-gnu/4.9/../../../../include/c++/4.9/limits' line='707' column='1'/>
        </data-member>
        <data-member access='public' static='yes'>
          <var-decl name='is_modulo' type-id='4ab96a04' visibility='default' filepath='/usr/bin/../lib/gcc/x86_64-linux-gnu/4.9/../../../../include/c++/4.9/limits' line='708' column='1'/>
        </data-member>
        <data-member access='public' static='yes'>
          <var-decl name='traps' type-id='4ab96a04' visibility='default' filepath='/usr/bin/../lib/gcc/x86_64-linux-gnu/4.9/../../../../include/c++/4.9/limits' line='710' column='1'/>
        </data-member>
        <data-member access='public' static='yes'>
          <var-decl name='tinyness_before' type-id='4ab96a04' visibility='default' filepath='/usr/bin/../lib/gcc/x86_64-linux-gnu/4.9/../../../../include/c++/4.9/limits' line='711' column='1'/>
        </data-member>
        <data-member access='public' static='yes'>
          <var-decl name='round_style' type-id='5e1638c4' visibility='default' filepath='/usr/bin/../lib/gcc/x86_64-linux-gnu/4.9/../../../../include/c++/4.9/limits' line='712' column='1'/>
        </data-member>
        <member-function access='public' static='yes'>
          <function-decl name='max' mangled-name='_ZNSt14numeric_limitsIwE3maxEv' filepath='/usr/bin/../lib/gcc/x86_64-linux-gnu/4.9/../../../../include/c++/4.9/limits' line='658' column='1' visibility='default' binding='global' size-in-bits='64' elf-symbol-id='_ZNSt14numeric_limitsIwE3maxEv'>
            <return type-id='c523b9f1'/>
          </function-decl>
        </member-function>
      </class-decl>
    </namespace-decl>
    <namespace-decl name='boost'>
      <namespace-decl name='filesystem'>
        <namespace-decl name='detail'>
          <class-decl name='utf8_codecvt_facet' size-in-bits='192' is-struct='yes' visibility='default' filepath='src/third_party/boost-1.56.0/boost/detail/utf8_codecvt_facet.hpp' line='106' column='1' id='59092076'>
            <base-class access='public' layout-offset-in-bits='0' type-id='5bcbab0d'/>
            <member-function access='public' constructor='yes'>
              <function-decl name='utf8_codecvt_facet' filepath='src/third_party/boost-1.56.0/boost/detail/utf8_codecvt_facet.hpp' line='110' column='1' visibility='default' binding='global' size-in-bits='64'>
                <parameter type-id='9dc9b0dc' is-artificial='yes'/>
                <parameter type-id='7a51dc7f'/>
                <return type-id='48b5725f'/>
              </function-decl>
            </member-function>
            <member-function access='protected'>
              <function-decl name='invalid_leading_octet' mangled-name='_ZNK5boost10filesystem6detail18utf8_codecvt_facet21invalid_leading_octetEh' filepath='src/third_party/boost-1.56.0/boost/detail/utf8_codecvt_facet.hpp' line='138' column='1' visibility='default' binding='global' size-in-bits='64' elf-symbol-id='_ZNK5boost10filesystem6detail18utf8_codecvt_facet21invalid_leading_octetEh'>
                <parameter type-id='e6979c81' is-artificial='yes'/>
                <parameter type-id='002ac4a6'/>
                <return type-id='c894953d'/>
              </function-decl>
            </member-function>
            <member-function access='protected' static='yes'>
              <function-decl name='get_cont_octet_count' mangled-name='_ZN5boost10filesystem6detail18utf8_codecvt_facet20get_cont_octet_countEh' filepath='src/third_party/boost-1.56.0/boost/detail/utf8_codecvt_facet.hpp' line='144' column='1' visibility='default' binding='global' size-in-bits='64' elf-symbol-id='_ZN5boost10filesystem6detail18utf8_codecvt_facet20get_cont_octet_countEh'>
                <parameter type-id='002ac4a6'/>
                <return type-id='f0981eeb'/>
              </function-decl>
            </member-function>
            <member-function access='protected'>
              <function-decl name='invalid_continuing_octet' mangled-name='_ZNK5boost10filesystem6detail18utf8_codecvt_facet24invalid_continuing_octetEh' filepath='src/third_party/boost-1.56.0/boost/detail/utf8_codecvt_facet.hpp' line='134' column='1' visibility='default' binding='global' size-in-bits='64' elf-symbol-id='_ZNK5boost10filesystem6detail18utf8_codecvt_facet24invalid_continuing_octetEh'>
                <parameter type-id='e6979c81' is-artificial='yes'/>
                <parameter type-id='002ac4a6'/>
                <return type-id='c894953d'/>
              </function-decl>
            </member-function>
            <member-function access='protected'>
              <function-decl name='get_cont_octet_out_count' mangled-name='_ZNK5boost10filesystem6detail18utf8_codecvt_facet24get_cont_octet_out_countEw' filepath='src/third_party/boost-1.56.0/boost/detail/utf8_codecvt_facet.hpp' line='152' column='1' visibility='default' binding='global' size-in-bits='64' elf-symbol-id='_ZNK5boost10filesystem6detail18utf8_codecvt_facet24get_cont_octet_out_countEw'>
                <parameter type-id='e6979c81' is-artificial='yes'/>
                <parameter type-id='c523b9f1'/>
                <return type-id='95e97e5e'/>
              </function-decl>
            </member-function>
            <member-function access='protected' static='yes'>
              <function-decl name='get_octet_count' mangled-name='_ZN5boost10filesystem6detail18utf8_codecvt_facet15get_octet_countEh' filepath='src/third_party/boost-1.56.0/boost/detail/utf8_codecvt_facet.hpp' line='148' column='1' visibility='default' binding='global' size-in-bits='64' elf-symbol-id='_ZN5boost10filesystem6detail18utf8_codecvt_facet15get_octet_countEh'>
                <parameter type-id='002ac4a6'/>
                <return type-id='f0981eeb'/>
              </function-decl>
            </member-function>
            <member-function access='protected' vtable-offset='2'>
              <function-decl name='do_out' mangled-name='_ZNK5boost10filesystem6detail18utf8_codecvt_facet6do_outER11__mbstate_tPKwS6_RS6_PcS8_RS8_' filepath='src/third_party/boost-1.56.0/boost/detail/utf8_codecvt_facet.hpp' line='124' column='1' visibility='default' binding='global' size-in-bits='64' elf-symbol-id='_ZNK5boost10filesystem6detail18utf8_codecvt_facet6do_outER11__mbstate_tPKwS6_RS6_PcS8_RS8_'>
                <parameter type-id='e6979c81' is-artificial='yes'/>
                <parameter type-id='a2801b82'/>
                <parameter type-id='f077d3f8'/>
                <parameter type-id='f077d3f8'/>
                <parameter type-id='6aa2867a'/>
                <parameter type-id='26a90f95'/>
                <parameter type-id='26a90f95'/>
                <parameter type-id='8f23b6c9'/>
                <return type-id='eaccf398'/>
              </function-decl>
            </member-function>
            <member-function access='protected' vtable-offset='3'>
              <function-decl name='do_unshift' mangled-name='_ZNK5boost10filesystem6detail18utf8_codecvt_facet10do_unshiftER11__mbstate_tPcS5_RS5_' filepath='src/third_party/boost-1.56.0/boost/detail/utf8_codecvt_facet.hpp' line='159' column='1' visibility='default' binding='global' size-in-bits='64' elf-symbol-id='_ZNK5boost10filesystem6detail18utf8_codecvt_facet10do_unshiftER11__mbstate_tPcS5_RS5_'>
                <parameter type-id='e6979c81' is-artificial='yes'/>
                <parameter type-id='a2801b82'/>
                <parameter type-id='26a90f95'/>
                <parameter type-id='26a90f95'/>
                <parameter type-id='8f23b6c9'/>
                <return type-id='eaccf398'/>
              </function-decl>
            </member-function>
            <member-function access='protected' vtable-offset='4'>
              <function-decl name='do_in' mangled-name='_ZNK5boost10filesystem6detail18utf8_codecvt_facet5do_inER11__mbstate_tPKcS6_RS6_PwS8_RS8_' filepath='src/third_party/boost-1.56.0/boost/detail/utf8_codecvt_facet.hpp' line='114' column='1' visibility='default' binding='global' size-in-bits='64' elf-symbol-id='_ZNK5boost10filesystem6detail18utf8_codecvt_facet5do_inER11__mbstate_tPKcS6_RS6_PwS8_RS8_'>
                <parameter type-id='e6979c81' is-artificial='yes'/>
                <parameter type-id='a2801b82'/>
                <parameter type-id='80f4b756'/>
                <parameter type-id='80f4b756'/>
                <parameter type-id='713cc550'/>
                <parameter type-id='323d93c1'/>
                <parameter type-id='323d93c1'/>
                <parameter type-id='fdefd4a5'/>
                <return type-id='eaccf398'/>
              </function-decl>
            </member-function>
            <member-function access='protected' vtable-offset='5'>
              <function-decl name='do_encoding' mangled-name='_ZNK5boost10filesystem6detail18utf8_codecvt_facet11do_encodingEv' filepath='src/third_party/boost-1.56.0/boost/detail/utf8_codecvt_facet.hpp' line='169' column='1' visibility='default' binding='global' size-in-bits='64' elf-symbol-id='_ZNK5boost10filesystem6detail18utf8_codecvt_facet11do_encodingEv'>
                <parameter type-id='e6979c81' is-artificial='yes'/>
                <return type-id='95e97e5e'/>
              </function-decl>
            </member-function>
            <member-function access='protected' vtable-offset='6'>
              <function-decl name='do_always_noconv' mangled-name='_ZNK5boost10filesystem6detail18utf8_codecvt_facet16do_always_noconvEv' filepath='src/third_party/boost-1.56.0/boost/detail/utf8_codecvt_facet.hpp' line='154' column='1' visibility='default' binding='global' size-in-bits='64' elf-symbol-id='_ZNK5boost10filesystem6detail18utf8_codecvt_facet16do_always_noconvEv'>
                <parameter type-id='e6979c81' is-artificial='yes'/>
                <return type-id='c894953d'/>
              </function-decl>
            </member-function>
            <member-function access='protected' vtable-offset='7'>
              <function-decl name='do_length' mangled-name='_ZNK5boost10filesystem6detail18utf8_codecvt_facet9do_lengthER11__mbstate_tPKcS6_m' filepath='src/third_party/boost-1.56.0/boost/detail/utf8_codecvt_facet.hpp' line='176' column='1' visibility='default' binding='global' size-in-bits='64' elf-symbol-id='_ZNK5boost10filesystem6detail18utf8_codecvt_facet9do_lengthER11__mbstate_tPKcS6_m'>
                <parameter type-id='e6979c81' is-artificial='yes'/>
                <parameter type-id='a2801b82'/>
                <parameter type-id='80f4b756'/>
                <parameter type-id='80f4b756'/>
                <parameter type-id='7a51dc7f'/>
                <return type-id='95e97e5e'/>
              </function-decl>
            </member-function>
            <member-function access='protected' vtable-offset='8'>
              <function-decl name='do_max_length' mangled-name='_ZNK5boost10filesystem6detail18utf8_codecvt_facet13do_max_lengthEv' filepath='src/third_party/boost-1.56.0/boost/detail/utf8_codecvt_facet.hpp' line='184' column='1' visibility='default' binding='global' size-in-bits='64' elf-symbol-id='_ZNK5boost10filesystem6detail18utf8_codecvt_facet13do_max_lengthEv'>
                <parameter type-id='e6979c81' is-artificial='yes'/>
                <return type-id='95e97e5e'/>
              </function-decl>
            </member-function>
          </class-decl>
        </namespace-decl>
      </namespace-decl>
    </namespace-decl>
  </abi-instr>
  <abi-instr address-size='64' path='src/third_party/boost-1.56.0/libs/filesystem/src/windows_file_codecvt.cpp' comp-dir-path='/home/andrew/Documents/10gen/dev/src/mongodb' language='LANG_C_plus_plus'>
  </abi-instr>
</abi-corpus>
